Archive member included because of file (symbol)

../lib/libBT-libs.a(malloc.c.obj)
                              CMakeFiles/BrewTroller-OT_DX1_STEAMPWM.elf.dir/PVOut.cpp.obj (malloc)
../lib/libBT-libs.a(HardwareSerial.cpp.obj)
                              CMakeFiles/BrewTroller-OT_DX1_STEAMPWM.elf.dir/Com.cpp.obj (_ZN14HardwareSerial9availableEv)
../lib/libBT-libs.a(new.cpp.obj)
                              CMakeFiles/BrewTroller-OT_DX1_STEAMPWM.elf.dir/EEPROM.cpp.obj (_Znwj)
../lib/libBT-libs.a(Print.cpp.obj)
                              ../lib/libBT-libs.a(HardwareSerial.cpp.obj) (_ZN5Print5writeEPKhj)
../lib/libBT-libs.a(wiring.c.obj)
                              CMakeFiles/BrewTroller-OT_DX1_STEAMPWM.elf.dir/BrewCore.cpp.obj (millis)
../lib/libBT-libs.a(wiring_analog.c.obj)
                              CMakeFiles/BrewTroller-OT_DX1_STEAMPWM.elf.dir/Vessel.cpp.obj (analogRead)
../lib/libBT-libs.a(wiring_digital.c.obj)
                              ../lib/libBT-libs.a(wiring_analog.c.obj) (pinMode)
../lib/libBT-libs.a(WString.cpp.obj)
                              ../lib/libBT-libs.a(Print.cpp.obj) (_ZNK6StringixEj)
../lib/libBT-libs.a(EEPROM.cpp.obj)
                              CMakeFiles/BrewTroller-OT_DX1_STEAMPWM.elf.dir/EEPROM.cpp.obj (_ZN11EEPROMClass4readEi)
../lib/libBT-libs.a(Wire.cpp.obj)
                              CMakeFiles/BrewTroller-OT_DX1_STEAMPWM.elf.dir/Com.cpp.obj (_ZN7TwoWire9availableEv)
../lib/libBT-libs.a(twi.c.obj)
                              ../lib/libBT-libs.a(Wire.cpp.obj) (twi_init)
../lib/libBT-libs.a(encoder.cpp.obj)
                              CMakeFiles/BrewTroller-OT_DX1_STEAMPWM.elf.dir/UI.cpp.obj (_ZN7encoder5beginEh)
../lib/libBT-libs.a(pin.cpp.obj)
                              CMakeFiles/BrewTroller-OT_DX1_STEAMPWM.elf.dir/BrewTroller.cpp.obj (_ZN3pinC1Ev)
../lib/libBT-libs.a(menu.cpp.obj)
                              CMakeFiles/BrewTroller-OT_DX1_STEAMPWM.elf.dir/UI.cpp.obj (_ZN4menuC1Ehh)
../lib/libBT-libs.a(ModbusMaster.cpp.obj)
                              CMakeFiles/BrewTroller-OT_DX1_STEAMPWM.elf.dir/PVOut.cpp.obj (_ZN12ModbusMasterC1Ev)
../lib/libBT-libs.a(PID_Beta6.cpp.obj)
                              CMakeFiles/BrewTroller-OT_DX1_STEAMPWM.elf.dir/Vessel.cpp.obj (_ZN3PID14SetInputLimitsEdd)
../lib/libBT-libs.a(DS2482.cpp.obj)
                              CMakeFiles/BrewTroller-OT_DX1_STEAMPWM.elf.dir/Temp.cpp.obj (_ZN6DS2482C1Eh)
../lib/libBT-libs.a(realloc.c.obj)
                              ../lib/libBT-libs.a(WString.cpp.obj) (realloc)
../lib/libBT-libs.a(WInterrupts.c.obj)
                              ../lib/libBT-libs.a(encoder.cpp.obj) (attachInterrupt)
../lib/libBT-libs.a(WMath.cpp.obj)
                              ../lib/libBT-libs.a(ModbusMaster.cpp.obj) (_Z8makeWordhh)
/usr/lib/gcc/avr/4.8.2/avr51/libgcc.a(_umulhisi3.o)
                              CMakeFiles/BrewTroller-OT_DX1_STEAMPWM.elf.dir/UI.cpp.obj (__umulhisi3)
/usr/lib/gcc/avr/4.8.2/avr51/libgcc.a(_usmulhisi3.o)
                              CMakeFiles/BrewTroller-OT_DX1_STEAMPWM.elf.dir/EEPROM.cpp.obj (__usmulhisi3)
/usr/lib/gcc/avr/4.8.2/avr51/libgcc.a(_muluhisi3.o)
                              CMakeFiles/BrewTroller-OT_DX1_STEAMPWM.elf.dir/Com_BTPD.cpp.obj (__muluhisi3)
/usr/lib/gcc/avr/4.8.2/avr51/libgcc.a(_mulshisi3.o)
                              CMakeFiles/BrewTroller-OT_DX1_STEAMPWM.elf.dir/UI.cpp.obj (__mulshisi3)
/usr/lib/gcc/avr/4.8.2/avr51/libgcc.a(_mulsi3.o)
                              CMakeFiles/BrewTroller-OT_DX1_STEAMPWM.elf.dir/StepLogic.cpp.obj (__mulsi3)
/usr/lib/gcc/avr/4.8.2/avr51/libgcc.a(_udivmodhi4.o)
                              CMakeFiles/BrewTroller-OT_DX1_STEAMPWM.elf.dir/UI.cpp.obj (__udivmodhi4)
/usr/lib/gcc/avr/4.8.2/avr51/libgcc.a(_divmodhi4.o)
                              CMakeFiles/BrewTroller-OT_DX1_STEAMPWM.elf.dir/Com.cpp.obj (__divmodhi4)
/usr/lib/gcc/avr/4.8.2/avr51/libgcc.a(_udivmodsi4.o)
                              CMakeFiles/BrewTroller-OT_DX1_STEAMPWM.elf.dir/Com_BTPD.cpp.obj (__udivmodsi4)
/usr/lib/gcc/avr/4.8.2/avr51/libgcc.a(_divmodsi4.o)
                              CMakeFiles/BrewTroller-OT_DX1_STEAMPWM.elf.dir/Temp.cpp.obj (__divmodsi4)
/usr/lib/gcc/avr/4.8.2/avr51/libgcc.a(_negsi2.o)
                              /usr/lib/gcc/avr/4.8.2/avr51/libgcc.a(_divmodsi4.o) (__negsi2)
/usr/lib/gcc/avr/4.8.2/avr51/libgcc.a(_prologue.o)
                              CMakeFiles/BrewTroller-OT_DX1_STEAMPWM.elf.dir/BrewCore.cpp.obj (__prologue_saves__)
/usr/lib/gcc/avr/4.8.2/avr51/libgcc.a(_epilogue.o)
                              CMakeFiles/BrewTroller-OT_DX1_STEAMPWM.elf.dir/BrewCore.cpp.obj (__epilogue_restores__)
/usr/lib/gcc/avr/4.8.2/avr51/libgcc.a(_exit.o)
                              /usr/lib/gcc/avr/4.8.2/../../../avr/lib/avr51/crtm1284p.o (exit)
/usr/lib/gcc/avr/4.8.2/avr51/libgcc.a(_tablejump.o)
                              CMakeFiles/BrewTroller-OT_DX1_STEAMPWM.elf.dir/BrewCore.cpp.obj (__tablejump2__)
/usr/lib/gcc/avr/4.8.2/avr51/libgcc.a(_copy_data.o)
                              CMakeFiles/BrewTroller-OT_DX1_STEAMPWM.elf.dir/BrewTroller.cpp.obj (__do_copy_data)
/usr/lib/gcc/avr/4.8.2/avr51/libgcc.a(_clear_bss.o)
                              CMakeFiles/BrewTroller-OT_DX1_STEAMPWM.elf.dir/BrewCore.cpp.obj (__do_clear_bss)
/usr/lib/gcc/avr/4.8.2/avr51/libgcc.a(_ctors.o)
                              CMakeFiles/BrewTroller-OT_DX1_STEAMPWM.elf.dir/BrewTroller.cpp.obj (__do_global_ctors)
/usr/lib/gcc/avr/4.8.2/avr51/libgcc.a(_dtors.o)
                              CMakeFiles/BrewTroller-OT_DX1_STEAMPWM.elf.dir/BrewTroller.cpp.obj (__do_global_dtors)
/usr/lib/gcc/avr/4.8.2/avr51/libgcc.a(_tablejump_elpm.o)
                              /usr/lib/gcc/avr/4.8.2/avr51/libgcc.a(_ctors.o) (__tablejump_elpm__)
/usr/lib/gcc/avr/4.8.2/../../../avr/lib/avr51/libm.a(addsf3.o)
                              CMakeFiles/BrewTroller-OT_DX1_STEAMPWM.elf.dir/StepLogic.cpp.obj (__subsf3)
/usr/lib/gcc/avr/4.8.2/../../../avr/lib/avr51/libm.a(addsf3x.o)
                              /usr/lib/gcc/avr/4.8.2/../../../avr/lib/avr51/libm.a(addsf3.o) (__addsf3x)
/usr/lib/gcc/avr/4.8.2/../../../avr/lib/avr51/libm.a(cmpsf2.o)
                              CMakeFiles/BrewTroller-OT_DX1_STEAMPWM.elf.dir/Com_BTPD.cpp.obj (__eqsf2)
/usr/lib/gcc/avr/4.8.2/../../../avr/lib/avr51/libm.a(divsf3.o)
                              CMakeFiles/BrewTroller-OT_DX1_STEAMPWM.elf.dir/Com.cpp.obj (__divsf3)
/usr/lib/gcc/avr/4.8.2/../../../avr/lib/avr51/libm.a(divsf3x.o)
                              /usr/lib/gcc/avr/4.8.2/../../../avr/lib/avr51/libm.a(divsf3.o) (__divsf3x)
/usr/lib/gcc/avr/4.8.2/../../../avr/lib/avr51/libm.a(fixsfsi.o)
                              CMakeFiles/BrewTroller-OT_DX1_STEAMPWM.elf.dir/StepLogic.cpp.obj (__fixsfsi)
/usr/lib/gcc/avr/4.8.2/../../../avr/lib/avr51/libm.a(fixunssfsi.o)
                              CMakeFiles/BrewTroller-OT_DX1_STEAMPWM.elf.dir/Com.cpp.obj (__fixunssfsi)
/usr/lib/gcc/avr/4.8.2/../../../avr/lib/avr51/libm.a(floatsisf.o)
                              CMakeFiles/BrewTroller-OT_DX1_STEAMPWM.elf.dir/Com.cpp.obj (__floatunsisf)
/usr/lib/gcc/avr/4.8.2/../../../avr/lib/avr51/libm.a(fp_cmp.o)
                              /usr/lib/gcc/avr/4.8.2/../../../avr/lib/avr51/libm.a(cmpsf2.o) (__fp_cmp)
/usr/lib/gcc/avr/4.8.2/../../../avr/lib/avr51/libm.a(fp_inf.o)
                              /usr/lib/gcc/avr/4.8.2/../../../avr/lib/avr51/libm.a(addsf3x.o) (__fp_inf)
/usr/lib/gcc/avr/4.8.2/../../../avr/lib/avr51/libm.a(fp_nan.o)
                              /usr/lib/gcc/avr/4.8.2/../../../avr/lib/avr51/libm.a(addsf3x.o) (__fp_nan)
/usr/lib/gcc/avr/4.8.2/../../../avr/lib/avr51/libm.a(fp_pscA.o)
                              /usr/lib/gcc/avr/4.8.2/../../../avr/lib/avr51/libm.a(addsf3x.o) (__fp_pscA)
/usr/lib/gcc/avr/4.8.2/../../../avr/lib/avr51/libm.a(fp_pscB.o)
                              /usr/lib/gcc/avr/4.8.2/../../../avr/lib/avr51/libm.a(addsf3x.o) (__fp_pscB)
/usr/lib/gcc/avr/4.8.2/../../../avr/lib/avr51/libm.a(fp_round.o)
                              /usr/lib/gcc/avr/4.8.2/../../../avr/lib/avr51/libm.a(addsf3.o) (__fp_round)
/usr/lib/gcc/avr/4.8.2/../../../avr/lib/avr51/libm.a(fp_split3.o)
                              /usr/lib/gcc/avr/4.8.2/../../../avr/lib/avr51/libm.a(addsf3x.o) (__fp_split3)
/usr/lib/gcc/avr/4.8.2/../../../avr/lib/avr51/libm.a(fp_zero.o)
                              /usr/lib/gcc/avr/4.8.2/../../../avr/lib/avr51/libm.a(addsf3x.o) (__fp_zero)
/usr/lib/gcc/avr/4.8.2/../../../avr/lib/avr51/libm.a(gesf2.o)
                              CMakeFiles/BrewTroller-OT_DX1_STEAMPWM.elf.dir/StepLogic.cpp.obj (__gesf2)
/usr/lib/gcc/avr/4.8.2/../../../avr/lib/avr51/libm.a(mulsf3.o)
                              CMakeFiles/BrewTroller-OT_DX1_STEAMPWM.elf.dir/Com.cpp.obj (__mulsf3)
/usr/lib/gcc/avr/4.8.2/../../../avr/lib/avr51/libm.a(mulsf3x.o)
                              /usr/lib/gcc/avr/4.8.2/../../../avr/lib/avr51/libm.a(mulsf3.o) (__mulsf3x)
/usr/lib/gcc/avr/4.8.2/../../../avr/lib/avr51/libm.a(pow.o)
                              CMakeFiles/BrewTroller-OT_DX1_STEAMPWM.elf.dir/Util.cpp.obj (pow)
/usr/lib/gcc/avr/4.8.2/../../../avr/lib/avr51/libm.a(unordsf2.o)
                              ../lib/libBT-libs.a(Print.cpp.obj) (__unordsf2)
/usr/lib/gcc/avr/4.8.2/../../../avr/lib/avr51/libm.a(exp.o)
                              /usr/lib/gcc/avr/4.8.2/../../../avr/lib/avr51/libm.a(pow.o) (exp)
/usr/lib/gcc/avr/4.8.2/../../../avr/lib/avr51/libm.a(fp_powser.o)
                              /usr/lib/gcc/avr/4.8.2/../../../avr/lib/avr51/libm.a(exp.o) (__fp_powser)
/usr/lib/gcc/avr/4.8.2/../../../avr/lib/avr51/libm.a(inverse.o)
                              /usr/lib/gcc/avr/4.8.2/../../../avr/lib/avr51/libm.a(exp.o) (inverse)
/usr/lib/gcc/avr/4.8.2/../../../avr/lib/avr51/libm.a(ldexp.o)
                              /usr/lib/gcc/avr/4.8.2/../../../avr/lib/avr51/libm.a(exp.o) (ldexp)
/usr/lib/gcc/avr/4.8.2/../../../avr/lib/avr51/libm.a(log.o)
                              /usr/lib/gcc/avr/4.8.2/../../../avr/lib/avr51/libm.a(pow.o) (log)
/usr/lib/gcc/avr/4.8.2/../../../avr/lib/avr51/libm.a(modf.o)
                              /usr/lib/gcc/avr/4.8.2/../../../avr/lib/avr51/libm.a(exp.o) (modf)
/usr/lib/gcc/avr/4.8.2/../../../avr/lib/avr51/libm.a(fp_mpack.o)
                              /usr/lib/gcc/avr/4.8.2/../../../avr/lib/avr51/libm.a(ldexp.o) (__fp_mpack)
/usr/lib/gcc/avr/4.8.2/../../../avr/lib/avr51/libc.a(random.o)
                              ../lib/libBT-libs.a(WMath.cpp.obj) (random)
/usr/lib/gcc/avr/4.8.2/../../../avr/lib/avr51/libc.a(strtoul.o)
                              CMakeFiles/BrewTroller-OT_DX1_STEAMPWM.elf.dir/Com.cpp.obj (strtoul)
/usr/lib/gcc/avr/4.8.2/../../../avr/lib/avr51/libc.a(atoi.o)
                              CMakeFiles/BrewTroller-OT_DX1_STEAMPWM.elf.dir/Com.cpp.obj (atoi)
/usr/lib/gcc/avr/4.8.2/../../../avr/lib/avr51/libc.a(atol.o)
                              ../lib/libBT-libs.a(WString.cpp.obj) (atol)
/usr/lib/gcc/avr/4.8.2/../../../avr/lib/avr51/libc.a(isspace.o)
                              ../lib/libBT-libs.a(WString.cpp.obj) (isspace)
/usr/lib/gcc/avr/4.8.2/../../../avr/lib/avr51/libc.a(tolower.o)
                              ../lib/libBT-libs.a(WString.cpp.obj) (tolower)
/usr/lib/gcc/avr/4.8.2/../../../avr/lib/avr51/libc.a(toupper.o)
                              ../lib/libBT-libs.a(WString.cpp.obj) (toupper)
/usr/lib/gcc/avr/4.8.2/../../../avr/lib/avr51/libc.a(memcpy_P.o)
                              CMakeFiles/BrewTroller-OT_DX1_STEAMPWM.elf.dir/UI.cpp.obj (memcpy_P)
/usr/lib/gcc/avr/4.8.2/../../../avr/lib/avr51/libc.a(strcat_P.o)
                              CMakeFiles/BrewTroller-OT_DX1_STEAMPWM.elf.dir/UI.cpp.obj (strcat_P)
/usr/lib/gcc/avr/4.8.2/../../../avr/lib/avr51/libc.a(strcpy_P.o)
                              CMakeFiles/BrewTroller-OT_DX1_STEAMPWM.elf.dir/UI.cpp.obj (strcpy_P)
/usr/lib/gcc/avr/4.8.2/../../../avr/lib/avr51/libc.a(strlen_P.o)
                              CMakeFiles/BrewTroller-OT_DX1_STEAMPWM.elf.dir/UI.cpp.obj (__strlen_P)
/usr/lib/gcc/avr/4.8.2/../../../avr/lib/avr51/libc.a(memcpy.o)
                              CMakeFiles/BrewTroller-OT_DX1_STEAMPWM.elf.dir/UI.cpp.obj (memcpy)
/usr/lib/gcc/avr/4.8.2/../../../avr/lib/avr51/libc.a(memmove.o)
                              ../lib/libBT-libs.a(WString.cpp.obj) (memmove)
/usr/lib/gcc/avr/4.8.2/../../../avr/lib/avr51/libc.a(memset.o)
                              CMakeFiles/BrewTroller-OT_DX1_STEAMPWM.elf.dir/UI.cpp.obj (memset)
/usr/lib/gcc/avr/4.8.2/../../../avr/lib/avr51/libc.a(strcasecmp.o)
                              CMakeFiles/BrewTroller-OT_DX1_STEAMPWM.elf.dir/Com.cpp.obj (strcasecmp)
/usr/lib/gcc/avr/4.8.2/../../../avr/lib/avr51/libc.a(strcat.o)
                              CMakeFiles/BrewTroller-OT_DX1_STEAMPWM.elf.dir/Com.cpp.obj (strcat)
/usr/lib/gcc/avr/4.8.2/../../../avr/lib/avr51/libc.a(strchr.o)
                              ../lib/libBT-libs.a(WString.cpp.obj) (strchr)
/usr/lib/gcc/avr/4.8.2/../../../avr/lib/avr51/libc.a(strcmp.o)
                              ../lib/libBT-libs.a(WString.cpp.obj) (strcmp)
/usr/lib/gcc/avr/4.8.2/../../../avr/lib/avr51/libc.a(strcpy.o)
                              CMakeFiles/BrewTroller-OT_DX1_STEAMPWM.elf.dir/UI.cpp.obj (strcpy)
/usr/lib/gcc/avr/4.8.2/../../../avr/lib/avr51/libc.a(strncmp.o)
                              ../lib/libBT-libs.a(WString.cpp.obj) (strncmp)
/usr/lib/gcc/avr/4.8.2/../../../avr/lib/avr51/libc.a(strncpy.o)
                              ../lib/libBT-libs.a(WString.cpp.obj) (strncpy)
/usr/lib/gcc/avr/4.8.2/../../../avr/lib/avr51/libc.a(strrchr.o)
                              ../lib/libBT-libs.a(WString.cpp.obj) (strrchr)
/usr/lib/gcc/avr/4.8.2/../../../avr/lib/avr51/libc.a(strstr.o)
                              ../lib/libBT-libs.a(WString.cpp.obj) (strstr)
/usr/lib/gcc/avr/4.8.2/../../../avr/lib/avr51/libc.a(itoa.o)
                              CMakeFiles/BrewTroller-OT_DX1_STEAMPWM.elf.dir/Com.cpp.obj (itoa)
/usr/lib/gcc/avr/4.8.2/../../../avr/lib/avr51/libc.a(ltoa.o)
                              ../lib/libBT-libs.a(WString.cpp.obj) (ltoa)
/usr/lib/gcc/avr/4.8.2/../../../avr/lib/avr51/libc.a(mulsi10.o)
                              /usr/lib/gcc/avr/4.8.2/../../../avr/lib/avr51/libc.a(atol.o) (__mulsi_const_10)
/usr/lib/gcc/avr/4.8.2/../../../avr/lib/avr51/libc.a(mul10.o)
                              /usr/lib/gcc/avr/4.8.2/../../../avr/lib/avr51/libc.a(atoi.o) (__mulhi_const_10)
/usr/lib/gcc/avr/4.8.2/../../../avr/lib/avr51/libc.a(ultoa.o)
                              CMakeFiles/BrewTroller-OT_DX1_STEAMPWM.elf.dir/Com.cpp.obj (ultoa)
/usr/lib/gcc/avr/4.8.2/../../../avr/lib/avr51/libc.a(utoa.o)
                              ../lib/libBT-libs.a(WString.cpp.obj) (utoa)
/usr/lib/gcc/avr/4.8.2/../../../avr/lib/avr51/libc.a(sprintf.o)
                              CMakeFiles/BrewTroller-OT_DX1_STEAMPWM.elf.dir/UI.cpp.obj (sprintf)
/usr/lib/gcc/avr/4.8.2/../../../avr/lib/avr51/libc.a(vfprintf_std.o)
                              /usr/lib/gcc/avr/4.8.2/../../../avr/lib/avr51/libc.a(sprintf.o) (vfprintf)
/usr/lib/gcc/avr/4.8.2/../../../avr/lib/avr51/libc.a(eerd_block_atmega1284p.o)
                              CMakeFiles/BrewTroller-OT_DX1_STEAMPWM.elf.dir/EEPROM.cpp.obj (__eerd_block_m1284p)
/usr/lib/gcc/avr/4.8.2/../../../avr/lib/avr51/libc.a(eerd_byte_atmega1284p.o)
                              ../lib/libBT-libs.a(EEPROM.cpp.obj) (__eerd_byte_m1284p)
/usr/lib/gcc/avr/4.8.2/../../../avr/lib/avr51/libc.a(eewr_block_atmega1284p.o)
                              CMakeFiles/BrewTroller-OT_DX1_STEAMPWM.elf.dir/EEPROM.cpp.obj (__eewr_block_m1284p)
/usr/lib/gcc/avr/4.8.2/../../../avr/lib/avr51/libc.a(eewr_byte_atmega1284p.o)
                              ../lib/libBT-libs.a(EEPROM.cpp.obj) (__eewr_byte_m1284p)
/usr/lib/gcc/avr/4.8.2/../../../avr/lib/avr51/libc.a(errno.o)
                              /usr/lib/gcc/avr/4.8.2/../../../avr/lib/avr51/libc.a(strtoul.o) (errno)
/usr/lib/gcc/avr/4.8.2/../../../avr/lib/avr51/libc.a(cty_isfalse.o)
                              /usr/lib/gcc/avr/4.8.2/../../../avr/lib/avr51/libc.a(isspace.o) (__ctype_isfalse)
/usr/lib/gcc/avr/4.8.2/../../../avr/lib/avr51/libc.a(strnlen_P.o)
                              /usr/lib/gcc/avr/4.8.2/../../../avr/lib/avr51/libc.a(vfprintf_std.o) (strnlen_P)
/usr/lib/gcc/avr/4.8.2/../../../avr/lib/avr51/libc.a(strnlen.o)
                              /usr/lib/gcc/avr/4.8.2/../../../avr/lib/avr51/libc.a(vfprintf_std.o) (strnlen)
/usr/lib/gcc/avr/4.8.2/../../../avr/lib/avr51/libc.a(strrev.o)
                              /usr/lib/gcc/avr/4.8.2/../../../avr/lib/avr51/libc.a(itoa.o) (strrev)
/usr/lib/gcc/avr/4.8.2/../../../avr/lib/avr51/libc.a(fputc.o)
                              /usr/lib/gcc/avr/4.8.2/../../../avr/lib/avr51/libc.a(vfprintf_std.o) (fputc)
/usr/lib/gcc/avr/4.8.2/../../../avr/lib/avr51/libc.a(ultoa_invert.o)
                              /usr/lib/gcc/avr/4.8.2/../../../avr/lib/avr51/libc.a(vfprintf_std.o) (__ultoa_invert)

Allocating common symbols
Common symbol       size              file

errno               0x2               /usr/lib/gcc/avr/4.8.2/../../../avr/lib/avr51/libc.a(errno.o)
__brkval            0x2               ../lib/libBT-libs.a(malloc.c.obj)
__flp               0x2               ../lib/libBT-libs.a(malloc.c.obj)

Discarded input sections

 .bss           0x0000000000000000        0x0 /usr/lib/gcc/avr/4.8.2/../../../avr/lib/avr51/crtm1284p.o
 .group         0x0000000000000000        0x8 CMakeFiles/BrewTroller-OT_DX1_STEAMPWM.elf.dir/BrewCore.cpp.obj
 .group         0x0000000000000000        0x8 CMakeFiles/BrewTroller-OT_DX1_STEAMPWM.elf.dir/BrewCore.cpp.obj
 .text          0x0000000000000000        0x0 CMakeFiles/BrewTroller-OT_DX1_STEAMPWM.elf.dir/BrewCore.cpp.obj
 .bss           0x0000000000000000        0x0 CMakeFiles/BrewTroller-OT_DX1_STEAMPWM.elf.dir/BrewCore.cpp.obj
 .text          0x0000000000000000        0x0 CMakeFiles/BrewTroller-OT_DX1_STEAMPWM.elf.dir/BrewTroller.cpp.obj
 .bss           0x0000000000000000        0x0 CMakeFiles/BrewTroller-OT_DX1_STEAMPWM.elf.dir/BrewTroller.cpp.obj
 .progmem.data.LOGDATA
                0x0000000000000000        0x5 CMakeFiles/BrewTroller-OT_DX1_STEAMPWM.elf.dir/BrewTroller.cpp.obj
 .progmem.data.LOGCFG
                0x0000000000000000        0x4 CMakeFiles/BrewTroller-OT_DX1_STEAMPWM.elf.dir/BrewTroller.cpp.obj
 .progmem.data.LOGDEBUG
                0x0000000000000000        0x6 CMakeFiles/BrewTroller-OT_DX1_STEAMPWM.elf.dir/BrewTroller.cpp.obj
 .progmem.data.LOGCMD
                0x0000000000000000        0x4 CMakeFiles/BrewTroller-OT_DX1_STEAMPWM.elf.dir/BrewTroller.cpp.obj
 .bss.PIDEnabled
                0x0000000000000000        0x1 CMakeFiles/BrewTroller-OT_DX1_STEAMPWM.elf.dir/BrewTroller.cpp.obj
 .bss.heatStatus
                0x0000000000000000        0x1 CMakeFiles/BrewTroller-OT_DX1_STEAMPWM.elf.dir/BrewTroller.cpp.obj
 .bss.hysteresis
                0x0000000000000000        0x1 CMakeFiles/BrewTroller-OT_DX1_STEAMPWM.elf.dir/BrewTroller.cpp.obj
 .bss.PIDCycle  0x0000000000000000        0x1 CMakeFiles/BrewTroller-OT_DX1_STEAMPWM.elf.dir/BrewTroller.cpp.obj
 .bss.tgtVol    0x0000000000000000        0xc CMakeFiles/BrewTroller-OT_DX1_STEAMPWM.elf.dir/BrewTroller.cpp.obj
 .text          0x0000000000000000        0x0 CMakeFiles/BrewTroller-OT_DX1_STEAMPWM.elf.dir/Com.cpp.obj
 .bss           0x0000000000000000        0x0 CMakeFiles/BrewTroller-OT_DX1_STEAMPWM.elf.dir/Com.cpp.obj
 .text._ZN5BTnic5resetEv
                0x0000000000000000       0x14 CMakeFiles/BrewTroller-OT_DX1_STEAMPWM.elf.dir/Com.cpp.obj
 .text._ZN5BTnic12eventHandlerEhi
                0x0000000000000000        0x2 CMakeFiles/BrewTroller-OT_DX1_STEAMPWM.elf.dir/Com.cpp.obj
 .text._ZN5BTnic8setStateE10BTNICState
                0x0000000000000000        0x6 CMakeFiles/BrewTroller-OT_DX1_STEAMPWM.elf.dir/Com.cpp.obj
 .group         0x0000000000000000        0x8 CMakeFiles/BrewTroller-OT_DX1_STEAMPWM.elf.dir/Com_BTPD.cpp.obj
 .group         0x0000000000000000        0x8 CMakeFiles/BrewTroller-OT_DX1_STEAMPWM.elf.dir/Com_BTPD.cpp.obj
 .text          0x0000000000000000        0x0 CMakeFiles/BrewTroller-OT_DX1_STEAMPWM.elf.dir/Com_BTPD.cpp.obj
 .bss           0x0000000000000000        0x0 CMakeFiles/BrewTroller-OT_DX1_STEAMPWM.elf.dir/Com_BTPD.cpp.obj
 .text._ZN7TwoWire5writeEi
                0x0000000000000000       0x10 CMakeFiles/BrewTroller-OT_DX1_STEAMPWM.elf.dir/Com_BTPD.cpp.obj
 .text._Z14sendFloat1BTPDhf
                0x0000000000000000       0x58 CMakeFiles/BrewTroller-OT_DX1_STEAMPWM.elf.dir/Com_BTPD.cpp.obj
 .text._Z14sendFloat2BTPDhf
                0x0000000000000000       0x58 CMakeFiles/BrewTroller-OT_DX1_STEAMPWM.elf.dir/Com_BTPD.cpp.obj
 .text._Z9sendVsVolhh
                0x0000000000000000       0x5a CMakeFiles/BrewTroller-OT_DX1_STEAMPWM.elf.dir/Com_BTPD.cpp.obj
 .text._Z13sendVesselVolhP6Vessel
                0x0000000000000000       0x4c CMakeFiles/BrewTroller-OT_DX1_STEAMPWM.elf.dir/Com_BTPD.cpp.obj
 .text          0x0000000000000000        0x0 CMakeFiles/BrewTroller-OT_DX1_STEAMPWM.elf.dir/Com_RGBIO8.cpp.obj
 .bss           0x0000000000000000        0x0 CMakeFiles/BrewTroller-OT_DX1_STEAMPWM.elf.dir/Com_RGBIO8.cpp.obj
 .text          0x0000000000000000        0x0 CMakeFiles/BrewTroller-OT_DX1_STEAMPWM.elf.dir/Com_S0ASC.cpp.obj
 .bss           0x0000000000000000        0x0 CMakeFiles/BrewTroller-OT_DX1_STEAMPWM.elf.dir/Com_S0ASC.cpp.obj
 .text          0x0000000000000000        0x0 CMakeFiles/BrewTroller-OT_DX1_STEAMPWM.elf.dir/EEPROM.cpp.obj
 .bss           0x0000000000000000        0x0 CMakeFiles/BrewTroller-OT_DX1_STEAMPWM.elf.dir/EEPROM.cpp.obj
 .text._Z12setSteamZeroj
                0x0000000000000000        0x2 CMakeFiles/BrewTroller-OT_DX1_STEAMPWM.elf.dir/EEPROM.cpp.obj
 .text._Z11setSteamTgth
                0x0000000000000000       0x10 CMakeFiles/BrewTroller-OT_DX1_STEAMPWM.elf.dir/EEPROM.cpp.obj
 .text._Z11getSteamTgtv
                0x0000000000000000        0xe CMakeFiles/BrewTroller-OT_DX1_STEAMPWM.elf.dir/EEPROM.cpp.obj
 .text          0x0000000000000000        0x0 CMakeFiles/BrewTroller-OT_DX1_STEAMPWM.elf.dir/Events.cpp.obj
 .bss           0x0000000000000000        0x0 CMakeFiles/BrewTroller-OT_DX1_STEAMPWM.elf.dir/Events.cpp.obj
 .text          0x0000000000000000        0x0 CMakeFiles/BrewTroller-OT_DX1_STEAMPWM.elf.dir/Outputs.cpp.obj
 .bss           0x0000000000000000        0x0 CMakeFiles/BrewTroller-OT_DX1_STEAMPWM.elf.dir/Outputs.cpp.obj
 .text          0x0000000000000000        0x0 CMakeFiles/BrewTroller-OT_DX1_STEAMPWM.elf.dir/PVOut.cpp.obj
 .bss           0x0000000000000000        0x0 CMakeFiles/BrewTroller-OT_DX1_STEAMPWM.elf.dir/PVOut.cpp.obj
 .text._ZN8PVOutMUXC2Ehhhhh
                0x0000000000000000       0xa4 CMakeFiles/BrewTroller-OT_DX1_STEAMPWM.elf.dir/PVOut.cpp.obj
 .text._ZN8PVOutMUX3setEm
                0x0000000000000000       0xf4 CMakeFiles/BrewTroller-OT_DX1_STEAMPWM.elf.dir/PVOut.cpp.obj
 .text._ZN8PVOutMUX4initEv
                0x0000000000000000       0x5a CMakeFiles/BrewTroller-OT_DX1_STEAMPWM.elf.dir/PVOut.cpp.obj
 .text._ZN8PVOutMUX3getEv
                0x0000000000000000        0xc CMakeFiles/BrewTroller-OT_DX1_STEAMPWM.elf.dir/PVOut.cpp.obj
 .text._ZN11PVOutMODBUS4initEv
                0x0000000000000000        0xc CMakeFiles/BrewTroller-OT_DX1_STEAMPWM.elf.dir/PVOut.cpp.obj
 .text._ZN11PVOutMODBUS3getEv
                0x0000000000000000        0xc CMakeFiles/BrewTroller-OT_DX1_STEAMPWM.elf.dir/PVOut.cpp.obj
 .text          0x0000000000000000        0x0 CMakeFiles/BrewTroller-OT_DX1_STEAMPWM.elf.dir/StepLogic.cpp.obj
 .bss           0x0000000000000000        0x0 CMakeFiles/BrewTroller-OT_DX1_STEAMPWM.elf.dir/StepLogic.cpp.obj
 .text._Z12brewStepFunch
                0x0000000000000000       0x1c CMakeFiles/BrewTroller-OT_DX1_STEAMPWM.elf.dir/StepLogic.cpp.obj
 .text          0x0000000000000000        0x0 CMakeFiles/BrewTroller-OT_DX1_STEAMPWM.elf.dir/Temp.cpp.obj
 .bss           0x0000000000000000        0x0 CMakeFiles/BrewTroller-OT_DX1_STEAMPWM.elf.dir/Temp.cpp.obj
 .text          0x0000000000000000        0x0 CMakeFiles/BrewTroller-OT_DX1_STEAMPWM.elf.dir/Timer.cpp.obj
 .bss           0x0000000000000000        0x0 CMakeFiles/BrewTroller-OT_DX1_STEAMPWM.elf.dir/Timer.cpp.obj
 .group         0x0000000000000000        0x8 CMakeFiles/BrewTroller-OT_DX1_STEAMPWM.elf.dir/UI.cpp.obj
 .group         0x0000000000000000        0x8 CMakeFiles/BrewTroller-OT_DX1_STEAMPWM.elf.dir/UI.cpp.obj
 .group         0x0000000000000000        0x8 CMakeFiles/BrewTroller-OT_DX1_STEAMPWM.elf.dir/UI.cpp.obj
 .group         0x0000000000000000        0x8 CMakeFiles/BrewTroller-OT_DX1_STEAMPWM.elf.dir/UI.cpp.obj
 .group         0x0000000000000000        0x8 CMakeFiles/BrewTroller-OT_DX1_STEAMPWM.elf.dir/UI.cpp.obj
 .group         0x0000000000000000        0x8 CMakeFiles/BrewTroller-OT_DX1_STEAMPWM.elf.dir/UI.cpp.obj
 .group         0x0000000000000000        0x8 CMakeFiles/BrewTroller-OT_DX1_STEAMPWM.elf.dir/UI.cpp.obj
 .group         0x0000000000000000        0x8 CMakeFiles/BrewTroller-OT_DX1_STEAMPWM.elf.dir/UI.cpp.obj
 .group         0x0000000000000000        0x8 CMakeFiles/BrewTroller-OT_DX1_STEAMPWM.elf.dir/UI.cpp.obj
 .group         0x0000000000000000        0x8 CMakeFiles/BrewTroller-OT_DX1_STEAMPWM.elf.dir/UI.cpp.obj
 .group         0x0000000000000000        0x8 CMakeFiles/BrewTroller-OT_DX1_STEAMPWM.elf.dir/UI.cpp.obj
 .group         0x0000000000000000        0x8 CMakeFiles/BrewTroller-OT_DX1_STEAMPWM.elf.dir/UI.cpp.obj
 .text          0x0000000000000000        0x0 CMakeFiles/BrewTroller-OT_DX1_STEAMPWM.elf.dir/UI.cpp.obj
 .bss           0x0000000000000000        0x0 CMakeFiles/BrewTroller-OT_DX1_STEAMPWM.elf.dir/UI.cpp.obj
 .text._ZN7TwoWire5writeEi
                0x0000000000000000       0x10 CMakeFiles/BrewTroller-OT_DX1_STEAMPWM.elf.dir/UI.cpp.obj
 .text._Z9setActiveh
                0x0000000000000000        0xc CMakeFiles/BrewTroller-OT_DX1_STEAMPWM.elf.dir/UI.cpp.obj
 .text._Z5ulpowmm
                0x0000000000000000       0x6a CMakeFiles/BrewTroller-OT_DX1_STEAMPWM.elf.dir/UI.cpp.obj
 .text._Z10setPIDGainPch
                0x0000000000000000      0x340 CMakeFiles/BrewTroller-OT_DX1_STEAMPWM.elf.dir/UI.cpp.obj
 .text._Z11getHexValuePcm
                0x0000000000000000      0x2ae CMakeFiles/BrewTroller-OT_DX1_STEAMPWM.elf.dir/UI.cpp.obj
 .text._ZN6LCDI2C6updateEv
                0x0000000000000000       0xee CMakeFiles/BrewTroller-OT_DX1_STEAMPWM.elf.dir/UI.cpp.obj
 .text          0x0000000000000000        0x0 CMakeFiles/BrewTroller-OT_DX1_STEAMPWM.elf.dir/UIStrings.cpp.obj
 .bss           0x0000000000000000        0x0 CMakeFiles/BrewTroller-OT_DX1_STEAMPWM.elf.dir/UIStrings.cpp.obj
 .progmem.data._ZN9UIStrings5Units5PUNITE
                0x0000000000000000        0x4 CMakeFiles/BrewTroller-OT_DX1_STEAMPWM.elf.dir/UIStrings.cpp.obj
 .progmem.data._ZN9UIStrings11SystemSetup9PIDConfig7PID_SEPE
                0x0000000000000000       0x15 CMakeFiles/BrewTroller-OT_DX1_STEAMPWM.elf.dir/UIStrings.cpp.obj
 .progmem.data._ZN9UIStrings9AUXScreen3AUXE
                0x0000000000000000        0x4 CMakeFiles/BrewTroller-OT_DX1_STEAMPWM.elf.dir/UIStrings.cpp.obj
 .text          0x0000000000000000        0x0 CMakeFiles/BrewTroller-OT_DX1_STEAMPWM.elf.dir/Util.cpp.obj
 .bss           0x0000000000000000        0x0 CMakeFiles/BrewTroller-OT_DX1_STEAMPWM.elf.dir/Util.cpp.obj
 .text          0x0000000000000000        0x0 CMakeFiles/BrewTroller-OT_DX1_STEAMPWM.elf.dir/Vessel.cpp.obj
 .bss           0x0000000000000000        0x0 CMakeFiles/BrewTroller-OT_DX1_STEAMPWM.elf.dir/Vessel.cpp.obj
 .text._ZN6Vessel11setMaxPowerEh
                0x0000000000000000        0x6 CMakeFiles/BrewTroller-OT_DX1_STEAMPWM.elf.dir/Vessel.cpp.obj
 .text._ZN6Vessel15getHeatOverrideEv
                0x0000000000000000        0x6 CMakeFiles/BrewTroller-OT_DX1_STEAMPWM.elf.dir/Vessel.cpp.obj
 .text          0x0000000000000000        0x0 CMakeFiles/BrewTroller-OT_DX1_STEAMPWM.elf.dir/Volume.cpp.obj
 .bss           0x0000000000000000        0x0 CMakeFiles/BrewTroller-OT_DX1_STEAMPWM.elf.dir/Volume.cpp.obj
 .text._Z12readPressurehjj
                0x0000000000000000       0x70 CMakeFiles/BrewTroller-OT_DX1_STEAMPWM.elf.dir/Volume.cpp.obj
 .bss.lastFlowChk
                0x0000000000000000        0x4 CMakeFiles/BrewTroller-OT_DX1_STEAMPWM.elf.dir/Volume.cpp.obj
 .bss.prevFlowVol
                0x0000000000000000        0xc CMakeFiles/BrewTroller-OT_DX1_STEAMPWM.elf.dir/Volume.cpp.obj
 .bss.volReadings
                0x0000000000000000       0x3c CMakeFiles/BrewTroller-OT_DX1_STEAMPWM.elf.dir/Volume.cpp.obj
 .text          0x0000000000000000        0x0 ../lib/libBT-libs.a(malloc.c.obj)
 .bss           0x0000000000000000        0x0 ../lib/libBT-libs.a(malloc.c.obj)
 .group         0x0000000000000000        0x8 ../lib/libBT-libs.a(HardwareSerial.cpp.obj)
 .group         0x0000000000000000        0x8 ../lib/libBT-libs.a(HardwareSerial.cpp.obj)
 .text          0x0000000000000000        0x0 ../lib/libBT-libs.a(HardwareSerial.cpp.obj)
 .bss           0x0000000000000000        0x0 ../lib/libBT-libs.a(HardwareSerial.cpp.obj)
 .text._ZN14HardwareSerial3endEv
                0x0000000000000000       0xae ../lib/libBT-libs.a(HardwareSerial.cpp.obj)
 .text._ZN14HardwareSerialcvbEv
                0x0000000000000000        0x4 ../lib/libBT-libs.a(HardwareSerial.cpp.obj)
 .rodata._ZTV6Stream
                0x0000000000000000       0x10 ../lib/libBT-libs.a(HardwareSerial.cpp.obj)
 .text          0x0000000000000000        0x0 ../lib/libBT-libs.a(new.cpp.obj)
 .bss           0x0000000000000000        0x0 ../lib/libBT-libs.a(new.cpp.obj)
 .text._Znaj    0x0000000000000000        0x6 ../lib/libBT-libs.a(new.cpp.obj)
 .text._ZdaPv   0x0000000000000000        0x6 ../lib/libBT-libs.a(new.cpp.obj)
 .text.__cxa_guard_acquire
                0x0000000000000000       0x12 ../lib/libBT-libs.a(new.cpp.obj)
 .text.__cxa_guard_release
                0x0000000000000000        0x8 ../lib/libBT-libs.a(new.cpp.obj)
 .text.__cxa_guard_abort
                0x0000000000000000        0x2 ../lib/libBT-libs.a(new.cpp.obj)
 .text.__cxa_pure_virtual
                0x0000000000000000        0x2 ../lib/libBT-libs.a(new.cpp.obj)
 .group         0x0000000000000000        0x8 ../lib/libBT-libs.a(Print.cpp.obj)
 .group         0x0000000000000000        0x8 ../lib/libBT-libs.a(Print.cpp.obj)
 .text          0x0000000000000000        0x0 ../lib/libBT-libs.a(Print.cpp.obj)
 .bss           0x0000000000000000        0x0 ../lib/libBT-libs.a(Print.cpp.obj)
 .text._ZN5Print5writeEPKc
                0x0000000000000000       0x2e ../lib/libBT-libs.a(Print.cpp.obj)
 .text._ZN5Print5printEPK19__FlashStringHelper
                0x0000000000000000       0x46 ../lib/libBT-libs.a(Print.cpp.obj)
 .text._ZN5Print5printERK6String
                0x0000000000000000       0x56 ../lib/libBT-libs.a(Print.cpp.obj)
 .text._ZN5Print5printERK9Printable
                0x0000000000000000       0x16 ../lib/libBT-libs.a(Print.cpp.obj)
 .text._ZN5Print7printlnEPK19__FlashStringHelper
                0x0000000000000000       0x24 ../lib/libBT-libs.a(Print.cpp.obj)
 .text._ZN5Print7printlnERK6String
                0x0000000000000000       0x24 ../lib/libBT-libs.a(Print.cpp.obj)
 .text._ZN5Print7printlnEc
                0x0000000000000000       0x24 ../lib/libBT-libs.a(Print.cpp.obj)
 .text._ZN5Print7printlnERK9Printable
                0x0000000000000000       0x24 ../lib/libBT-libs.a(Print.cpp.obj)
 .text._ZN5Print5printEli
                0x0000000000000000       0x6c ../lib/libBT-libs.a(Print.cpp.obj)
 .text._ZN5Print5printEii
                0x0000000000000000       0x12 ../lib/libBT-libs.a(Print.cpp.obj)
 .text._ZN5Print7printlnEli
                0x0000000000000000       0x24 ../lib/libBT-libs.a(Print.cpp.obj)
 .text._ZN5Print7printlnEii
                0x0000000000000000       0x30 ../lib/libBT-libs.a(Print.cpp.obj)
 .text._ZN5Print5printEhi
                0x0000000000000000       0x10 ../lib/libBT-libs.a(Print.cpp.obj)
 .text._ZN5Print5printEji
                0x0000000000000000        0xe ../lib/libBT-libs.a(Print.cpp.obj)
 .text._ZN5Print7printlnEmi
                0x0000000000000000       0x24 ../lib/libBT-libs.a(Print.cpp.obj)
 .text._ZN5Print7printlnEji
                0x0000000000000000       0x2c ../lib/libBT-libs.a(Print.cpp.obj)
 .text._ZN5Print7printlnEhi
                0x0000000000000000       0x2e ../lib/libBT-libs.a(Print.cpp.obj)
 .rodata.str1.1
                0x0000000000000000        0xe ../lib/libBT-libs.a(Print.cpp.obj)
 .text._ZN5Print10printFloatEdh
                0x0000000000000000      0x18e ../lib/libBT-libs.a(Print.cpp.obj)
 .text._ZN5Print5printEdi
                0x0000000000000000        0x6 ../lib/libBT-libs.a(Print.cpp.obj)
 .text._ZN5Print7printlnEdi
                0x0000000000000000       0x24 ../lib/libBT-libs.a(Print.cpp.obj)
 .rodata._ZTV5Print
                0x0000000000000000        0x8 ../lib/libBT-libs.a(Print.cpp.obj)
 .text          0x0000000000000000        0x0 ../lib/libBT-libs.a(wiring.c.obj)
 .bss           0x0000000000000000        0x0 ../lib/libBT-libs.a(wiring.c.obj)
 .text          0x0000000000000000        0x0 ../lib/libBT-libs.a(wiring_analog.c.obj)
 .bss           0x0000000000000000        0x0 ../lib/libBT-libs.a(wiring_analog.c.obj)
 .text.analogReference
                0x0000000000000000        0x6 ../lib/libBT-libs.a(wiring_analog.c.obj)
 .text.analogWrite
                0x0000000000000000       0xde ../lib/libBT-libs.a(wiring_analog.c.obj)
 .progmem.gcc_sw_table.analogWrite
                0x0000000000000000       0x12 ../lib/libBT-libs.a(wiring_analog.c.obj)
 .text          0x0000000000000000        0x0 ../lib/libBT-libs.a(wiring_digital.c.obj)
 .bss           0x0000000000000000        0x0 ../lib/libBT-libs.a(wiring_digital.c.obj)
 .text.pinMode  0x0000000000000000       0x72 ../lib/libBT-libs.a(wiring_digital.c.obj)
 .text.digitalRead
                0x0000000000000000       0x4e ../lib/libBT-libs.a(wiring_digital.c.obj)
 .text          0x0000000000000000        0x0 ../lib/libBT-libs.a(WString.cpp.obj)
 .bss           0x0000000000000000        0x0 ../lib/libBT-libs.a(WString.cpp.obj)
 .text._ZN6StringD2Ev
                0x0000000000000000        0xc ../lib/libBT-libs.a(WString.cpp.obj)
 .text._ZN6String10invalidateEv
                0x0000000000000000       0x24 ../lib/libBT-libs.a(WString.cpp.obj)
 .text._ZN6String12changeBufferEj
                0x0000000000000000       0x34 ../lib/libBT-libs.a(WString.cpp.obj)
 .text._ZN6String7reserveEj
                0x0000000000000000       0x38 ../lib/libBT-libs.a(WString.cpp.obj)
 .text._ZN6String4copyEPKcj
                0x0000000000000000       0x3e ../lib/libBT-libs.a(WString.cpp.obj)
 .text._ZN6StringC2EPKc
                0x0000000000000000       0x2e ../lib/libBT-libs.a(WString.cpp.obj)
 .text._ZN6String4moveERS_
                0x0000000000000000       0x6c ../lib/libBT-libs.a(WString.cpp.obj)
 .text._ZN6StringC2EOS_
                0x0000000000000000       0x16 ../lib/libBT-libs.a(WString.cpp.obj)
 .text._ZN6StringC2EO15StringSumHelper
                0x0000000000000000       0x16 ../lib/libBT-libs.a(WString.cpp.obj)
 .text._ZN6StringaSERKS_
                0x0000000000000000       0x2e ../lib/libBT-libs.a(WString.cpp.obj)
 .text._ZN6StringC2ERKS_
                0x0000000000000000       0x16 ../lib/libBT-libs.a(WString.cpp.obj)
 .text._ZN6StringaSEOS_
                0x0000000000000000       0x18 ../lib/libBT-libs.a(WString.cpp.obj)
 .text._ZN6StringaSEO15StringSumHelper
                0x0000000000000000       0x18 ../lib/libBT-libs.a(WString.cpp.obj)
 .text._ZN6StringaSEPKc
                0x0000000000000000       0x30 ../lib/libBT-libs.a(WString.cpp.obj)
 .text._ZN6StringC2Ec
                0x0000000000000000       0x32 ../lib/libBT-libs.a(WString.cpp.obj)
 .text._ZN6StringC2Ehh
                0x0000000000000000       0x42 ../lib/libBT-libs.a(WString.cpp.obj)
 .text._ZN6StringC2Eih
                0x0000000000000000       0x40 ../lib/libBT-libs.a(WString.cpp.obj)
 .text._ZN6StringC2Ejh
                0x0000000000000000       0x40 ../lib/libBT-libs.a(WString.cpp.obj)
 .text._ZN6StringC2Elh
                0x0000000000000000       0x42 ../lib/libBT-libs.a(WString.cpp.obj)
 .text._ZN6StringC2Emh
                0x0000000000000000       0x42 ../lib/libBT-libs.a(WString.cpp.obj)
 .text._ZN6String6concatEPKcj
                0x0000000000000000       0x54 ../lib/libBT-libs.a(WString.cpp.obj)
 .text._ZN6String6concatERKS_
                0x0000000000000000       0x10 ../lib/libBT-libs.a(WString.cpp.obj)
 .text._ZN6String6concatEPKc
                0x0000000000000000       0x22 ../lib/libBT-libs.a(WString.cpp.obj)
 .text._ZN6String6concatEc
                0x0000000000000000       0x26 ../lib/libBT-libs.a(WString.cpp.obj)
 .text._ZN6String6concatEh
                0x0000000000000000       0x44 ../lib/libBT-libs.a(WString.cpp.obj)
 .text._ZN6String6concatEi
                0x0000000000000000       0x42 ../lib/libBT-libs.a(WString.cpp.obj)
 .text._ZN6String6concatEj
                0x0000000000000000       0x42 ../lib/libBT-libs.a(WString.cpp.obj)
 .text._ZN6String6concatEl
                0x0000000000000000       0x44 ../lib/libBT-libs.a(WString.cpp.obj)
 .text._ZN6String6concatEm
                0x0000000000000000       0x44 ../lib/libBT-libs.a(WString.cpp.obj)
 .text._ZplRK15StringSumHelperRK6String
                0x0000000000000000       0x26 ../lib/libBT-libs.a(WString.cpp.obj)
 .text._ZplRK15StringSumHelperPKc
                0x0000000000000000       0x34 ../lib/libBT-libs.a(WString.cpp.obj)
 .text._ZplRK15StringSumHelperc
                0x0000000000000000       0x1c ../lib/libBT-libs.a(WString.cpp.obj)
 .text._ZplRK15StringSumHelperh
                0x0000000000000000       0x1c ../lib/libBT-libs.a(WString.cpp.obj)
 .text._ZplRK15StringSumHelperi
                0x0000000000000000       0x1c ../lib/libBT-libs.a(WString.cpp.obj)
 .text._ZplRK15StringSumHelperj
                0x0000000000000000       0x1c ../lib/libBT-libs.a(WString.cpp.obj)
 .text._ZplRK15StringSumHelperl
                0x0000000000000000       0x1c ../lib/libBT-libs.a(WString.cpp.obj)
 .text._ZplRK15StringSumHelperm
                0x0000000000000000       0x1c ../lib/libBT-libs.a(WString.cpp.obj)
 .text._ZNK6String9compareToERKS_
                0x0000000000000000       0x5e ../lib/libBT-libs.a(WString.cpp.obj)
 .text._ZNK6String6equalsERKS_
                0x0000000000000000       0x26 ../lib/libBT-libs.a(WString.cpp.obj)
 .text._ZNK6String6equalsEPKc
                0x0000000000000000       0x3e ../lib/libBT-libs.a(WString.cpp.obj)
 .text._ZNK6StringltERKS_
                0x0000000000000000        0xe ../lib/libBT-libs.a(WString.cpp.obj)
 .text._ZNK6StringgtERKS_
                0x0000000000000000       0x12 ../lib/libBT-libs.a(WString.cpp.obj)
 .text._ZNK6StringleERKS_
                0x0000000000000000       0x12 ../lib/libBT-libs.a(WString.cpp.obj)
 .text._ZNK6StringgeERKS_
                0x0000000000000000       0x10 ../lib/libBT-libs.a(WString.cpp.obj)
 .text._ZNK6String16equalsIgnoreCaseERKS_
                0x0000000000000000       0x66 ../lib/libBT-libs.a(WString.cpp.obj)
 .text._ZNK6String10startsWithERKS_j
                0x0000000000000000       0x48 ../lib/libBT-libs.a(WString.cpp.obj)
 .text._ZNK6String10startsWithERKS_
                0x0000000000000000       0x20 ../lib/libBT-libs.a(WString.cpp.obj)
 .text._ZNK6String8endsWithERKS_
                0x0000000000000000       0x42 ../lib/libBT-libs.a(WString.cpp.obj)
 .text._ZN6String9setCharAtEjc
                0x0000000000000000       0x1c ../lib/libBT-libs.a(WString.cpp.obj)
 .text._ZN6StringixEj
                0x0000000000000000       0x24 ../lib/libBT-libs.a(WString.cpp.obj)
 .text._ZNK6StringixEj
                0x0000000000000000       0x22 ../lib/libBT-libs.a(WString.cpp.obj)
 .text._ZNK6String6charAtEj
                0x0000000000000000        0x6 ../lib/libBT-libs.a(WString.cpp.obj)
 .text._ZNK6String8getBytesEPhjj
                0x0000000000000000       0x54 ../lib/libBT-libs.a(WString.cpp.obj)
 .text._ZNK6String7indexOfEcj
                0x0000000000000000       0x34 ../lib/libBT-libs.a(WString.cpp.obj)
 .text._ZNK6String7indexOfEc
                0x0000000000000000        0xa ../lib/libBT-libs.a(WString.cpp.obj)
 .text._ZNK6String7indexOfERKS_j
                0x0000000000000000       0x38 ../lib/libBT-libs.a(WString.cpp.obj)
 .text._ZNK6String7indexOfERKS_
                0x0000000000000000        0xa ../lib/libBT-libs.a(WString.cpp.obj)
 .text._ZNK6String11lastIndexOfEcj
                0x0000000000000000       0x5a ../lib/libBT-libs.a(WString.cpp.obj)
 .text._ZNK6String11lastIndexOfEc
                0x0000000000000000       0x10 ../lib/libBT-libs.a(WString.cpp.obj)
 .text._ZNK6String11lastIndexOfERKS_j
                0x0000000000000000       0x86 ../lib/libBT-libs.a(WString.cpp.obj)
 .text._ZNK6String11lastIndexOfERKS_
                0x0000000000000000       0x16 ../lib/libBT-libs.a(WString.cpp.obj)
 .rodata.str1.1
                0x0000000000000000        0x1 ../lib/libBT-libs.a(WString.cpp.obj)
 .text._ZNK6String9substringEjj
                0x0000000000000000       0x76 ../lib/libBT-libs.a(WString.cpp.obj)
 .text._ZNK6String9substringEj
                0x0000000000000000       0x18 ../lib/libBT-libs.a(WString.cpp.obj)
 .text._ZN6String7replaceEcc
                0x0000000000000000       0x1c ../lib/libBT-libs.a(WString.cpp.obj)
 .text._ZN6String7replaceERKS_S1_
                0x0000000000000000      0x190 ../lib/libBT-libs.a(WString.cpp.obj)
 .text._ZN6String11toLowerCaseEv
                0x0000000000000000       0x24 ../lib/libBT-libs.a(WString.cpp.obj)
 .text._ZN6String11toUpperCaseEv
                0x0000000000000000       0x24 ../lib/libBT-libs.a(WString.cpp.obj)
 .text._ZN6String4trimEv
                0x0000000000000000       0xa0 ../lib/libBT-libs.a(WString.cpp.obj)
 .text._ZNK6String5toIntEv
                0x0000000000000000       0x18 ../lib/libBT-libs.a(WString.cpp.obj)
 .bss._ZZN6StringixEjE19dummy_writable_char
                0x0000000000000000        0x1 ../lib/libBT-libs.a(WString.cpp.obj)
 .text          0x0000000000000000        0x0 ../lib/libBT-libs.a(EEPROM.cpp.obj)
 .bss           0x0000000000000000        0x0 ../lib/libBT-libs.a(EEPROM.cpp.obj)
 .group         0x0000000000000000        0x8 ../lib/libBT-libs.a(Wire.cpp.obj)
 .group         0x0000000000000000        0x8 ../lib/libBT-libs.a(Wire.cpp.obj)
 .text          0x0000000000000000        0x0 ../lib/libBT-libs.a(Wire.cpp.obj)
 .bss           0x0000000000000000        0x0 ../lib/libBT-libs.a(Wire.cpp.obj)
 .text._ZN7TwoWire11requestFromEiii
                0x0000000000000000        0x6 ../lib/libBT-libs.a(Wire.cpp.obj)
 .text._ZN7TwoWire9onReceiveEPFviE
                0x0000000000000000        0xa ../lib/libBT-libs.a(Wire.cpp.obj)
 .text._ZN7TwoWire9onRequestEPFvvE
                0x0000000000000000        0xa ../lib/libBT-libs.a(Wire.cpp.obj)
 .rodata._ZTV6Stream
                0x0000000000000000       0x10 ../lib/libBT-libs.a(Wire.cpp.obj)
 .text          0x0000000000000000        0x0 ../lib/libBT-libs.a(twi.c.obj)
 .bss           0x0000000000000000        0x0 ../lib/libBT-libs.a(twi.c.obj)
 .text.twi_reply
                0x0000000000000000       0x10 ../lib/libBT-libs.a(twi.c.obj)
 .group         0x0000000000000000        0x8 ../lib/libBT-libs.a(encoder.cpp.obj)
 .group         0x0000000000000000        0x8 ../lib/libBT-libs.a(encoder.cpp.obj)
 .group         0x0000000000000000        0x8 ../lib/libBT-libs.a(encoder.cpp.obj)
 .group         0x0000000000000000        0x8 ../lib/libBT-libs.a(encoder.cpp.obj)
 .text          0x0000000000000000        0x0 ../lib/libBT-libs.a(encoder.cpp.obj)
 .bss           0x0000000000000000        0x0 ../lib/libBT-libs.a(encoder.cpp.obj)
 .text._ZN7encoder8incCountEv
                0x0000000000000000       0x2a ../lib/libBT-libs.a(encoder.cpp.obj)
 .text._ZN7encoder8decCountEv
                0x0000000000000000       0x2a ../lib/libBT-libs.a(encoder.cpp.obj)
 .text._ZN7TwoWire5writeEi
                0x0000000000000000       0x10 ../lib/libBT-libs.a(encoder.cpp.obj)
 .text._ZN7encoder5beginEhhhhhh
                0x0000000000000000       0x9c ../lib/libBT-libs.a(encoder.cpp.obj)
 .text._ZN7encoder5beginEhhhh
                0x0000000000000000       0x84 ../lib/libBT-libs.a(encoder.cpp.obj)
 .text._ZN7encoder5beginEhhhhh
                0x0000000000000000       0x22 ../lib/libBT-libs.a(encoder.cpp.obj)
 .text._ZN7encoder3endEv
                0x0000000000000000       0x22 ../lib/libBT-libs.a(encoder.cpp.obj)
 .text._ZN7encoder12setActiveLowEb
                0x0000000000000000       0x46 ../lib/libBT-libs.a(encoder.cpp.obj)
 .text._ZN7encoder11alpsHandlerEv
                0x0000000000000000       0x30 ../lib/libBT-libs.a(encoder.cpp.obj)
 .text._Z7alpsISRv
                0x0000000000000000        0xa ../lib/libBT-libs.a(encoder.cpp.obj)
 .text._ZN7encoder10cuiHandlerEv
                0x0000000000000000       0x24 ../lib/libBT-libs.a(encoder.cpp.obj)
 .text._Z6cuiISRv
                0x0000000000000000        0xa ../lib/libBT-libs.a(encoder.cpp.obj)
 .text._ZN7encoder12enterHandlerEv
                0x0000000000000000       0x9e ../lib/libBT-libs.a(encoder.cpp.obj)
 .text._Z8enterISRv
                0x0000000000000000        0xa ../lib/libBT-libs.a(encoder.cpp.obj)
 .text._ZN7encoder10i2cSetWrapEb
                0x0000000000000000       0x34 ../lib/libBT-libs.a(encoder.cpp.obj)
 .text._ZN7encoder7setWrapEb
                0x0000000000000000       0x14 ../lib/libBT-libs.a(encoder.cpp.obj)
 .text._ZN7encoder13i2cClearCountEv
                0x0000000000000000       0x22 ../lib/libBT-libs.a(encoder.cpp.obj)
 .text._ZN7encoder10clearCountEv
                0x0000000000000000       0x1a ../lib/libBT-libs.a(encoder.cpp.obj)
 .text._ZN7encoder18i2cClearEnterStateEv
                0x0000000000000000       0x22 ../lib/libBT-libs.a(encoder.cpp.obj)
 .text._ZN7encoder15clearEnterStateEv
                0x0000000000000000       0x14 ../lib/libBT-libs.a(encoder.cpp.obj)
 .text._ZN7encoder16i2cGetEnterStateEv
                0x0000000000000000       0x4c ../lib/libBT-libs.a(encoder.cpp.obj)
 .text._ZN7encoder13getEnterStateEv
                0x0000000000000000       0x14 ../lib/libBT-libs.a(encoder.cpp.obj)
 .text._ZN7encoder15getEncoderStateEv
                0x0000000000000000       0x56 ../lib/libBT-libs.a(encoder.cpp.obj)
 .group         0x0000000000000000        0x8 ../lib/libBT-libs.a(pin.cpp.obj)
 .text          0x0000000000000000        0x0 ../lib/libBT-libs.a(pin.cpp.obj)
 .bss           0x0000000000000000        0x0 ../lib/libBT-libs.a(pin.cpp.obj)
 .text._ZN3pinC2Eh
                0x0000000000000000        0xc ../lib/libBT-libs.a(pin.cpp.obj)
 .text._ZN3pinC2Ehh
                0x0000000000000000        0x6 ../lib/libBT-libs.a(pin.cpp.obj)
 .text._ZN3pin6setPinEh
                0x0000000000000000        0xc ../lib/libBT-libs.a(pin.cpp.obj)
 .text._ZN3pin6setDirEh
                0x0000000000000000        0xe ../lib/libBT-libs.a(pin.cpp.obj)
 .text          0x0000000000000000        0x0 ../lib/libBT-libs.a(menu.cpp.obj)
 .bss           0x0000000000000000        0x0 ../lib/libBT-libs.a(menu.cpp.obj)
 .text          0x0000000000000000        0x0 ../lib/libBT-libs.a(ModbusMaster.cpp.obj)
 .bss           0x0000000000000000        0x0 ../lib/libBT-libs.a(ModbusMaster.cpp.obj)
 .text._ZN12ModbusMasterC2Eh
                0x0000000000000000        0x8 ../lib/libBT-libs.a(ModbusMaster.cpp.obj)
 .text._ZN12ModbusMaster5beginEv
                0x0000000000000000       0x10 ../lib/libBT-libs.a(ModbusMaster.cpp.obj)
 .text._ZN12ModbusMaster5beginEm
                0x0000000000000000        0x8 ../lib/libBT-libs.a(ModbusMaster.cpp.obj)
 .text._ZN12ModbusMaster19clearResponseBufferEv
                0x0000000000000000       0x1a ../lib/libBT-libs.a(ModbusMaster.cpp.obj)
 .text._ZN12ModbusMaster19clearTransmitBufferEv
                0x0000000000000000       0x1e ../lib/libBT-libs.a(ModbusMaster.cpp.obj)
 .text._ZN12ModbusMaster18readDiscreteInputsEjj
                0x0000000000000000       0x12 ../lib/libBT-libs.a(ModbusMaster.cpp.obj)
 .text._ZN12ModbusMaster18readInputRegistersEjh
                0x0000000000000000       0x14 ../lib/libBT-libs.a(ModbusMaster.cpp.obj)
 .text._ZN12ModbusMaster15writeSingleCoilEjh
                0x0000000000000000       0x2a ../lib/libBT-libs.a(ModbusMaster.cpp.obj)
 .text._ZN12ModbusMaster22writeMultipleRegistersEjj
                0x0000000000000000       0x1c ../lib/libBT-libs.a(ModbusMaster.cpp.obj)
 .text._ZN12ModbusMaster17maskWriteRegisterEjjj
                0x0000000000000000       0x26 ../lib/libBT-libs.a(ModbusMaster.cpp.obj)
 .text._ZN12ModbusMaster26readWriteMultipleRegistersEjjjj
                0x0000000000000000       0x2c ../lib/libBT-libs.a(ModbusMaster.cpp.obj)
 .text          0x0000000000000000        0x0 ../lib/libBT-libs.a(PID_Beta6.cpp.obj)
 .bss           0x0000000000000000        0x0 ../lib/libBT-libs.a(PID_Beta6.cpp.obj)
 .text._ZN3PID7ComputeEv
                0x0000000000000000      0x34e ../lib/libBT-libs.a(PID_Beta6.cpp.obj)
 .text._ZN3PID14JustCalculatedEv
                0x0000000000000000        0xa ../lib/libBT-libs.a(PID_Beta6.cpp.obj)
 .text._ZN3PID7GetModeEv
                0x0000000000000000        0x8 ../lib/libBT-libs.a(PID_Beta6.cpp.obj)
 .text._ZN3PID8GetINMinEv
                0x0000000000000000        0xc ../lib/libBT-libs.a(PID_Beta6.cpp.obj)
 .text._ZN3PID8GetINMaxEv
                0x0000000000000000       0x1c ../lib/libBT-libs.a(PID_Beta6.cpp.obj)
 .text._ZN3PID9GetOUTMinEv
                0x0000000000000000       0x10 ../lib/libBT-libs.a(PID_Beta6.cpp.obj)
 .text._ZN3PID9GetOUTMaxEv
                0x0000000000000000       0x22 ../lib/libBT-libs.a(PID_Beta6.cpp.obj)
 .text._ZN3PID13GetSampleTimeEv
                0x0000000000000000        0x8 ../lib/libBT-libs.a(PID_Beta6.cpp.obj)
 .group         0x0000000000000000        0x8 ../lib/libBT-libs.a(DS2482.cpp.obj)
 .text          0x0000000000000000        0x0 ../lib/libBT-libs.a(DS2482.cpp.obj)
 .bss           0x0000000000000000        0x0 ../lib/libBT-libs.a(DS2482.cpp.obj)
 .text._ZN7TwoWire5writeEi
                0x0000000000000000       0x10 ../lib/libBT-libs.a(DS2482.cpp.obj)
 .text._ZN6DS248211resetMasterEv
                0x0000000000000000       0x24 ../lib/libBT-libs.a(DS2482.cpp.obj)
 .text._ZN6DS24824crc8EPhh
                0x0000000000000000       0x34 ../lib/libBT-libs.a(DS2482.cpp.obj)
 .text._ZN6DS24829write_bitEh
                0x0000000000000000       0x4c ../lib/libBT-libs.a(DS2482.cpp.obj)
 .text._ZN6DS24828read_bitEv
                0x0000000000000000       0x20 ../lib/libBT-libs.a(DS2482.cpp.obj)
 .text._ZN6DS248213selectChannelEh
                0x0000000000000000       0x7a ../lib/libBT-libs.a(DS2482.cpp.obj)
 .rodata.CSWTCH.32
                0x0000000000000000        0x7 ../lib/libBT-libs.a(DS2482.cpp.obj)
 .rodata.CSWTCH.31
                0x0000000000000000        0x7 ../lib/libBT-libs.a(DS2482.cpp.obj)
 .text          0x0000000000000000        0x0 ../lib/libBT-libs.a(realloc.c.obj)
 .bss           0x0000000000000000        0x0 ../lib/libBT-libs.a(realloc.c.obj)
 .text.avr-libc
                0x0000000000000000      0x190 ../lib/libBT-libs.a(realloc.c.obj)
 .text          0x0000000000000000        0x0 ../lib/libBT-libs.a(WInterrupts.c.obj)
 .bss           0x0000000000000000        0x0 ../lib/libBT-libs.a(WInterrupts.c.obj)
 .text.attachInterrupt
                0x0000000000000000       0x5e ../lib/libBT-libs.a(WInterrupts.c.obj)
 .text.detachInterrupt
                0x0000000000000000       0x24 ../lib/libBT-libs.a(WInterrupts.c.obj)
 .text          0x0000000000000000        0x0 ../lib/libBT-libs.a(WMath.cpp.obj)
 .bss           0x0000000000000000        0x0 ../lib/libBT-libs.a(WMath.cpp.obj)
 .text._Z10randomSeedj
                0x0000000000000000       0x10 ../lib/libBT-libs.a(WMath.cpp.obj)
 .text._Z6randoml
                0x0000000000000000       0x42 ../lib/libBT-libs.a(WMath.cpp.obj)
 .text._Z6randomll
                0x0000000000000000       0x38 ../lib/libBT-libs.a(WMath.cpp.obj)
 .text._Z3maplllll
                0x0000000000000000       0x8e ../lib/libBT-libs.a(WMath.cpp.obj)
 .text._Z8makeWordj
                0x0000000000000000        0x2 ../lib/libBT-libs.a(WMath.cpp.obj)
 .text          0x0000000000000000        0x0 /usr/lib/gcc/avr/4.8.2/avr51/libgcc.a(_umulhisi3.o)
 .bss           0x0000000000000000        0x0 /usr/lib/gcc/avr/4.8.2/avr51/libgcc.a(_umulhisi3.o)
 .text.libgcc.div
                0x0000000000000000        0x0 /usr/lib/gcc/avr/4.8.2/avr51/libgcc.a(_umulhisi3.o)
 .text.libgcc   0x0000000000000000        0x0 /usr/lib/gcc/avr/4.8.2/avr51/libgcc.a(_umulhisi3.o)
 .text.libgcc.prologue
                0x0000000000000000        0x0 /usr/lib/gcc/avr/4.8.2/avr51/libgcc.a(_umulhisi3.o)
 .text.libgcc.builtins
                0x0000000000000000        0x0 /usr/lib/gcc/avr/4.8.2/avr51/libgcc.a(_umulhisi3.o)
 .text.libgcc.fmul
                0x0000000000000000        0x0 /usr/lib/gcc/avr/4.8.2/avr51/libgcc.a(_umulhisi3.o)
 .text.libgcc.fixed
                0x0000000000000000        0x0 /usr/lib/gcc/avr/4.8.2/avr51/libgcc.a(_umulhisi3.o)
 .text          0x0000000000000000        0x0 /usr/lib/gcc/avr/4.8.2/avr51/libgcc.a(_usmulhisi3.o)
 .bss           0x0000000000000000        0x0 /usr/lib/gcc/avr/4.8.2/avr51/libgcc.a(_usmulhisi3.o)
 .text.libgcc.div
                0x0000000000000000        0x0 /usr/lib/gcc/avr/4.8.2/avr51/libgcc.a(_usmulhisi3.o)
 .text.libgcc   0x0000000000000000        0x0 /usr/lib/gcc/avr/4.8.2/avr51/libgcc.a(_usmulhisi3.o)
 .text.libgcc.prologue
                0x0000000000000000        0x0 /usr/lib/gcc/avr/4.8.2/avr51/libgcc.a(_usmulhisi3.o)
 .text.libgcc.builtins
                0x0000000000000000        0x0 /usr/lib/gcc/avr/4.8.2/avr51/libgcc.a(_usmulhisi3.o)
 .text.libgcc.fmul
                0x0000000000000000        0x0 /usr/lib/gcc/avr/4.8.2/avr51/libgcc.a(_usmulhisi3.o)
 .text.libgcc.fixed
                0x0000000000000000        0x0 /usr/lib/gcc/avr/4.8.2/avr51/libgcc.a(_usmulhisi3.o)
 .text          0x0000000000000000        0x0 /usr/lib/gcc/avr/4.8.2/avr51/libgcc.a(_muluhisi3.o)
 .bss           0x0000000000000000        0x0 /usr/lib/gcc/avr/4.8.2/avr51/libgcc.a(_muluhisi3.o)
 .text.libgcc.div
                0x0000000000000000        0x0 /usr/lib/gcc/avr/4.8.2/avr51/libgcc.a(_muluhisi3.o)
 .text.libgcc   0x0000000000000000        0x0 /usr/lib/gcc/avr/4.8.2/avr51/libgcc.a(_muluhisi3.o)
 .text.libgcc.prologue
                0x0000000000000000        0x0 /usr/lib/gcc/avr/4.8.2/avr51/libgcc.a(_muluhisi3.o)
 .text.libgcc.builtins
                0x0000000000000000        0x0 /usr/lib/gcc/avr/4.8.2/avr51/libgcc.a(_muluhisi3.o)
 .text.libgcc.fmul
                0x0000000000000000        0x0 /usr/lib/gcc/avr/4.8.2/avr51/libgcc.a(_muluhisi3.o)
 .text.libgcc.fixed
                0x0000000000000000        0x0 /usr/lib/gcc/avr/4.8.2/avr51/libgcc.a(_muluhisi3.o)
 .text          0x0000000000000000        0x0 /usr/lib/gcc/avr/4.8.2/avr51/libgcc.a(_mulshisi3.o)
 .bss           0x0000000000000000        0x0 /usr/lib/gcc/avr/4.8.2/avr51/libgcc.a(_mulshisi3.o)
 .text.libgcc.mul
                0x0000000000000000       0x10 /usr/lib/gcc/avr/4.8.2/avr51/libgcc.a(_mulshisi3.o)
 .text.libgcc.div
                0x0000000000000000        0x0 /usr/lib/gcc/avr/4.8.2/avr51/libgcc.a(_mulshisi3.o)
 .text.libgcc   0x0000000000000000        0x0 /usr/lib/gcc/avr/4.8.2/avr51/libgcc.a(_mulshisi3.o)
 .text.libgcc.prologue
                0x0000000000000000        0x0 /usr/lib/gcc/avr/4.8.2/avr51/libgcc.a(_mulshisi3.o)
 .text.libgcc.builtins
                0x0000000000000000        0x0 /usr/lib/gcc/avr/4.8.2/avr51/libgcc.a(_mulshisi3.o)
 .text.libgcc.fmul
                0x0000000000000000        0x0 /usr/lib/gcc/avr/4.8.2/avr51/libgcc.a(_mulshisi3.o)
 .text.libgcc.fixed
                0x0000000000000000        0x0 /usr/lib/gcc/avr/4.8.2/avr51/libgcc.a(_mulshisi3.o)
 .text          0x0000000000000000        0x0 /usr/lib/gcc/avr/4.8.2/avr51/libgcc.a(_mulsi3.o)
 .bss           0x0000000000000000        0x0 /usr/lib/gcc/avr/4.8.2/avr51/libgcc.a(_mulsi3.o)
 .text.libgcc.div
                0x0000000000000000        0x0 /usr/lib/gcc/avr/4.8.2/avr51/libgcc.a(_mulsi3.o)
 .text.libgcc   0x0000000000000000        0x0 /usr/lib/gcc/avr/4.8.2/avr51/libgcc.a(_mulsi3.o)
 .text.libgcc.prologue
                0x0000000000000000        0x0 /usr/lib/gcc/avr/4.8.2/avr51/libgcc.a(_mulsi3.o)
 .text.libgcc.builtins
                0x0000000000000000        0x0 /usr/lib/gcc/avr/4.8.2/avr51/libgcc.a(_mulsi3.o)
 .text.libgcc.fmul
                0x0000000000000000        0x0 /usr/lib/gcc/avr/4.8.2/avr51/libgcc.a(_mulsi3.o)
 .text.libgcc.fixed
                0x0000000000000000        0x0 /usr/lib/gcc/avr/4.8.2/avr51/libgcc.a(_mulsi3.o)
 .text          0x0000000000000000        0x0 /usr/lib/gcc/avr/4.8.2/avr51/libgcc.a(_udivmodhi4.o)
 .bss           0x0000000000000000        0x0 /usr/lib/gcc/avr/4.8.2/avr51/libgcc.a(_udivmodhi4.o)
 .text.libgcc.mul
                0x0000000000000000        0x0 /usr/lib/gcc/avr/4.8.2/avr51/libgcc.a(_udivmodhi4.o)
 .text.libgcc   0x0000000000000000        0x0 /usr/lib/gcc/avr/4.8.2/avr51/libgcc.a(_udivmodhi4.o)
 .text.libgcc.prologue
                0x0000000000000000        0x0 /usr/lib/gcc/avr/4.8.2/avr51/libgcc.a(_udivmodhi4.o)
 .text.libgcc.builtins
                0x0000000000000000        0x0 /usr/lib/gcc/avr/4.8.2/avr51/libgcc.a(_udivmodhi4.o)
 .text.libgcc.fmul
                0x0000000000000000        0x0 /usr/lib/gcc/avr/4.8.2/avr51/libgcc.a(_udivmodhi4.o)
 .text.libgcc.fixed
                0x0000000000000000        0x0 /usr/lib/gcc/avr/4.8.2/avr51/libgcc.a(_udivmodhi4.o)
 .text          0x0000000000000000        0x0 /usr/lib/gcc/avr/4.8.2/avr51/libgcc.a(_divmodhi4.o)
 .bss           0x0000000000000000        0x0 /usr/lib/gcc/avr/4.8.2/avr51/libgcc.a(_divmodhi4.o)
 .text.libgcc.mul
                0x0000000000000000        0x0 /usr/lib/gcc/avr/4.8.2/avr51/libgcc.a(_divmodhi4.o)
 .text.libgcc   0x0000000000000000        0x0 /usr/lib/gcc/avr/4.8.2/avr51/libgcc.a(_divmodhi4.o)
 .text.libgcc.prologue
                0x0000000000000000        0x0 /usr/lib/gcc/avr/4.8.2/avr51/libgcc.a(_divmodhi4.o)
 .text.libgcc.builtins
                0x0000000000000000        0x0 /usr/lib/gcc/avr/4.8.2/avr51/libgcc.a(_divmodhi4.o)
 .text.libgcc.fmul
                0x0000000000000000        0x0 /usr/lib/gcc/avr/4.8.2/avr51/libgcc.a(_divmodhi4.o)
 .text.libgcc.fixed
                0x0000000000000000        0x0 /usr/lib/gcc/avr/4.8.2/avr51/libgcc.a(_divmodhi4.o)
 .text          0x0000000000000000        0x0 /usr/lib/gcc/avr/4.8.2/avr51/libgcc.a(_udivmodsi4.o)
 .bss           0x0000000000000000        0x0 /usr/lib/gcc/avr/4.8.2/avr51/libgcc.a(_udivmodsi4.o)
 .text.libgcc.mul
                0x0000000000000000        0x0 /usr/lib/gcc/avr/4.8.2/avr51/libgcc.a(_udivmodsi4.o)
 .text.libgcc   0x0000000000000000        0x0 /usr/lib/gcc/avr/4.8.2/avr51/libgcc.a(_udivmodsi4.o)
 .text.libgcc.prologue
                0x0000000000000000        0x0 /usr/lib/gcc/avr/4.8.2/avr51/libgcc.a(_udivmodsi4.o)
 .text.libgcc.builtins
                0x0000000000000000        0x0 /usr/lib/gcc/avr/4.8.2/avr51/libgcc.a(_udivmodsi4.o)
 .text.libgcc.fmul
                0x0000000000000000        0x0 /usr/lib/gcc/avr/4.8.2/avr51/libgcc.a(_udivmodsi4.o)
 .text.libgcc.fixed
                0x0000000000000000        0x0 /usr/lib/gcc/avr/4.8.2/avr51/libgcc.a(_udivmodsi4.o)
 .text          0x0000000000000000        0x0 /usr/lib/gcc/avr/4.8.2/avr51/libgcc.a(_divmodsi4.o)
 .bss           0x0000000000000000        0x0 /usr/lib/gcc/avr/4.8.2/avr51/libgcc.a(_divmodsi4.o)
 .text.libgcc.mul
                0x0000000000000000        0x0 /usr/lib/gcc/avr/4.8.2/avr51/libgcc.a(_divmodsi4.o)
 .text.libgcc   0x0000000000000000        0x0 /usr/lib/gcc/avr/4.8.2/avr51/libgcc.a(_divmodsi4.o)
 .text.libgcc.prologue
                0x0000000000000000        0x0 /usr/lib/gcc/avr/4.8.2/avr51/libgcc.a(_divmodsi4.o)
 .text.libgcc.builtins
                0x0000000000000000        0x0 /usr/lib/gcc/avr/4.8.2/avr51/libgcc.a(_divmodsi4.o)
 .text.libgcc.fmul
                0x0000000000000000        0x0 /usr/lib/gcc/avr/4.8.2/avr51/libgcc.a(_divmodsi4.o)
 .text.libgcc.fixed
                0x0000000000000000        0x0 /usr/lib/gcc/avr/4.8.2/avr51/libgcc.a(_divmodsi4.o)
 .text          0x0000000000000000        0x0 /usr/lib/gcc/avr/4.8.2/avr51/libgcc.a(_negsi2.o)
 .bss           0x0000000000000000        0x0 /usr/lib/gcc/avr/4.8.2/avr51/libgcc.a(_negsi2.o)
 .text.libgcc.mul
                0x0000000000000000        0x0 /usr/lib/gcc/avr/4.8.2/avr51/libgcc.a(_negsi2.o)
 .text.libgcc   0x0000000000000000        0x0 /usr/lib/gcc/avr/4.8.2/avr51/libgcc.a(_negsi2.o)
 .text.libgcc.prologue
                0x0000000000000000        0x0 /usr/lib/gcc/avr/4.8.2/avr51/libgcc.a(_negsi2.o)
 .text.libgcc.builtins
                0x0000000000000000        0x0 /usr/lib/gcc/avr/4.8.2/avr51/libgcc.a(_negsi2.o)
 .text.libgcc.fmul
                0x0000000000000000        0x0 /usr/lib/gcc/avr/4.8.2/avr51/libgcc.a(_negsi2.o)
 .text.libgcc.fixed
                0x0000000000000000        0x0 /usr/lib/gcc/avr/4.8.2/avr51/libgcc.a(_negsi2.o)
 .text          0x0000000000000000        0x0 /usr/lib/gcc/avr/4.8.2/avr51/libgcc.a(_prologue.o)
 .bss           0x0000000000000000        0x0 /usr/lib/gcc/avr/4.8.2/avr51/libgcc.a(_prologue.o)
 .text.libgcc.mul
                0x0000000000000000        0x0 /usr/lib/gcc/avr/4.8.2/avr51/libgcc.a(_prologue.o)
 .text.libgcc.div
                0x0000000000000000        0x0 /usr/lib/gcc/avr/4.8.2/avr51/libgcc.a(_prologue.o)
 .text.libgcc   0x0000000000000000        0x0 /usr/lib/gcc/avr/4.8.2/avr51/libgcc.a(_prologue.o)
 .text.libgcc.builtins
                0x0000000000000000        0x0 /usr/lib/gcc/avr/4.8.2/avr51/libgcc.a(_prologue.o)
 .text.libgcc.fmul
                0x0000000000000000        0x0 /usr/lib/gcc/avr/4.8.2/avr51/libgcc.a(_prologue.o)
 .text.libgcc.fixed
                0x0000000000000000        0x0 /usr/lib/gcc/avr/4.8.2/avr51/libgcc.a(_prologue.o)
 .text          0x0000000000000000        0x0 /usr/lib/gcc/avr/4.8.2/avr51/libgcc.a(_epilogue.o)
 .bss           0x0000000000000000        0x0 /usr/lib/gcc/avr/4.8.2/avr51/libgcc.a(_epilogue.o)
 .text.libgcc.mul
                0x0000000000000000        0x0 /usr/lib/gcc/avr/4.8.2/avr51/libgcc.a(_epilogue.o)
 .text.libgcc.div
                0x0000000000000000        0x0 /usr/lib/gcc/avr/4.8.2/avr51/libgcc.a(_epilogue.o)
 .text.libgcc   0x0000000000000000        0x0 /usr/lib/gcc/avr/4.8.2/avr51/libgcc.a(_epilogue.o)
 .text.libgcc.builtins
                0x0000000000000000        0x0 /usr/lib/gcc/avr/4.8.2/avr51/libgcc.a(_epilogue.o)
 .text.libgcc.fmul
                0x0000000000000000        0x0 /usr/lib/gcc/avr/4.8.2/avr51/libgcc.a(_epilogue.o)
 .text.libgcc.fixed
                0x0000000000000000        0x0 /usr/lib/gcc/avr/4.8.2/avr51/libgcc.a(_epilogue.o)
 .text          0x0000000000000000        0x0 /usr/lib/gcc/avr/4.8.2/avr51/libgcc.a(_exit.o)
 .bss           0x0000000000000000        0x0 /usr/lib/gcc/avr/4.8.2/avr51/libgcc.a(_exit.o)
 .text.libgcc.mul
                0x0000000000000000        0x0 /usr/lib/gcc/avr/4.8.2/avr51/libgcc.a(_exit.o)
 .text.libgcc.div
                0x0000000000000000        0x0 /usr/lib/gcc/avr/4.8.2/avr51/libgcc.a(_exit.o)
 .text.libgcc   0x0000000000000000        0x0 /usr/lib/gcc/avr/4.8.2/avr51/libgcc.a(_exit.o)
 .text.libgcc.prologue
                0x0000000000000000        0x0 /usr/lib/gcc/avr/4.8.2/avr51/libgcc.a(_exit.o)
 .text.libgcc.builtins
                0x0000000000000000        0x0 /usr/lib/gcc/avr/4.8.2/avr51/libgcc.a(_exit.o)
 .text.libgcc.fmul
                0x0000000000000000        0x0 /usr/lib/gcc/avr/4.8.2/avr51/libgcc.a(_exit.o)
 .text.libgcc.fixed
                0x0000000000000000        0x0 /usr/lib/gcc/avr/4.8.2/avr51/libgcc.a(_exit.o)
 .text          0x0000000000000000        0x0 /usr/lib/gcc/avr/4.8.2/avr51/libgcc.a(_tablejump.o)
 .bss           0x0000000000000000        0x0 /usr/lib/gcc/avr/4.8.2/avr51/libgcc.a(_tablejump.o)
 .text.libgcc.mul
                0x0000000000000000        0x0 /usr/lib/gcc/avr/4.8.2/avr51/libgcc.a(_tablejump.o)
 .text.libgcc.div
                0x0000000000000000        0x0 /usr/lib/gcc/avr/4.8.2/avr51/libgcc.a(_tablejump.o)
 .text.libgcc.prologue
                0x0000000000000000        0x0 /usr/lib/gcc/avr/4.8.2/avr51/libgcc.a(_tablejump.o)
 .text.libgcc.builtins
                0x0000000000000000        0x0 /usr/lib/gcc/avr/4.8.2/avr51/libgcc.a(_tablejump.o)
 .text.libgcc.fmul
                0x0000000000000000        0x0 /usr/lib/gcc/avr/4.8.2/avr51/libgcc.a(_tablejump.o)
 .text.libgcc.fixed
                0x0000000000000000        0x0 /usr/lib/gcc/avr/4.8.2/avr51/libgcc.a(_tablejump.o)
 .text          0x0000000000000000        0x0 /usr/lib/gcc/avr/4.8.2/avr51/libgcc.a(_copy_data.o)
 .bss           0x0000000000000000        0x0 /usr/lib/gcc/avr/4.8.2/avr51/libgcc.a(_copy_data.o)
 .text.libgcc.mul
                0x0000000000000000        0x0 /usr/lib/gcc/avr/4.8.2/avr51/libgcc.a(_copy_data.o)
 .text.libgcc.div
                0x0000000000000000        0x0 /usr/lib/gcc/avr/4.8.2/avr51/libgcc.a(_copy_data.o)
 .text.libgcc   0x0000000000000000        0x0 /usr/lib/gcc/avr/4.8.2/avr51/libgcc.a(_copy_data.o)
 .text.libgcc.prologue
                0x0000000000000000        0x0 /usr/lib/gcc/avr/4.8.2/avr51/libgcc.a(_copy_data.o)
 .text.libgcc.builtins
                0x0000000000000000        0x0 /usr/lib/gcc/avr/4.8.2/avr51/libgcc.a(_copy_data.o)
 .text.libgcc.fmul
                0x0000000000000000        0x0 /usr/lib/gcc/avr/4.8.2/avr51/libgcc.a(_copy_data.o)
 .text.libgcc.fixed
                0x0000000000000000        0x0 /usr/lib/gcc/avr/4.8.2/avr51/libgcc.a(_copy_data.o)
 .text          0x0000000000000000        0x0 /usr/lib/gcc/avr/4.8.2/avr51/libgcc.a(_clear_bss.o)
 .bss           0x0000000000000000        0x0 /usr/lib/gcc/avr/4.8.2/avr51/libgcc.a(_clear_bss.o)
 .text.libgcc.mul
                0x0000000000000000        0x0 /usr/lib/gcc/avr/4.8.2/avr51/libgcc.a(_clear_bss.o)
 .text.libgcc.div
                0x0000000000000000        0x0 /usr/lib/gcc/avr/4.8.2/avr51/libgcc.a(_clear_bss.o)
 .text.libgcc   0x0000000000000000        0x0 /usr/lib/gcc/avr/4.8.2/avr51/libgcc.a(_clear_bss.o)
 .text.libgcc.prologue
                0x0000000000000000        0x0 /usr/lib/gcc/avr/4.8.2/avr51/libgcc.a(_clear_bss.o)
 .text.libgcc.builtins
                0x0000000000000000        0x0 /usr/lib/gcc/avr/4.8.2/avr51/libgcc.a(_clear_bss.o)
 .text.libgcc.fmul
                0x0000000000000000        0x0 /usr/lib/gcc/avr/4.8.2/avr51/libgcc.a(_clear_bss.o)
 .text.libgcc.fixed
                0x0000000000000000        0x0 /usr/lib/gcc/avr/4.8.2/avr51/libgcc.a(_clear_bss.o)
 .text          0x0000000000000000        0x0 /usr/lib/gcc/avr/4.8.2/avr51/libgcc.a(_ctors.o)
 .bss           0x0000000000000000        0x0 /usr/lib/gcc/avr/4.8.2/avr51/libgcc.a(_ctors.o)
 .text.libgcc.mul
                0x0000000000000000        0x0 /usr/lib/gcc/avr/4.8.2/avr51/libgcc.a(_ctors.o)
 .text.libgcc.div
                0x0000000000000000        0x0 /usr/lib/gcc/avr/4.8.2/avr51/libgcc.a(_ctors.o)
 .text.libgcc   0x0000000000000000        0x0 /usr/lib/gcc/avr/4.8.2/avr51/libgcc.a(_ctors.o)
 .text.libgcc.prologue
                0x0000000000000000        0x0 /usr/lib/gcc/avr/4.8.2/avr51/libgcc.a(_ctors.o)
 .text.libgcc.builtins
                0x0000000000000000        0x0 /usr/lib/gcc/avr/4.8.2/avr51/libgcc.a(_ctors.o)
 .text.libgcc.fmul
                0x0000000000000000        0x0 /usr/lib/gcc/avr/4.8.2/avr51/libgcc.a(_ctors.o)
 .text.libgcc.fixed
                0x0000000000000000        0x0 /usr/lib/gcc/avr/4.8.2/avr51/libgcc.a(_ctors.o)
 .text          0x0000000000000000        0x0 /usr/lib/gcc/avr/4.8.2/avr51/libgcc.a(_dtors.o)
 .bss           0x0000000000000000        0x0 /usr/lib/gcc/avr/4.8.2/avr51/libgcc.a(_dtors.o)
 .text.libgcc.mul
                0x0000000000000000        0x0 /usr/lib/gcc/avr/4.8.2/avr51/libgcc.a(_dtors.o)
 .text.libgcc.div
                0x0000000000000000        0x0 /usr/lib/gcc/avr/4.8.2/avr51/libgcc.a(_dtors.o)
 .text.libgcc   0x0000000000000000        0x0 /usr/lib/gcc/avr/4.8.2/avr51/libgcc.a(_dtors.o)
 .text.libgcc.prologue
                0x0000000000000000        0x0 /usr/lib/gcc/avr/4.8.2/avr51/libgcc.a(_dtors.o)
 .text.libgcc.builtins
                0x0000000000000000        0x0 /usr/lib/gcc/avr/4.8.2/avr51/libgcc.a(_dtors.o)
 .text.libgcc.fmul
                0x0000000000000000        0x0 /usr/lib/gcc/avr/4.8.2/avr51/libgcc.a(_dtors.o)
 .text.libgcc.fixed
                0x0000000000000000        0x0 /usr/lib/gcc/avr/4.8.2/avr51/libgcc.a(_dtors.o)
 .text          0x0000000000000000        0x0 /usr/lib/gcc/avr/4.8.2/avr51/libgcc.a(_tablejump_elpm.o)
 .bss           0x0000000000000000        0x0 /usr/lib/gcc/avr/4.8.2/avr51/libgcc.a(_tablejump_elpm.o)
 .text.libgcc.mul
                0x0000000000000000        0x0 /usr/lib/gcc/avr/4.8.2/avr51/libgcc.a(_tablejump_elpm.o)
 .text.libgcc.div
                0x0000000000000000        0x0 /usr/lib/gcc/avr/4.8.2/avr51/libgcc.a(_tablejump_elpm.o)
 .text.libgcc.prologue
                0x0000000000000000        0x0 /usr/lib/gcc/avr/4.8.2/avr51/libgcc.a(_tablejump_elpm.o)
 .text.libgcc.builtins
                0x0000000000000000        0x0 /usr/lib/gcc/avr/4.8.2/avr51/libgcc.a(_tablejump_elpm.o)
 .text.libgcc.fmul
                0x0000000000000000        0x0 /usr/lib/gcc/avr/4.8.2/avr51/libgcc.a(_tablejump_elpm.o)
 .text.libgcc.fixed
                0x0000000000000000        0x0 /usr/lib/gcc/avr/4.8.2/avr51/libgcc.a(_tablejump_elpm.o)
 .text          0x0000000000000000        0x0 /usr/lib/gcc/avr/4.8.2/../../../avr/lib/avr51/libm.a(addsf3.o)
 .bss           0x0000000000000000        0x0 /usr/lib/gcc/avr/4.8.2/../../../avr/lib/avr51/libm.a(addsf3.o)
 .text          0x0000000000000000        0x0 /usr/lib/gcc/avr/4.8.2/../../../avr/lib/avr51/libm.a(addsf3x.o)
 .bss           0x0000000000000000        0x0 /usr/lib/gcc/avr/4.8.2/../../../avr/lib/avr51/libm.a(addsf3x.o)
 .text          0x0000000000000000        0x0 /usr/lib/gcc/avr/4.8.2/../../../avr/lib/avr51/libm.a(cmpsf2.o)
 .bss           0x0000000000000000        0x0 /usr/lib/gcc/avr/4.8.2/../../../avr/lib/avr51/libm.a(cmpsf2.o)
 .text          0x0000000000000000        0x0 /usr/lib/gcc/avr/4.8.2/../../../avr/lib/avr51/libm.a(divsf3.o)
 .bss           0x0000000000000000        0x0 /usr/lib/gcc/avr/4.8.2/../../../avr/lib/avr51/libm.a(divsf3.o)
 .text          0x0000000000000000        0x0 /usr/lib/gcc/avr/4.8.2/../../../avr/lib/avr51/libm.a(divsf3x.o)
 .bss           0x0000000000000000        0x0 /usr/lib/gcc/avr/4.8.2/../../../avr/lib/avr51/libm.a(divsf3x.o)
 .text          0x0000000000000000        0x0 /usr/lib/gcc/avr/4.8.2/../../../avr/lib/avr51/libm.a(fixsfsi.o)
 .bss           0x0000000000000000        0x0 /usr/lib/gcc/avr/4.8.2/../../../avr/lib/avr51/libm.a(fixsfsi.o)
 .text          0x0000000000000000        0x0 /usr/lib/gcc/avr/4.8.2/../../../avr/lib/avr51/libm.a(fixunssfsi.o)
 .bss           0x0000000000000000        0x0 /usr/lib/gcc/avr/4.8.2/../../../avr/lib/avr51/libm.a(fixunssfsi.o)
 .text          0x0000000000000000        0x0 /usr/lib/gcc/avr/4.8.2/../../../avr/lib/avr51/libm.a(floatsisf.o)
 .bss           0x0000000000000000        0x0 /usr/lib/gcc/avr/4.8.2/../../../avr/lib/avr51/libm.a(floatsisf.o)
 .text          0x0000000000000000        0x0 /usr/lib/gcc/avr/4.8.2/../../../avr/lib/avr51/libm.a(fp_cmp.o)
 .bss           0x0000000000000000        0x0 /usr/lib/gcc/avr/4.8.2/../../../avr/lib/avr51/libm.a(fp_cmp.o)
 .text          0x0000000000000000        0x0 /usr/lib/gcc/avr/4.8.2/../../../avr/lib/avr51/libm.a(fp_inf.o)
 .bss           0x0000000000000000        0x0 /usr/lib/gcc/avr/4.8.2/../../../avr/lib/avr51/libm.a(fp_inf.o)
 .text          0x0000000000000000        0x0 /usr/lib/gcc/avr/4.8.2/../../../avr/lib/avr51/libm.a(fp_nan.o)
 .bss           0x0000000000000000        0x0 /usr/lib/gcc/avr/4.8.2/../../../avr/lib/avr51/libm.a(fp_nan.o)
 .text          0x0000000000000000        0x0 /usr/lib/gcc/avr/4.8.2/../../../avr/lib/avr51/libm.a(fp_pscA.o)
 .bss           0x0000000000000000        0x0 /usr/lib/gcc/avr/4.8.2/../../../avr/lib/avr51/libm.a(fp_pscA.o)
 .text          0x0000000000000000        0x0 /usr/lib/gcc/avr/4.8.2/../../../avr/lib/avr51/libm.a(fp_pscB.o)
 .bss           0x0000000000000000        0x0 /usr/lib/gcc/avr/4.8.2/../../../avr/lib/avr51/libm.a(fp_pscB.o)
 .text          0x0000000000000000        0x0 /usr/lib/gcc/avr/4.8.2/../../../avr/lib/avr51/libm.a(fp_round.o)
 .bss           0x0000000000000000        0x0 /usr/lib/gcc/avr/4.8.2/../../../avr/lib/avr51/libm.a(fp_round.o)
 .text          0x0000000000000000        0x0 /usr/lib/gcc/avr/4.8.2/../../../avr/lib/avr51/libm.a(fp_split3.o)
 .bss           0x0000000000000000        0x0 /usr/lib/gcc/avr/4.8.2/../../../avr/lib/avr51/libm.a(fp_split3.o)
 .text          0x0000000000000000        0x0 /usr/lib/gcc/avr/4.8.2/../../../avr/lib/avr51/libm.a(fp_zero.o)
 .bss           0x0000000000000000        0x0 /usr/lib/gcc/avr/4.8.2/../../../avr/lib/avr51/libm.a(fp_zero.o)
 .text          0x0000000000000000        0x0 /usr/lib/gcc/avr/4.8.2/../../../avr/lib/avr51/libm.a(gesf2.o)
 .bss           0x0000000000000000        0x0 /usr/lib/gcc/avr/4.8.2/../../../avr/lib/avr51/libm.a(gesf2.o)
 .text          0x0000000000000000        0x0 /usr/lib/gcc/avr/4.8.2/../../../avr/lib/avr51/libm.a(mulsf3.o)
 .bss           0x0000000000000000        0x0 /usr/lib/gcc/avr/4.8.2/../../../avr/lib/avr51/libm.a(mulsf3.o)
 .text          0x0000000000000000        0x0 /usr/lib/gcc/avr/4.8.2/../../../avr/lib/avr51/libm.a(mulsf3x.o)
 .bss           0x0000000000000000        0x0 /usr/lib/gcc/avr/4.8.2/../../../avr/lib/avr51/libm.a(mulsf3x.o)
 .text          0x0000000000000000        0x0 /usr/lib/gcc/avr/4.8.2/../../../avr/lib/avr51/libm.a(pow.o)
 .bss           0x0000000000000000        0x0 /usr/lib/gcc/avr/4.8.2/../../../avr/lib/avr51/libm.a(pow.o)
 .text          0x0000000000000000        0x0 /usr/lib/gcc/avr/4.8.2/../../../avr/lib/avr51/libm.a(unordsf2.o)
 .bss           0x0000000000000000        0x0 /usr/lib/gcc/avr/4.8.2/../../../avr/lib/avr51/libm.a(unordsf2.o)
 .text.avr-libc.fplib
                0x0000000000000000        0x8 /usr/lib/gcc/avr/4.8.2/../../../avr/lib/avr51/libm.a(unordsf2.o)
 .text          0x0000000000000000        0x0 /usr/lib/gcc/avr/4.8.2/../../../avr/lib/avr51/libm.a(exp.o)
 .bss           0x0000000000000000        0x0 /usr/lib/gcc/avr/4.8.2/../../../avr/lib/avr51/libm.a(exp.o)
 .text          0x0000000000000000        0x0 /usr/lib/gcc/avr/4.8.2/../../../avr/lib/avr51/libm.a(fp_powser.o)
 .bss           0x0000000000000000        0x0 /usr/lib/gcc/avr/4.8.2/../../../avr/lib/avr51/libm.a(fp_powser.o)
 .text          0x0000000000000000        0x0 /usr/lib/gcc/avr/4.8.2/../../../avr/lib/avr51/libm.a(inverse.o)
 .bss           0x0000000000000000        0x0 /usr/lib/gcc/avr/4.8.2/../../../avr/lib/avr51/libm.a(inverse.o)
 .text          0x0000000000000000        0x0 /usr/lib/gcc/avr/4.8.2/../../../avr/lib/avr51/libm.a(ldexp.o)
 .bss           0x0000000000000000        0x0 /usr/lib/gcc/avr/4.8.2/../../../avr/lib/avr51/libm.a(ldexp.o)
 .text          0x0000000000000000        0x0 /usr/lib/gcc/avr/4.8.2/../../../avr/lib/avr51/libm.a(log.o)
 .bss           0x0000000000000000        0x0 /usr/lib/gcc/avr/4.8.2/../../../avr/lib/avr51/libm.a(log.o)
 .text          0x0000000000000000        0x0 /usr/lib/gcc/avr/4.8.2/../../../avr/lib/avr51/libm.a(modf.o)
 .bss           0x0000000000000000        0x0 /usr/lib/gcc/avr/4.8.2/../../../avr/lib/avr51/libm.a(modf.o)
 .text          0x0000000000000000        0x0 /usr/lib/gcc/avr/4.8.2/../../../avr/lib/avr51/libm.a(fp_mpack.o)
 .bss           0x0000000000000000        0x0 /usr/lib/gcc/avr/4.8.2/../../../avr/lib/avr51/libm.a(fp_mpack.o)
 .text          0x0000000000000000        0x0 /usr/lib/gcc/avr/4.8.2/../../../avr/lib/avr51/libc.a(random.o)
 .bss           0x0000000000000000        0x0 /usr/lib/gcc/avr/4.8.2/../../../avr/lib/avr51/libc.a(random.o)
 .text.avr-libc
                0x0000000000000000       0xb6 /usr/lib/gcc/avr/4.8.2/../../../avr/lib/avr51/libc.a(random.o)
 .text          0x0000000000000000        0x0 /usr/lib/gcc/avr/4.8.2/../../../avr/lib/avr51/libc.a(strtoul.o)
 .bss           0x0000000000000000        0x0 /usr/lib/gcc/avr/4.8.2/../../../avr/lib/avr51/libc.a(strtoul.o)
 .text          0x0000000000000000        0x0 /usr/lib/gcc/avr/4.8.2/../../../avr/lib/avr51/libc.a(atoi.o)
 .bss           0x0000000000000000        0x0 /usr/lib/gcc/avr/4.8.2/../../../avr/lib/avr51/libc.a(atoi.o)
 .text          0x0000000000000000        0x0 /usr/lib/gcc/avr/4.8.2/../../../avr/lib/avr51/libc.a(atol.o)
 .bss           0x0000000000000000        0x0 /usr/lib/gcc/avr/4.8.2/../../../avr/lib/avr51/libc.a(atol.o)
 .text.avr-libc
                0x0000000000000000       0x4e /usr/lib/gcc/avr/4.8.2/../../../avr/lib/avr51/libc.a(atol.o)
 .text          0x0000000000000000        0x0 /usr/lib/gcc/avr/4.8.2/../../../avr/lib/avr51/libc.a(isspace.o)
 .bss           0x0000000000000000        0x0 /usr/lib/gcc/avr/4.8.2/../../../avr/lib/avr51/libc.a(isspace.o)
 .text          0x0000000000000000        0x0 /usr/lib/gcc/avr/4.8.2/../../../avr/lib/avr51/libc.a(tolower.o)
 .bss           0x0000000000000000        0x0 /usr/lib/gcc/avr/4.8.2/../../../avr/lib/avr51/libc.a(tolower.o)
 .text.avr-libc
                0x0000000000000000       0x10 /usr/lib/gcc/avr/4.8.2/../../../avr/lib/avr51/libc.a(tolower.o)
 .text          0x0000000000000000        0x0 /usr/lib/gcc/avr/4.8.2/../../../avr/lib/avr51/libc.a(toupper.o)
 .bss           0x0000000000000000        0x0 /usr/lib/gcc/avr/4.8.2/../../../avr/lib/avr51/libc.a(toupper.o)
 .text.avr-libc
                0x0000000000000000       0x10 /usr/lib/gcc/avr/4.8.2/../../../avr/lib/avr51/libc.a(toupper.o)
 .text          0x0000000000000000        0x0 /usr/lib/gcc/avr/4.8.2/../../../avr/lib/avr51/libc.a(memcpy_P.o)
 .bss           0x0000000000000000        0x0 /usr/lib/gcc/avr/4.8.2/../../../avr/lib/avr51/libc.a(memcpy_P.o)
 .text          0x0000000000000000        0x0 /usr/lib/gcc/avr/4.8.2/../../../avr/lib/avr51/libc.a(strcat_P.o)
 .bss           0x0000000000000000        0x0 /usr/lib/gcc/avr/4.8.2/../../../avr/lib/avr51/libc.a(strcat_P.o)
 .text          0x0000000000000000        0x0 /usr/lib/gcc/avr/4.8.2/../../../avr/lib/avr51/libc.a(strcpy_P.o)
 .bss           0x0000000000000000        0x0 /usr/lib/gcc/avr/4.8.2/../../../avr/lib/avr51/libc.a(strcpy_P.o)
 .text          0x0000000000000000        0x0 /usr/lib/gcc/avr/4.8.2/../../../avr/lib/avr51/libc.a(strlen_P.o)
 .bss           0x0000000000000000        0x0 /usr/lib/gcc/avr/4.8.2/../../../avr/lib/avr51/libc.a(strlen_P.o)
 .text          0x0000000000000000        0x0 /usr/lib/gcc/avr/4.8.2/../../../avr/lib/avr51/libc.a(memcpy.o)
 .bss           0x0000000000000000        0x0 /usr/lib/gcc/avr/4.8.2/../../../avr/lib/avr51/libc.a(memcpy.o)
 .text          0x0000000000000000        0x0 /usr/lib/gcc/avr/4.8.2/../../../avr/lib/avr51/libc.a(memmove.o)
 .bss           0x0000000000000000        0x0 /usr/lib/gcc/avr/4.8.2/../../../avr/lib/avr51/libc.a(memmove.o)
 .text.avr-libc
                0x0000000000000000       0x24 /usr/lib/gcc/avr/4.8.2/../../../avr/lib/avr51/libc.a(memmove.o)
 .text          0x0000000000000000        0x0 /usr/lib/gcc/avr/4.8.2/../../../avr/lib/avr51/libc.a(memset.o)
 .bss           0x0000000000000000        0x0 /usr/lib/gcc/avr/4.8.2/../../../avr/lib/avr51/libc.a(memset.o)
 .text          0x0000000000000000        0x0 /usr/lib/gcc/avr/4.8.2/../../../avr/lib/avr51/libc.a(strcasecmp.o)
 .bss           0x0000000000000000        0x0 /usr/lib/gcc/avr/4.8.2/../../../avr/lib/avr51/libc.a(strcasecmp.o)
 .text          0x0000000000000000        0x0 /usr/lib/gcc/avr/4.8.2/../../../avr/lib/avr51/libc.a(strcat.o)
 .bss           0x0000000000000000        0x0 /usr/lib/gcc/avr/4.8.2/../../../avr/lib/avr51/libc.a(strcat.o)
 .text          0x0000000000000000        0x0 /usr/lib/gcc/avr/4.8.2/../../../avr/lib/avr51/libc.a(strchr.o)
 .bss           0x0000000000000000        0x0 /usr/lib/gcc/avr/4.8.2/../../../avr/lib/avr51/libc.a(strchr.o)
 .text.avr-libc
                0x0000000000000000       0x16 /usr/lib/gcc/avr/4.8.2/../../../avr/lib/avr51/libc.a(strchr.o)
 .text          0x0000000000000000        0x0 /usr/lib/gcc/avr/4.8.2/../../../avr/lib/avr51/libc.a(strcmp.o)
 .bss           0x0000000000000000        0x0 /usr/lib/gcc/avr/4.8.2/../../../avr/lib/avr51/libc.a(strcmp.o)
 .text.avr-libc
                0x0000000000000000       0x12 /usr/lib/gcc/avr/4.8.2/../../../avr/lib/avr51/libc.a(strcmp.o)
 .text          0x0000000000000000        0x0 /usr/lib/gcc/avr/4.8.2/../../../avr/lib/avr51/libc.a(strcpy.o)
 .bss           0x0000000000000000        0x0 /usr/lib/gcc/avr/4.8.2/../../../avr/lib/avr51/libc.a(strcpy.o)
 .text          0x0000000000000000        0x0 /usr/lib/gcc/avr/4.8.2/../../../avr/lib/avr51/libc.a(strncmp.o)
 .bss           0x0000000000000000        0x0 /usr/lib/gcc/avr/4.8.2/../../../avr/lib/avr51/libc.a(strncmp.o)
 .text.avr-libc
                0x0000000000000000       0x1c /usr/lib/gcc/avr/4.8.2/../../../avr/lib/avr51/libc.a(strncmp.o)
 .text          0x0000000000000000        0x0 /usr/lib/gcc/avr/4.8.2/../../../avr/lib/avr51/libc.a(strncpy.o)
 .bss           0x0000000000000000        0x0 /usr/lib/gcc/avr/4.8.2/../../../avr/lib/avr51/libc.a(strncpy.o)
 .text.avr-libc
                0x0000000000000000       0x1e /usr/lib/gcc/avr/4.8.2/../../../avr/lib/avr51/libc.a(strncpy.o)
 .text          0x0000000000000000        0x0 /usr/lib/gcc/avr/4.8.2/../../../avr/lib/avr51/libc.a(strrchr.o)
 .bss           0x0000000000000000        0x0 /usr/lib/gcc/avr/4.8.2/../../../avr/lib/avr51/libc.a(strrchr.o)
 .text.avr-libc
                0x0000000000000000       0x16 /usr/lib/gcc/avr/4.8.2/../../../avr/lib/avr51/libc.a(strrchr.o)
 .text          0x0000000000000000        0x0 /usr/lib/gcc/avr/4.8.2/../../../avr/lib/avr51/libc.a(strstr.o)
 .bss           0x0000000000000000        0x0 /usr/lib/gcc/avr/4.8.2/../../../avr/lib/avr51/libc.a(strstr.o)
 .text.avr-libc
                0x0000000000000000       0x34 /usr/lib/gcc/avr/4.8.2/../../../avr/lib/avr51/libc.a(strstr.o)
 .text          0x0000000000000000        0x0 /usr/lib/gcc/avr/4.8.2/../../../avr/lib/avr51/libc.a(itoa.o)
 .bss           0x0000000000000000        0x0 /usr/lib/gcc/avr/4.8.2/../../../avr/lib/avr51/libc.a(itoa.o)
 .text          0x0000000000000000        0x0 /usr/lib/gcc/avr/4.8.2/../../../avr/lib/avr51/libc.a(ltoa.o)
 .bss           0x0000000000000000        0x0 /usr/lib/gcc/avr/4.8.2/../../../avr/lib/avr51/libc.a(ltoa.o)
 .text.avr-libc
                0x0000000000000000       0x68 /usr/lib/gcc/avr/4.8.2/../../../avr/lib/avr51/libc.a(ltoa.o)
 .text          0x0000000000000000        0x0 /usr/lib/gcc/avr/4.8.2/../../../avr/lib/avr51/libc.a(mulsi10.o)
 .bss           0x0000000000000000        0x0 /usr/lib/gcc/avr/4.8.2/../../../avr/lib/avr51/libc.a(mulsi10.o)
 .text.avr-libc
                0x0000000000000000       0x2a /usr/lib/gcc/avr/4.8.2/../../../avr/lib/avr51/libc.a(mulsi10.o)
 .text          0x0000000000000000        0x0 /usr/lib/gcc/avr/4.8.2/../../../avr/lib/avr51/libc.a(mul10.o)
 .bss           0x0000000000000000        0x0 /usr/lib/gcc/avr/4.8.2/../../../avr/lib/avr51/libc.a(mul10.o)
 .text          0x0000000000000000        0x0 /usr/lib/gcc/avr/4.8.2/../../../avr/lib/avr51/libc.a(ultoa.o)
 .bss           0x0000000000000000        0x0 /usr/lib/gcc/avr/4.8.2/../../../avr/lib/avr51/libc.a(ultoa.o)
 .text          0x0000000000000000        0x0 /usr/lib/gcc/avr/4.8.2/../../../avr/lib/avr51/libc.a(utoa.o)
 .bss           0x0000000000000000        0x0 /usr/lib/gcc/avr/4.8.2/../../../avr/lib/avr51/libc.a(utoa.o)
 .text.avr-libc
                0x0000000000000000       0x2c /usr/lib/gcc/avr/4.8.2/../../../avr/lib/avr51/libc.a(utoa.o)
 .text          0x0000000000000000        0x0 /usr/lib/gcc/avr/4.8.2/../../../avr/lib/avr51/libc.a(sprintf.o)
 .bss           0x0000000000000000        0x0 /usr/lib/gcc/avr/4.8.2/../../../avr/lib/avr51/libc.a(sprintf.o)
 .text.avr-libc
                0x0000000000000000       0x5e /usr/lib/gcc/avr/4.8.2/../../../avr/lib/avr51/libc.a(sprintf.o)
 .text          0x0000000000000000        0x0 /usr/lib/gcc/avr/4.8.2/../../../avr/lib/avr51/libc.a(vfprintf_std.o)
 .bss           0x0000000000000000        0x0 /usr/lib/gcc/avr/4.8.2/../../../avr/lib/avr51/libc.a(vfprintf_std.o)
 .text.avr-libc
                0x0000000000000000      0x3f6 /usr/lib/gcc/avr/4.8.2/../../../avr/lib/avr51/libc.a(vfprintf_std.o)
 .text          0x0000000000000000        0x0 /usr/lib/gcc/avr/4.8.2/../../../avr/lib/avr51/libc.a(eerd_block_atmega1284p.o)
 .bss           0x0000000000000000        0x0 /usr/lib/gcc/avr/4.8.2/../../../avr/lib/avr51/libc.a(eerd_block_atmega1284p.o)
 .text          0x0000000000000000        0x0 /usr/lib/gcc/avr/4.8.2/../../../avr/lib/avr51/libc.a(eerd_byte_atmega1284p.o)
 .bss           0x0000000000000000        0x0 /usr/lib/gcc/avr/4.8.2/../../../avr/lib/avr51/libc.a(eerd_byte_atmega1284p.o)
 .text          0x0000000000000000        0x0 /usr/lib/gcc/avr/4.8.2/../../../avr/lib/avr51/libc.a(eewr_block_atmega1284p.o)
 .bss           0x0000000000000000        0x0 /usr/lib/gcc/avr/4.8.2/../../../avr/lib/avr51/libc.a(eewr_block_atmega1284p.o)
 .text          0x0000000000000000        0x0 /usr/lib/gcc/avr/4.8.2/../../../avr/lib/avr51/libc.a(eewr_byte_atmega1284p.o)
 .bss           0x0000000000000000        0x0 /usr/lib/gcc/avr/4.8.2/../../../avr/lib/avr51/libc.a(eewr_byte_atmega1284p.o)
 .text          0x0000000000000000        0x0 /usr/lib/gcc/avr/4.8.2/../../../avr/lib/avr51/libc.a(errno.o)
 .bss           0x0000000000000000        0x0 /usr/lib/gcc/avr/4.8.2/../../../avr/lib/avr51/libc.a(errno.o)
 .text          0x0000000000000000        0x0 /usr/lib/gcc/avr/4.8.2/../../../avr/lib/avr51/libc.a(cty_isfalse.o)
 .bss           0x0000000000000000        0x0 /usr/lib/gcc/avr/4.8.2/../../../avr/lib/avr51/libc.a(cty_isfalse.o)
 .text          0x0000000000000000        0x0 /usr/lib/gcc/avr/4.8.2/../../../avr/lib/avr51/libc.a(strnlen_P.o)
 .bss           0x0000000000000000        0x0 /usr/lib/gcc/avr/4.8.2/../../../avr/lib/avr51/libc.a(strnlen_P.o)
 .text.avr-libc
                0x0000000000000000       0x16 /usr/lib/gcc/avr/4.8.2/../../../avr/lib/avr51/libc.a(strnlen_P.o)
 .text          0x0000000000000000        0x0 /usr/lib/gcc/avr/4.8.2/../../../avr/lib/avr51/libc.a(strnlen.o)
 .bss           0x0000000000000000        0x0 /usr/lib/gcc/avr/4.8.2/../../../avr/lib/avr51/libc.a(strnlen.o)
 .text.avr-libc
                0x0000000000000000       0x16 /usr/lib/gcc/avr/4.8.2/../../../avr/lib/avr51/libc.a(strnlen.o)
 .text          0x0000000000000000        0x0 /usr/lib/gcc/avr/4.8.2/../../../avr/lib/avr51/libc.a(strrev.o)
 .bss           0x0000000000000000        0x0 /usr/lib/gcc/avr/4.8.2/../../../avr/lib/avr51/libc.a(strrev.o)
 .text          0x0000000000000000        0x0 /usr/lib/gcc/avr/4.8.2/../../../avr/lib/avr51/libc.a(fputc.o)
 .bss           0x0000000000000000        0x0 /usr/lib/gcc/avr/4.8.2/../../../avr/lib/avr51/libc.a(fputc.o)
 .text.avr-libc
                0x0000000000000000       0x64 /usr/lib/gcc/avr/4.8.2/../../../avr/lib/avr51/libc.a(fputc.o)
 .text          0x0000000000000000        0x0 /usr/lib/gcc/avr/4.8.2/../../../avr/lib/avr51/libc.a(ultoa_invert.o)
 .bss           0x0000000000000000        0x0 /usr/lib/gcc/avr/4.8.2/../../../avr/lib/avr51/libc.a(ultoa_invert.o)
 .text.avr-libc
                0x0000000000000000       0xbc /usr/lib/gcc/avr/4.8.2/../../../avr/lib/avr51/libc.a(ultoa_invert.o)

Memory Configuration

Name             Origin             Length             Attributes
text             0x0000000000000000 0x0000000000020000 xr
data             0x0000000000800100 0x000000000000ff00 rw !x
eeprom           0x0000000000810000 0x0000000000010000 rw !x
fuse             0x0000000000820000 0x0000000000000400 rw !x
lock             0x0000000000830000 0x0000000000000400 rw !x
signature        0x0000000000840000 0x0000000000000400 rw !x
user_signatures  0x0000000000850000 0x0000000000000400 rw !x
*default*        0x0000000000000000 0xffffffffffffffff

Linker script and memory map

Address of section .data set to 0x800100
LOAD /usr/lib/gcc/avr/4.8.2/../../../avr/lib/avr51/crtm1284p.o
LOAD /usr/lib/gcc/avr/4.8.2/../../../avr/lib/avr51/libm.a
LOAD CMakeFiles/BrewTroller-OT_DX1_STEAMPWM.elf.dir/BrewCore.cpp.obj
LOAD CMakeFiles/BrewTroller-OT_DX1_STEAMPWM.elf.dir/BrewTroller.cpp.obj
LOAD CMakeFiles/BrewTroller-OT_DX1_STEAMPWM.elf.dir/Com.cpp.obj
LOAD CMakeFiles/BrewTroller-OT_DX1_STEAMPWM.elf.dir/Com_BTPD.cpp.obj
LOAD CMakeFiles/BrewTroller-OT_DX1_STEAMPWM.elf.dir/Com_RGBIO8.cpp.obj
LOAD CMakeFiles/BrewTroller-OT_DX1_STEAMPWM.elf.dir/Com_S0ASC.cpp.obj
LOAD CMakeFiles/BrewTroller-OT_DX1_STEAMPWM.elf.dir/EEPROM.cpp.obj
LOAD CMakeFiles/BrewTroller-OT_DX1_STEAMPWM.elf.dir/Events.cpp.obj
LOAD CMakeFiles/BrewTroller-OT_DX1_STEAMPWM.elf.dir/Outputs.cpp.obj
LOAD CMakeFiles/BrewTroller-OT_DX1_STEAMPWM.elf.dir/PVOut.cpp.obj
LOAD CMakeFiles/BrewTroller-OT_DX1_STEAMPWM.elf.dir/StepLogic.cpp.obj
LOAD CMakeFiles/BrewTroller-OT_DX1_STEAMPWM.elf.dir/Temp.cpp.obj
LOAD CMakeFiles/BrewTroller-OT_DX1_STEAMPWM.elf.dir/Timer.cpp.obj
LOAD CMakeFiles/BrewTroller-OT_DX1_STEAMPWM.elf.dir/UI.cpp.obj
LOAD CMakeFiles/BrewTroller-OT_DX1_STEAMPWM.elf.dir/UIStrings.cpp.obj
LOAD CMakeFiles/BrewTroller-OT_DX1_STEAMPWM.elf.dir/Util.cpp.obj
LOAD CMakeFiles/BrewTroller-OT_DX1_STEAMPWM.elf.dir/Vessel.cpp.obj
LOAD CMakeFiles/BrewTroller-OT_DX1_STEAMPWM.elf.dir/Volume.cpp.obj
LOAD ../lib/libBT-libs.a
LOAD /usr/lib/gcc/avr/4.8.2/avr51/libgcc.a
LOAD /usr/lib/gcc/avr/4.8.2/../../../avr/lib/avr51/libm.a
START GROUP
LOAD /usr/lib/gcc/avr/4.8.2/avr51/libgcc.a
LOAD /usr/lib/gcc/avr/4.8.2/../../../avr/lib/avr51/libm.a
LOAD /usr/lib/gcc/avr/4.8.2/../../../avr/lib/avr51/libc.a
END GROUP

.hash
 *(.hash)

.dynsym
 *(.dynsym)

.dynstr
 *(.dynstr)

.gnu.version
 *(.gnu.version)

.gnu.version_d
 *(.gnu.version_d)

.gnu.version_r
 *(.gnu.version_r)

.rel.init
 *(.rel.init)

.rela.init
 *(.rela.init)

.rel.text
 *(.rel.text)
 *(.rel.text.*)
 *(.rel.gnu.linkonce.t*)

.rela.text
 *(.rela.text)
 *(.rela.text.*)
 *(.rela.gnu.linkonce.t*)

.rel.fini
 *(.rel.fini)

.rela.fini
 *(.rela.fini)

.rel.rodata
 *(.rel.rodata)
 *(.rel.rodata.*)
 *(.rel.gnu.linkonce.r*)

.rela.rodata
 *(.rela.rodata)
 *(.rela.rodata.*)
 *(.rela.gnu.linkonce.r*)

.rel.data
 *(.rel.data)
 *(.rel.data.*)
 *(.rel.gnu.linkonce.d*)

.rela.data
 *(.rela.data)
 *(.rela.data.*)
 *(.rela.gnu.linkonce.d*)

.rel.ctors
 *(.rel.ctors)

.rela.ctors
 *(.rela.ctors)

.rel.dtors
 *(.rel.dtors)

.rela.dtors
 *(.rela.dtors)

.rel.got
 *(.rel.got)

.rela.got
 *(.rela.got)

.rel.bss
 *(.rel.bss)

.rela.bss
 *(.rela.bss)

.rel.plt
 *(.rel.plt)

.rela.plt
 *(.rela.plt)

.text           0x0000000000000000    0x11570
 *(.vectors)
 .vectors       0x0000000000000000       0x8c /usr/lib/gcc/avr/4.8.2/../../../avr/lib/avr51/crtm1284p.o
                0x0000000000000000                __vectors
                0x0000000000000000                __vector_default
 *(.vectors)
 *(.progmem.gcc*)
 .progmem.gcc_sw_table._Z8brewCorev
                0x000000000000008c       0x10 CMakeFiles/BrewTroller-OT_DX1_STEAMPWM.elf.dir/BrewCore.cpp.obj
 .progmem.gcc_sw_table._ZN5BTnic7execCmdEv
                0x000000000000009c       0x82 CMakeFiles/BrewTroller-OT_DX1_STEAMPWM.elf.dir/Com.cpp.obj
 .progmem.gcc_sw_table.turnOffPWM
                0x000000000000011e       0x12 ../lib/libBT-libs.a(wiring_digital.c.obj)
 .progmem.gcc_fplib
                0x0000000000000130       0x28 /usr/lib/gcc/avr/4.8.2/../../../avr/lib/avr51/libm.a(exp.o)
 .progmem.gcc_fplib
                0x0000000000000158       0x5a /usr/lib/gcc/avr/4.8.2/../../../avr/lib/avr51/libm.a(log.o)
 *(.progmem*)
 .progmem.data.LOGSYS
                0x00000000000001b2        0x4 CMakeFiles/BrewTroller-OT_DX1_STEAMPWM.elf.dir/BrewTroller.cpp.obj
                0x00000000000001b2                LOGSYS
 .progmem.data._ZL18CMD_INDEX_MAXVALUE
                0x00000000000001b6       0x41 CMakeFiles/BrewTroller-OT_DX1_STEAMPWM.elf.dir/Com.cpp.obj
 .progmem.data._ZL16CMD_PARAM_COUNTS
                0x00000000000001f7       0x41 CMakeFiles/BrewTroller-OT_DX1_STEAMPWM.elf.dir/Com.cpp.obj
 .progmem.data._ZL4BELL
                0x0000000000000238        0x8 CMakeFiles/BrewTroller-OT_DX1_STEAMPWM.elf.dir/UI.cpp.obj
 .progmem.data._ZL9PROG_ICON
                0x0000000000000240        0x8 CMakeFiles/BrewTroller-OT_DX1_STEAMPWM.elf.dir/UI.cpp.obj
 .progmem.data._ZL11UNLOCK_ICON
                0x0000000000000248        0x8 CMakeFiles/BrewTroller-OT_DX1_STEAMPWM.elf.dir/UI.cpp.obj
 .progmem.data._ZL4BMP4
                0x0000000000000250        0x8 CMakeFiles/BrewTroller-OT_DX1_STEAMPWM.elf.dir/UI.cpp.obj
 .progmem.data._ZL4BMP3
                0x0000000000000258        0x8 CMakeFiles/BrewTroller-OT_DX1_STEAMPWM.elf.dir/UI.cpp.obj
 .progmem.data._ZL4BMP2
                0x0000000000000260        0x8 CMakeFiles/BrewTroller-OT_DX1_STEAMPWM.elf.dir/UI.cpp.obj
 .progmem.data._ZL4BMP1
                0x0000000000000268        0x8 CMakeFiles/BrewTroller-OT_DX1_STEAMPWM.elf.dir/UI.cpp.obj
 .progmem.data._ZL4BMP0
                0x0000000000000270        0x8 CMakeFiles/BrewTroller-OT_DX1_STEAMPWM.elf.dir/UI.cpp.obj
 .progmem.data._ZL7CHARSEL
                0x0000000000000278        0x8 CMakeFiles/BrewTroller-OT_DX1_STEAMPWM.elf.dir/UI.cpp.obj
 .progmem.data._ZL10CHARCURSOR
                0x0000000000000280        0x8 CMakeFiles/BrewTroller-OT_DX1_STEAMPWM.elf.dir/UI.cpp.obj
 .progmem.data._ZL9CHARFIELD
                0x0000000000000288        0x8 CMakeFiles/BrewTroller-OT_DX1_STEAMPWM.elf.dir/UI.cpp.obj
 .progmem.data._ZL9TITLE_VLV
                0x0000000000000290       0x28 CMakeFiles/BrewTroller-OT_DX1_STEAMPWM.elf.dir/UI.cpp.obj
 .progmem.data._ZL14TITLE_MASHSTEP
                0x00000000000002b8        0xc CMakeFiles/BrewTroller-OT_DX1_STEAMPWM.elf.dir/UI.cpp.obj
 .progmem.data._ZN9UIStrings5Units5TUNITE
                0x00000000000002c4        0x2 CMakeFiles/BrewTroller-OT_DX1_STEAMPWM.elf.dir/UIStrings.cpp.obj
                0x00000000000002c4                _ZN9UIStrings5Units5TUNITE
 .progmem.data._ZN9UIStrings5Units6WTUNITE
                0x00000000000002c6        0x3 CMakeFiles/BrewTroller-OT_DX1_STEAMPWM.elf.dir/UIStrings.cpp.obj
                0x00000000000002c6                _ZN9UIStrings5Units6WTUNITE
 .progmem.data._ZN9UIStrings5Units7VOLUNITE
                0x00000000000002c9        0x4 CMakeFiles/BrewTroller-OT_DX1_STEAMPWM.elf.dir/UIStrings.cpp.obj
                0x00000000000002c9                _ZN9UIStrings5Units7VOLUNITE
 .progmem.data._ZN9UIStrings11SystemSetup14TriggersConfig14INPUT_PIN_NONEE
                0x00000000000002cd       0x14 CMakeFiles/BrewTroller-OT_DX1_STEAMPWM.elf.dir/UIStrings.cpp.obj
                0x00000000000002cd                _ZN9UIStrings11SystemSetup14TriggersConfig14INPUT_PIN_NONEE
 .progmem.data._ZN9UIStrings11SystemSetup14TriggersConfig4NONEE
                0x00000000000002e1        0x5 CMakeFiles/BrewTroller-OT_DX1_STEAMPWM.elf.dir/UIStrings.cpp.obj
                0x00000000000002e1                _ZN9UIStrings11SystemSetup14TriggersConfig4NONEE
 .progmem.data._ZN9UIStrings11SystemSetup14TriggersConfig10KETTLE_MINE
                0x00000000000002e6        0xd CMakeFiles/BrewTroller-OT_DX1_STEAMPWM.elf.dir/UIStrings.cpp.obj
                0x00000000000002e6                _ZN9UIStrings11SystemSetup14TriggersConfig10KETTLE_MINE
 .progmem.data._ZN9UIStrings11SystemSetup14TriggersConfig8MASH_MINE
                0x00000000000002f3        0xb CMakeFiles/BrewTroller-OT_DX1_STEAMPWM.elf.dir/UIStrings.cpp.obj
                0x00000000000002f3                _ZN9UIStrings11SystemSetup14TriggersConfig8MASH_MINE
 .progmem.data._ZN9UIStrings11SystemSetup14TriggersConfig7HLT_MINE
                0x00000000000002fe        0xa CMakeFiles/BrewTroller-OT_DX1_STEAMPWM.elf.dir/UIStrings.cpp.obj
                0x00000000000002fe                _ZN9UIStrings11SystemSetup14TriggersConfig7HLT_MINE
 .progmem.data._ZN9UIStrings11SystemSetup14TriggersConfig10SPARGE_MAXE
                0x0000000000000308        0xd CMakeFiles/BrewTroller-OT_DX1_STEAMPWM.elf.dir/UIStrings.cpp.obj
                0x0000000000000308                _ZN9UIStrings11SystemSetup14TriggersConfig10SPARGE_MAXE
 .progmem.data._ZN9UIStrings11SystemSetup14TriggersConfig5ESTOPE
                0x0000000000000315        0x9 CMakeFiles/BrewTroller-OT_DX1_STEAMPWM.elf.dir/UIStrings.cpp.obj
                0x0000000000000315                _ZN9UIStrings11SystemSetup14TriggersConfig5ESTOPE
 .progmem.data._ZN9UIStrings11SystemSetup9LCDConfig8CONTRASTE
                0x000000000000031e        0xa CMakeFiles/BrewTroller-OT_DX1_STEAMPWM.elf.dir/UIStrings.cpp.obj
                0x000000000000031e                _ZN9UIStrings11SystemSetup9LCDConfig8CONTRASTE
 .progmem.data._ZN9UIStrings11SystemSetup9LCDConfig10BRIGHTNESSE
                0x0000000000000328        0xc CMakeFiles/BrewTroller-OT_DX1_STEAMPWM.elf.dir/UIStrings.cpp.obj
                0x0000000000000328                _ZN9UIStrings11SystemSetup9LCDConfig10BRIGHTNESSE
 .progmem.data._ZN9UIStrings11SystemSetup9LCDConfig10ADJUST_LCDE
                0x0000000000000334        0xb CMakeFiles/BrewTroller-OT_DX1_STEAMPWM.elf.dir/UIStrings.cpp.obj
                0x0000000000000334                _ZN9UIStrings11SystemSetup9LCDConfig10ADJUST_LCDE
 .progmem.data._ZN9UIStrings11SystemSetup10InitEEPROM12RESET_CONFIGE
                0x000000000000033f       0x15 CMakeFiles/BrewTroller-OT_DX1_STEAMPWM.elf.dir/UIStrings.cpp.obj
                0x000000000000033f                _ZN9UIStrings11SystemSetup10InitEEPROM12RESET_CONFIGE
 .progmem.data._ZN9UIStrings11SystemSetup18MODBUSOutputConfig20UPDATE_FAIL_CONTINUEE
                0x0000000000000354        0xd CMakeFiles/BrewTroller-OT_DX1_STEAMPWM.elf.dir/UIStrings.cpp.obj
                0x0000000000000354                _ZN9UIStrings11SystemSetup18MODBUSOutputConfig20UPDATE_FAIL_CONTINUEE
 .progmem.data._ZN9UIStrings11SystemSetup18MODBUSOutputConfig11UPDATE_FAILE
                0x0000000000000361        0xe CMakeFiles/BrewTroller-OT_DX1_STEAMPWM.elf.dir/UIStrings.cpp.obj
                0x0000000000000361                _ZN9UIStrings11SystemSetup18MODBUSOutputConfig11UPDATE_FAILE
 .progmem.data._ZN9UIStrings11SystemSetup18MODBUSOutputConfig11NEW_ADDRESSE
                0x000000000000036f        0xc CMakeFiles/BrewTroller-OT_DX1_STEAMPWM.elf.dir/UIStrings.cpp.obj
                0x000000000000036f                _ZN9UIStrings11SystemSetup18MODBUSOutputConfig11NEW_ADDRESSE
 .progmem.data._ZN9UIStrings11SystemSetup18MODBUSOutputConfig12ASSIGN_RETRYE
                0x000000000000037b        0x9 CMakeFiles/BrewTroller-OT_DX1_STEAMPWM.elf.dir/UIStrings.cpp.obj
                0x000000000000037b                _ZN9UIStrings11SystemSetup18MODBUSOutputConfig12ASSIGN_RETRYE
 .progmem.data._ZN9UIStrings11SystemSetup18MODBUSOutputConfig12ASSIGN_ERRORE
                0x0000000000000384        0x7 CMakeFiles/BrewTroller-OT_DX1_STEAMPWM.elf.dir/UIStrings.cpp.obj
                0x0000000000000384                _ZN9UIStrings11SystemSetup18MODBUSOutputConfig12ASSIGN_ERRORE
 .progmem.data._ZN9UIStrings11SystemSetup18MODBUSOutputConfig14ASSIGN_TIMEOUTE
                0x000000000000038b        0x8 CMakeFiles/BrewTroller-OT_DX1_STEAMPWM.elf.dir/UIStrings.cpp.obj
                0x000000000000038b                _ZN9UIStrings11SystemSetup18MODBUSOutputConfig14ASSIGN_TIMEOUTE
 .progmem.data._ZN9UIStrings11SystemSetup18MODBUSOutputConfig17CLICK_TO_ACTIVATEE
                0x0000000000000393       0x13 CMakeFiles/BrewTroller-OT_DX1_STEAMPWM.elf.dir/UIStrings.cpp.obj
                0x0000000000000393                _ZN9UIStrings11SystemSetup18MODBUSOutputConfig17CLICK_TO_ACTIVATEE
 .progmem.data._ZN9UIStrings11SystemSetup18MODBUSOutputConfig12OUTPUT_BOARDE
                0x00000000000003a6       0x12 CMakeFiles/BrewTroller-OT_DX1_STEAMPWM.elf.dir/UIStrings.cpp.obj
                0x00000000000003a6                _ZN9UIStrings11SystemSetup18MODBUSOutputConfig12OUTPUT_BOARDE
 .progmem.data._ZN9UIStrings11SystemSetup18MODBUSOutputConfig11CLICK_RESETE
                0x00000000000003b8       0x14 CMakeFiles/BrewTroller-OT_DX1_STEAMPWM.elf.dir/UIStrings.cpp.obj
                0x00000000000003b8                _ZN9UIStrings11SystemSetup18MODBUSOutputConfig11CLICK_RESETE
 .progmem.data._ZN9UIStrings11SystemSetup18MODBUSOutputConfig13OUTPUT_OFFSETE
                0x00000000000003cc        0xe CMakeFiles/BrewTroller-OT_DX1_STEAMPWM.elf.dir/UIStrings.cpp.obj
                0x00000000000003cc                _ZN9UIStrings11SystemSetup18MODBUSOutputConfig13OUTPUT_OFFSETE
 .progmem.data._ZN9UIStrings11SystemSetup18MODBUSOutputConfig10COIL_COUNTE
                0x00000000000003da        0xb CMakeFiles/BrewTroller-OT_DX1_STEAMPWM.elf.dir/UIStrings.cpp.obj
                0x00000000000003da                _ZN9UIStrings11SystemSetup18MODBUSOutputConfig10COIL_COUNTE
 .progmem.data._ZN9UIStrings11SystemSetup18MODBUSOutputConfig13COIL_REGISTERE
                0x00000000000003e5        0xe CMakeFiles/BrewTroller-OT_DX1_STEAMPWM.elf.dir/UIStrings.cpp.obj
                0x00000000000003e5                _ZN9UIStrings11SystemSetup18MODBUSOutputConfig13COIL_REGISTERE
 .progmem.data._ZN9UIStrings11SystemSetup18MODBUSOutputConfig13RELAY_ADDRESSE
                0x00000000000003f3       0x14 CMakeFiles/BrewTroller-OT_DX1_STEAMPWM.elf.dir/UIStrings.cpp.obj
                0x00000000000003f3                _ZN9UIStrings11SystemSetup18MODBUSOutputConfig13RELAY_ADDRESSE
 .progmem.data._ZN9UIStrings11SystemSetup18MODBUSOutputConfig7ID_MODEE
                0x0000000000000407        0xa CMakeFiles/BrewTroller-OT_DX1_STEAMPWM.elf.dir/UIStrings.cpp.obj
                0x0000000000000407                _ZN9UIStrings11SystemSetup18MODBUSOutputConfig7ID_MODEE
 .progmem.data._ZN9UIStrings11SystemSetup18MODBUSOutputConfig11AUTO_ASSIGNE
                0x0000000000000411        0xc CMakeFiles/BrewTroller-OT_DX1_STEAMPWM.elf.dir/UIStrings.cpp.obj
                0x0000000000000411                _ZN9UIStrings11SystemSetup18MODBUSOutputConfig11AUTO_ASSIGNE
 .progmem.data._ZN9UIStrings11SystemSetup18MODBUSOutputConfig6OFFSETE
                0x000000000000041d        0x9 CMakeFiles/BrewTroller-OT_DX1_STEAMPWM.elf.dir/UIStrings.cpp.obj
                0x000000000000041d                _ZN9UIStrings11SystemSetup18MODBUSOutputConfig6OFFSETE
 .progmem.data._ZN9UIStrings11SystemSetup18MODBUSOutputConfig5COUNTE
                0x0000000000000426        0x8 CMakeFiles/BrewTroller-OT_DX1_STEAMPWM.elf.dir/UIStrings.cpp.obj
                0x0000000000000426                _ZN9UIStrings11SystemSetup18MODBUSOutputConfig5COUNTE
 .progmem.data._ZN9UIStrings11SystemSetup18MODBUSOutputConfig8REGISTERE
                0x000000000000042e        0xb CMakeFiles/BrewTroller-OT_DX1_STEAMPWM.elf.dir/UIStrings.cpp.obj
                0x000000000000042e                _ZN9UIStrings11SystemSetup18MODBUSOutputConfig8REGISTERE
 .progmem.data._ZN9UIStrings11SystemSetup18MODBUSOutputConfig2NAE
                0x0000000000000439        0x4 CMakeFiles/BrewTroller-OT_DX1_STEAMPWM.elf.dir/UIStrings.cpp.obj
                0x0000000000000439                _ZN9UIStrings11SystemSetup18MODBUSOutputConfig2NAE
 .progmem.data._ZN9UIStrings11SystemSetup18MODBUSOutputConfig7ADDRESSE
                0x000000000000043d        0xa CMakeFiles/BrewTroller-OT_DX1_STEAMPWM.elf.dir/UIStrings.cpp.obj
                0x000000000000043d                _ZN9UIStrings11SystemSetup18MODBUSOutputConfig7ADDRESSE
 .progmem.data._ZN9UIStrings11SystemSetup18MODBUSOutputConfig5ERRORE
                0x0000000000000447        0x6 CMakeFiles/BrewTroller-OT_DX1_STEAMPWM.elf.dir/UIStrings.cpp.obj
                0x0000000000000447                _ZN9UIStrings11SystemSetup18MODBUSOutputConfig5ERRORE
 .progmem.data._ZN9UIStrings11SystemSetup18MODBUSOutputConfig7TIMEOUTE
                0x000000000000044d        0xa CMakeFiles/BrewTroller-OT_DX1_STEAMPWM.elf.dir/UIStrings.cpp.obj
                0x000000000000044d                _ZN9UIStrings11SystemSetup18MODBUSOutputConfig7TIMEOUTE
 .progmem.data._ZN9UIStrings11SystemSetup18MODBUSOutputConfig9CONNECTEDE
                0x0000000000000457        0xc CMakeFiles/BrewTroller-OT_DX1_STEAMPWM.elf.dir/UIStrings.cpp.obj
                0x0000000000000457                _ZN9UIStrings11SystemSetup18MODBUSOutputConfig9CONNECTEDE
 .progmem.data._ZN9UIStrings11SystemSetup18MODBUSOutputConfig8DISABLEDE
                0x0000000000000463        0xb CMakeFiles/BrewTroller-OT_DX1_STEAMPWM.elf.dir/UIStrings.cpp.obj
                0x0000000000000463                _ZN9UIStrings11SystemSetup18MODBUSOutputConfig8DISABLEDE
 .progmem.data._ZN9UIStrings11SystemSetup18MODBUSOutputConfig5BOARDE
                0x000000000000046e        0x7 CMakeFiles/BrewTroller-OT_DX1_STEAMPWM.elf.dir/UIStrings.cpp.obj
                0x000000000000046e                _ZN9UIStrings11SystemSetup18MODBUSOutputConfig5BOARDE
 .progmem.data._ZN9UIStrings11SystemSetup18ValveProfileConfig9CLOSE_SQRE
                0x0000000000000475        0x2 CMakeFiles/BrewTroller-OT_DX1_STEAMPWM.elf.dir/UIStrings.cpp.obj
                0x0000000000000475                _ZN9UIStrings11SystemSetup18ValveProfileConfig9CLOSE_SQRE
 .progmem.data._ZN9UIStrings11SystemSetup18ValveProfileConfig8OPEN_SQRE
                0x0000000000000477        0x2 CMakeFiles/BrewTroller-OT_DX1_STEAMPWM.elf.dir/UIStrings.cpp.obj
                0x0000000000000477                _ZN9UIStrings11SystemSetup18ValveProfileConfig8OPEN_SQRE
 .progmem.data._ZN9UIStrings11SystemSetup18ValveProfileConfig6CARROTE
                0x0000000000000479        0x2 CMakeFiles/BrewTroller-OT_DX1_STEAMPWM.elf.dir/UIStrings.cpp.obj
                0x0000000000000479                _ZN9UIStrings11SystemSetup18ValveProfileConfig6CARROTE
 .progmem.data._ZN9UIStrings11SystemSetup18ValveProfileConfig3ONEE
                0x000000000000047b        0x2 CMakeFiles/BrewTroller-OT_DX1_STEAMPWM.elf.dir/UIStrings.cpp.obj
                0x000000000000047b                _ZN9UIStrings11SystemSetup18ValveProfileConfig3ONEE
 .progmem.data._ZN9UIStrings11SystemSetup18ValveProfileConfig4SAVEE
                0x000000000000047d        0x5 CMakeFiles/BrewTroller-OT_DX1_STEAMPWM.elf.dir/UIStrings.cpp.obj
                0x000000000000047d                _ZN9UIStrings11SystemSetup18ValveProfileConfig4SAVEE
 .progmem.data._ZN9UIStrings11SystemSetup18ValveProfileConfig4TESTE
                0x0000000000000482        0x5 CMakeFiles/BrewTroller-OT_DX1_STEAMPWM.elf.dir/UIStrings.cpp.obj
                0x0000000000000482                _ZN9UIStrings11SystemSetup18ValveProfileConfig4TESTE
 .progmem.data._ZN9UIStrings11SystemSetup17VolumeCalibration16MANUAL_VOL_ENTRYE
                0x0000000000000487       0x14 CMakeFiles/BrewTroller-OT_DX1_STEAMPWM.elf.dir/UIStrings.cpp.obj
                0x0000000000000487                _ZN9UIStrings11SystemSetup17VolumeCalibration16MANUAL_VOL_ENTRYE
 .progmem.data._ZN9UIStrings11SystemSetup17VolumeCalibration12MANUAL_ENTRYE
                0x000000000000049b        0xd CMakeFiles/BrewTroller-OT_DX1_STEAMPWM.elf.dir/UIStrings.cpp.obj
                0x000000000000049b                _ZN9UIStrings11SystemSetup17VolumeCalibration12MANUAL_ENTRYE
 .progmem.data._ZN9UIStrings11SystemSetup17VolumeCalibration2TOE
                0x00000000000004a8        0x5 CMakeFiles/BrewTroller-OT_DX1_STEAMPWM.elf.dir/UIStrings.cpp.obj
                0x00000000000004a8                _ZN9UIStrings11SystemSetup17VolumeCalibration2TOE
 .progmem.data._ZN9UIStrings11SystemSetup17VolumeCalibration6UPDATEE
                0x00000000000004ad        0x8 CMakeFiles/BrewTroller-OT_DX1_STEAMPWM.elf.dir/UIStrings.cpp.obj
                0x00000000000004ad                _ZN9UIStrings11SystemSetup17VolumeCalibration6UPDATEE
 .progmem.data._ZN9UIStrings11SystemSetup17VolumeCalibration9CALIBRATEE
                0x00000000000004b5        0xa CMakeFiles/BrewTroller-OT_DX1_STEAMPWM.elf.dir/UIStrings.cpp.obj
                0x00000000000004b5                _ZN9UIStrings11SystemSetup17VolumeCalibration9CALIBRATEE
 .progmem.data._ZN9UIStrings11SystemSetup17VolumeCalibration8CURR_VOLE
                0x00000000000004bf       0x10 CMakeFiles/BrewTroller-OT_DX1_STEAMPWM.elf.dir/UIStrings.cpp.obj
                0x00000000000004bf                _ZN9UIStrings11SystemSetup17VolumeCalibration8CURR_VOLE
 .progmem.data._ZN9UIStrings11SystemSetup17VolumeCalibration4OPENE
                0x00000000000004cf        0x5 CMakeFiles/BrewTroller-OT_DX1_STEAMPWM.elf.dir/UIStrings.cpp.obj
                0x00000000000004cf                _ZN9UIStrings11SystemSetup17VolumeCalibration4OPENE
 .progmem.data._ZN9UIStrings11SystemSetup17VolumeCalibration11CLOSE_PARENE
                0x00000000000004d4        0x2 CMakeFiles/BrewTroller-OT_DX1_STEAMPWM.elf.dir/UIStrings.cpp.obj
                0x00000000000004d4                _ZN9UIStrings11SystemSetup17VolumeCalibration11CLOSE_PARENE
 .progmem.data._ZN9UIStrings11SystemSetup17VolumeCalibration10OPEN_PARENE
                0x00000000000004d6        0x3 CMakeFiles/BrewTroller-OT_DX1_STEAMPWM.elf.dir/UIStrings.cpp.obj
                0x00000000000004d6                _ZN9UIStrings11SystemSetup17VolumeCalibration10OPEN_PARENE
 .progmem.data._ZN9UIStrings11SystemSetup12VolumeConfig14EVAP_RATE_UNITE
                0x00000000000004d9        0x5 CMakeFiles/BrewTroller-OT_DX1_STEAMPWM.elf.dir/UIStrings.cpp.obj
                0x00000000000004d9                _ZN9UIStrings11SystemSetup12VolumeConfig14EVAP_RATE_UNITE
 .progmem.data._ZN9UIStrings11SystemSetup12VolumeConfig11CALIBRATIONE
                0x00000000000004de        0xd CMakeFiles/BrewTroller-OT_DX1_STEAMPWM.elf.dir/UIStrings.cpp.obj
                0x00000000000004de                _ZN9UIStrings11SystemSetup12VolumeConfig11CALIBRATIONE
 .progmem.data._ZN9UIStrings11SystemSetup12VolumeConfig9DEADSPACEE
                0x00000000000004eb        0xc CMakeFiles/BrewTroller-OT_DX1_STEAMPWM.elf.dir/UIStrings.cpp.obj
                0x00000000000004eb                _ZN9UIStrings11SystemSetup12VolumeConfig9DEADSPACEE
 .progmem.data._ZN9UIStrings11SystemSetup12VolumeConfig8CAPACITYE
                0x00000000000004f7        0xa CMakeFiles/BrewTroller-OT_DX1_STEAMPWM.elf.dir/UIStrings.cpp.obj
                0x00000000000004f7                _ZN9UIStrings11SystemSetup12VolumeConfig8CAPACITYE
 .progmem.data._ZN9UIStrings11SystemSetup12VolumeConfig9EVAP_RATEE
                0x0000000000000501       0x11 CMakeFiles/BrewTroller-OT_DX1_STEAMPWM.elf.dir/UIStrings.cpp.obj
                0x0000000000000501                _ZN9UIStrings11SystemSetup12VolumeConfig9EVAP_RATEE
 .progmem.data._ZN9UIStrings11SystemSetup12OutputConfig10HYSTERESISE
                0x0000000000000512        0xc CMakeFiles/BrewTroller-OT_DX1_STEAMPWM.elf.dir/UIStrings.cpp.obj
                0x0000000000000512                _ZN9UIStrings11SystemSetup12OutputConfig10HYSTERESISE
 .progmem.data._ZN9UIStrings11SystemSetup12OutputConfig7PIDGAINE
                0x000000000000051e        0xa CMakeFiles/BrewTroller-OT_DX1_STEAMPWM.elf.dir/UIStrings.cpp.obj
                0x000000000000051e                _ZN9UIStrings11SystemSetup12OutputConfig7PIDGAINE
 .progmem.data._ZN9UIStrings11SystemSetup12OutputConfig8PIDCYCLEE
                0x0000000000000528        0xb CMakeFiles/BrewTroller-OT_DX1_STEAMPWM.elf.dir/UIStrings.cpp.obj
                0x0000000000000528                _ZN9UIStrings11SystemSetup12OutputConfig8PIDCYCLEE
 .progmem.data._ZN9UIStrings11SystemSetup12OutputConfig11ON_OFF_MODEE
                0x0000000000000533        0x7 CMakeFiles/BrewTroller-OT_DX1_STEAMPWM.elf.dir/UIStrings.cpp.obj
                0x0000000000000533                _ZN9UIStrings11SystemSetup12OutputConfig11ON_OFF_MODEE
 .progmem.data._ZN9UIStrings11SystemSetup12OutputConfig8PID_MODEE
                0x000000000000053a        0x4 CMakeFiles/BrewTroller-OT_DX1_STEAMPWM.elf.dir/UIStrings.cpp.obj
                0x000000000000053a                _ZN9UIStrings11SystemSetup12OutputConfig8PID_MODEE
 .progmem.data._ZN9UIStrings11SystemSetup12OutputConfig11KETTLE_MODEE
                0x000000000000053e        0xe CMakeFiles/BrewTroller-OT_DX1_STEAMPWM.elf.dir/UIStrings.cpp.obj
                0x000000000000053e                _ZN9UIStrings11SystemSetup12OutputConfig11KETTLE_MODEE
 .progmem.data._ZN9UIStrings11SystemSetup12OutputConfig9MASH_MODEE
                0x000000000000054c        0xc CMakeFiles/BrewTroller-OT_DX1_STEAMPWM.elf.dir/UIStrings.cpp.obj
                0x000000000000054c                _ZN9UIStrings11SystemSetup12OutputConfig9MASH_MODEE
 .progmem.data._ZN9UIStrings11SystemSetup12OutputConfig8HLT_MODEE
                0x0000000000000558        0xb CMakeFiles/BrewTroller-OT_DX1_STEAMPWM.elf.dir/UIStrings.cpp.obj
                0x0000000000000558                _ZN9UIStrings11SystemSetup12OutputConfig8HLT_MODEE
 .progmem.data._ZN9UIStrings11SystemSetup16TempSensorAssign15ASSIGN_BAD_TEMPE
                0x0000000000000563        0x4 CMakeFiles/BrewTroller-OT_DX1_STEAMPWM.elf.dir/UIStrings.cpp.obj
                0x0000000000000563                _ZN9UIStrings11SystemSetup16TempSensorAssign15ASSIGN_BAD_TEMPE
 .progmem.data._ZN9UIStrings11SystemSetup16TempSensorAssign16DISCONNECT_WARN2E
                0x0000000000000567       0x11 CMakeFiles/BrewTroller-OT_DX1_STEAMPWM.elf.dir/UIStrings.cpp.obj
                0x0000000000000567                _ZN9UIStrings11SystemSetup16TempSensorAssign16DISCONNECT_WARN2E
 .progmem.data._ZN9UIStrings11SystemSetup16TempSensorAssign16DISCONNECT_WARN1E
                0x0000000000000578       0x15 CMakeFiles/BrewTroller-OT_DX1_STEAMPWM.elf.dir/UIStrings.cpp.obj
                0x0000000000000578                _ZN9UIStrings11SystemSetup16TempSensorAssign16DISCONNECT_WARN1E
 .progmem.data._ZN9UIStrings11SystemSetup16TempSensorAssign14DELETE_ADDRESSE
                0x000000000000058d        0xf CMakeFiles/BrewTroller-OT_DX1_STEAMPWM.elf.dir/UIStrings.cpp.obj
                0x000000000000058d                _ZN9UIStrings11SystemSetup16TempSensorAssign14DELETE_ADDRESSE
 .progmem.data._ZN9UIStrings11SystemSetup16TempSensorAssign8SCAN_BUSE
                0x000000000000059c        0x9 CMakeFiles/BrewTroller-OT_DX1_STEAMPWM.elf.dir/UIStrings.cpp.obj
                0x000000000000059c                _ZN9UIStrings11SystemSetup16TempSensorAssign8SCAN_BUSE
 .progmem.data._ZN9UIStrings11SystemSetup16TempSensorAssign13ASSIGN_SENSORE
                0x00000000000005a5       0x13 CMakeFiles/BrewTroller-OT_DX1_STEAMPWM.elf.dir/UIStrings.cpp.obj
                0x00000000000005a5                _ZN9UIStrings11SystemSetup16TempSensorAssign13ASSIGN_SENSORE
 .progmem.data._ZN9UIStrings11SystemSetup16TempSensorAssign4AUX3E
                0x00000000000005b8        0x6 CMakeFiles/BrewTroller-OT_DX1_STEAMPWM.elf.dir/UIStrings.cpp.obj
                0x00000000000005b8                _ZN9UIStrings11SystemSetup16TempSensorAssign4AUX3E
 .progmem.data._ZN9UIStrings11SystemSetup16TempSensorAssign4AUX2E
                0x00000000000005be        0x6 CMakeFiles/BrewTroller-OT_DX1_STEAMPWM.elf.dir/UIStrings.cpp.obj
                0x00000000000005be                _ZN9UIStrings11SystemSetup16TempSensorAssign4AUX2E
 .progmem.data._ZN9UIStrings11SystemSetup16TempSensorAssign4AUX1E
                0x00000000000005c4        0x6 CMakeFiles/BrewTroller-OT_DX1_STEAMPWM.elf.dir/UIStrings.cpp.obj
                0x00000000000005c4                _ZN9UIStrings11SystemSetup16TempSensorAssign4AUX1E
 .progmem.data._ZN9UIStrings11SystemSetup16TempSensorAssign8BEER_OUTE
                0x00000000000005ca        0x9 CMakeFiles/BrewTroller-OT_DX1_STEAMPWM.elf.dir/UIStrings.cpp.obj
                0x00000000000005ca                _ZN9UIStrings11SystemSetup16TempSensorAssign8BEER_OUTE
 .progmem.data._ZN9UIStrings11SystemSetup16TempSensorAssign9WATER_OUTE
                0x00000000000005d3        0x8 CMakeFiles/BrewTroller-OT_DX1_STEAMPWM.elf.dir/UIStrings.cpp.obj
                0x00000000000005d3                _ZN9UIStrings11SystemSetup16TempSensorAssign9WATER_OUTE
 .progmem.data._ZN9UIStrings11SystemSetup16TempSensorAssign8WATER_INE
                0x00000000000005db        0x7 CMakeFiles/BrewTroller-OT_DX1_STEAMPWM.elf.dir/UIStrings.cpp.obj
                0x00000000000005db                _ZN9UIStrings11SystemSetup16TempSensorAssign8WATER_INE
 .progmem.data._ZN9UIStrings11SystemSetup16TempSensorAssign11BREW_KETTLEE
                0x00000000000005e2        0xc CMakeFiles/BrewTroller-OT_DX1_STEAMPWM.elf.dir/UIStrings.cpp.obj
                0x00000000000005e2                _ZN9UIStrings11SystemSetup16TempSensorAssign11BREW_KETTLEE
 .progmem.data._ZN9UIStrings11SystemSetup8TITLE_VSE
                0x00000000000005ee        0x6 CMakeFiles/BrewTroller-OT_DX1_STEAMPWM.elf.dir/UIStrings.cpp.obj
                0x00000000000005ee                _ZN9UIStrings11SystemSetup8TITLE_VSE
 .progmem.data._ZN9UIStrings11SystemSetup8TRIGGERSE
                0x00000000000005f4        0x9 CMakeFiles/BrewTroller-OT_DX1_STEAMPWM.elf.dir/UIStrings.cpp.obj
                0x00000000000005f4                _ZN9UIStrings11SystemSetup8TRIGGERSE
 .progmem.data._ZN9UIStrings11SystemSetup9DISPLAY_SE
                0x00000000000005fd        0x8 CMakeFiles/BrewTroller-OT_DX1_STEAMPWM.elf.dir/UIStrings.cpp.obj
                0x00000000000005fd                _ZN9UIStrings11SystemSetup9DISPLAY_SE
 .progmem.data._ZN9UIStrings11SystemSetup13RS485_OUTPUTSE
                0x0000000000000605        0xe CMakeFiles/BrewTroller-OT_DX1_STEAMPWM.elf.dir/UIStrings.cpp.obj
                0x0000000000000605                _ZN9UIStrings11SystemSetup13RS485_OUTPUTSE
 .progmem.data._ZN9UIStrings11SystemSetup14VALVE_PROFILESE
                0x0000000000000613        0xf CMakeFiles/BrewTroller-OT_DX1_STEAMPWM.elf.dir/UIStrings.cpp.obj
                0x0000000000000613                _ZN9UIStrings11SystemSetup14VALVE_PROFILESE
 .progmem.data._ZN9UIStrings11SystemSetup9VOLS_CAPSE
                0x0000000000000622       0x10 CMakeFiles/BrewTroller-OT_DX1_STEAMPWM.elf.dir/UIStrings.cpp.obj
                0x0000000000000622                _ZN9UIStrings11SystemSetup9VOLS_CAPSE
 .progmem.data._ZN9UIStrings11SystemSetup7OUTPUTSE
                0x0000000000000632        0x8 CMakeFiles/BrewTroller-OT_DX1_STEAMPWM.elf.dir/UIStrings.cpp.obj
                0x0000000000000632                _ZN9UIStrings11SystemSetup7OUTPUTSE
 .progmem.data._ZN9UIStrings11SystemSetup12TEMP_SENSORSE
                0x000000000000063a       0x14 CMakeFiles/BrewTroller-OT_DX1_STEAMPWM.elf.dir/UIStrings.cpp.obj
                0x000000000000063a                _ZN9UIStrings11SystemSetup12TEMP_SENSORSE
 .progmem.data._ZN9UIStrings5Timer9TIMER_SEPE
                0x000000000000064e        0x5 CMakeFiles/BrewTroller-OT_DX1_STEAMPWM.elf.dir/UIStrings.cpp.obj
                0x000000000000064e                _ZN9UIStrings5Timer9TIMER_SEPE
 .progmem.data._ZN9UIStrings12DeleteDialog11DELETE_ITEME
                0x0000000000000653        0xd CMakeFiles/BrewTroller-OT_DX1_STEAMPWM.elf.dir/UIStrings.cpp.obj
                0x0000000000000653                _ZN9UIStrings12DeleteDialog11DELETE_ITEME
 .progmem.data._ZN9UIStrings11AbortDialog5RESETE
                0x0000000000000660        0x6 CMakeFiles/BrewTroller-OT_DX1_STEAMPWM.elf.dir/UIStrings.cpp.obj
                0x0000000000000660                _ZN9UIStrings11AbortDialog5RESETE
 .progmem.data._ZN9UIStrings11AbortDialog9ABORT_OP3E
                0x0000000000000666       0x14 CMakeFiles/BrewTroller-OT_DX1_STEAMPWM.elf.dir/UIStrings.cpp.obj
                0x0000000000000666                _ZN9UIStrings11AbortDialog9ABORT_OP3E
 .progmem.data._ZN9UIStrings11AbortDialog9ABORT_OP2E
                0x000000000000067a       0x11 CMakeFiles/BrewTroller-OT_DX1_STEAMPWM.elf.dir/UIStrings.cpp.obj
                0x000000000000067a                _ZN9UIStrings11AbortDialog9ABORT_OP2E
 .progmem.data._ZN9UIStrings11AbortDialog9ABORT_OP1E
                0x000000000000068b       0x14 CMakeFiles/BrewTroller-OT_DX1_STEAMPWM.elf.dir/UIStrings.cpp.obj
                0x000000000000068b                _ZN9UIStrings11AbortDialog9ABORT_OP1E
 .progmem.data._ZN9UIStrings5EStop11CLEAR_ESTOPE
                0x000000000000069f        0xe CMakeFiles/BrewTroller-OT_DX1_STEAMPWM.elf.dir/UIStrings.cpp.obj
                0x000000000000069f                _ZN9UIStrings5EStop11CLEAR_ESTOPE
 .progmem.data._ZN9UIStrings5EStop11CLEAR_ALARME
                0x00000000000006ad        0xd CMakeFiles/BrewTroller-OT_DX1_STEAMPWM.elf.dir/UIStrings.cpp.obj
                0x00000000000006ad                _ZN9UIStrings5EStop11CLEAR_ALARME
 .progmem.data._ZN9UIStrings5EStop15ESTOP_TRIGGEREDE
                0x00000000000006ba       0x11 CMakeFiles/BrewTroller-OT_DX1_STEAMPWM.elf.dir/UIStrings.cpp.obj
                0x00000000000006ba                _ZN9UIStrings5EStop15ESTOP_TRIGGEREDE
 .progmem.data._ZN9UIStrings6Vessel15TITLE_VS_KETTLEE
                0x00000000000006cb        0x7 CMakeFiles/BrewTroller-OT_DX1_STEAMPWM.elf.dir/UIStrings.cpp.obj
                0x00000000000006cb                _ZN9UIStrings6Vessel15TITLE_VS_KETTLEE
 .progmem.data._ZN9UIStrings6Vessel13TITLE_VS_MASHE
                0x00000000000006d2        0x5 CMakeFiles/BrewTroller-OT_DX1_STEAMPWM.elf.dir/UIStrings.cpp.obj
                0x00000000000006d2                _ZN9UIStrings6Vessel13TITLE_VS_MASHE
 .progmem.data._ZN9UIStrings6Vessel12TITLE_VS_HLTE
                0x00000000000006d7        0x4 CMakeFiles/BrewTroller-OT_DX1_STEAMPWM.elf.dir/UIStrings.cpp.obj
                0x00000000000006d7                _ZN9UIStrings6Vessel12TITLE_VS_HLTE
 .progmem.data._ZN9UIStrings7Program9StepError11FAILED_ADV2E
                0x00000000000006db        0x9 CMakeFiles/BrewTroller-OT_DX1_STEAMPWM.elf.dir/UIStrings.cpp.obj
                0x00000000000006db                _ZN9UIStrings7Program9StepError11FAILED_ADV2E
 .progmem.data._ZN9UIStrings7Program9StepError11FAILED_ADV1E
                0x00000000000006e4       0x12 CMakeFiles/BrewTroller-OT_DX1_STEAMPWM.elf.dir/UIStrings.cpp.obj
                0x00000000000006e4                _ZN9UIStrings7Program9StepError11FAILED_ADV1E
 .progmem.data._ZN9UIStrings7Program11BoilWarning13BOIL_CAP_WARNE
                0x00000000000006f6       0x14 CMakeFiles/BrewTroller-OT_DX1_STEAMPWM.elf.dir/UIStrings.cpp.obj
                0x00000000000006f6                _ZN9UIStrings7Program11BoilWarning13BOIL_CAP_WARNE
 .progmem.data._ZN9UIStrings7Program11MashWarning13MASH_CAP_WARNE
                0x000000000000070a       0x14 CMakeFiles/BrewTroller-OT_DX1_STEAMPWM.elf.dir/UIStrings.cpp.obj
                0x000000000000070a                _ZN9UIStrings7Program11MashWarning13MASH_CAP_WARNE
 .progmem.data._ZN9UIStrings7Program10HLTWarning12HLT_CAP_WARNE
                0x000000000000071e       0x13 CMakeFiles/BrewTroller-OT_DX1_STEAMPWM.elf.dir/UIStrings.cpp.obj
                0x000000000000071e                _ZN9UIStrings7Program10HLTWarning12HLT_CAP_WARNE
 .progmem.data._ZN9UIStrings7Program11HopSchedule10MIN_3SPACEE
                0x0000000000000731        0x7 CMakeFiles/BrewTroller-OT_DX1_STEAMPWM.elf.dir/UIStrings.cpp.obj
                0x0000000000000731                _ZN9UIStrings7Program11HopSchedule10MIN_3SPACEE
 .progmem.data._ZN9UIStrings7Program11HopSchedule10MIN_2SPACEE
                0x0000000000000738        0x6 CMakeFiles/BrewTroller-OT_DX1_STEAMPWM.elf.dir/UIStrings.cpp.obj
                0x0000000000000738                _ZN9UIStrings7Program11HopSchedule10MIN_2SPACEE
 .progmem.data._ZN9UIStrings7Program11HopSchedule9MIN_SPACEE
                0x000000000000073e        0x5 CMakeFiles/BrewTroller-OT_DX1_STEAMPWM.elf.dir/UIStrings.cpp.obj
                0x000000000000073e                _ZN9UIStrings7Program11HopSchedule9MIN_SPACEE
 .progmem.data._ZN9UIStrings7Program11HopSchedule7AT_BOILE
                0x0000000000000743        0x8 CMakeFiles/BrewTroller-OT_DX1_STEAMPWM.elf.dir/UIStrings.cpp.obj
                0x0000000000000743                _ZN9UIStrings7Program11HopSchedule7AT_BOILE
 .progmem.data._ZN9UIStrings7Program11ProgramMenu10GRAIN_LOSSE
                0x000000000000074b        0xc CMakeFiles/BrewTroller-OT_DX1_STEAMPWM.elf.dir/UIStrings.cpp.obj
                0x000000000000074b                _ZN9UIStrings7Program11ProgramMenu10GRAIN_LOSSE
 .progmem.data._ZN9UIStrings7Program11ProgramMenu9GRAIN_VOLE
                0x0000000000000757        0xb CMakeFiles/BrewTroller-OT_DX1_STEAMPWM.elf.dir/UIStrings.cpp.obj
                0x0000000000000757                _ZN9UIStrings7Program11ProgramMenu9GRAIN_VOLE
 .progmem.data._ZN9UIStrings7Program11ProgramMenu11PREBOIL_VOLE
                0x0000000000000762        0xd CMakeFiles/BrewTroller-OT_DX1_STEAMPWM.elf.dir/UIStrings.cpp.obj
                0x0000000000000762                _ZN9UIStrings7Program11ProgramMenu11PREBOIL_VOLE
 .progmem.data._ZN9UIStrings7Program11ProgramMenu10SPARGE_VOLE
                0x000000000000076f        0xc CMakeFiles/BrewTroller-OT_DX1_STEAMPWM.elf.dir/UIStrings.cpp.obj
                0x000000000000076f                _ZN9UIStrings7Program11ProgramMenu10SPARGE_VOLE
 .progmem.data._ZN9UIStrings7Program11ProgramMenu10STRIKE_VOLE
                0x000000000000077b        0xc CMakeFiles/BrewTroller-OT_DX1_STEAMPWM.elf.dir/UIStrings.cpp.obj
                0x000000000000077b                _ZN9UIStrings7Program11ProgramMenu10STRIKE_VOLE
 .progmem.data._ZN9UIStrings7Program11ProgramMenu11STRIKE_TEMPE
                0x0000000000000787        0xd CMakeFiles/BrewTroller-OT_DX1_STEAMPWM.elf.dir/UIStrings.cpp.obj
                0x0000000000000787                _ZN9UIStrings7Program11ProgramMenu11STRIKE_TEMPE
 .progmem.data._ZN9UIStrings7Program11ProgramMenu11RATIO_UNITSE
                0x0000000000000794        0x7 CMakeFiles/BrewTroller-OT_DX1_STEAMPWM.elf.dir/UIStrings.cpp.obj
                0x0000000000000794                _ZN9UIStrings7Program11ProgramMenu11RATIO_UNITSE
 .progmem.data._ZN9UIStrings7Program11ProgramMenu12GRAIN_WEIGHTE
                0x000000000000079b        0xd CMakeFiles/BrewTroller-OT_DX1_STEAMPWM.elf.dir/UIStrings.cpp.obj
                0x000000000000079b                _ZN9UIStrings7Program11ProgramMenu12GRAIN_WEIGHTE
 .progmem.data._ZN9UIStrings7Program11ProgramMenu12BATCH_VOLUMEE
                0x00000000000007a8        0xd CMakeFiles/BrewTroller-OT_DX1_STEAMPWM.elf.dir/UIStrings.cpp.obj
                0x00000000000007a8                _ZN9UIStrings7Program11ProgramMenu12BATCH_VOLUMEE
 .progmem.data._ZN9UIStrings7Program11ProgramMenu10PROG_CALCSE
                0x00000000000007b5        0xe CMakeFiles/BrewTroller-OT_DX1_STEAMPWM.elf.dir/UIStrings.cpp.obj
                0x00000000000007b5                _ZN9UIStrings7Program11ProgramMenu10PROG_CALCSE
 .progmem.data._ZN9UIStrings7Program11ProgramMenu5UNKWNE
                0x00000000000007c3        0x6 CMakeFiles/BrewTroller-OT_DX1_STEAMPWM.elf.dir/UIStrings.cpp.obj
                0x00000000000007c3                _ZN9UIStrings7Program11ProgramMenu5UNKWNE
 .progmem.data._ZN9UIStrings7Program11ProgramMenu4MASHE
                0x00000000000007c9        0x5 CMakeFiles/BrewTroller-OT_DX1_STEAMPWM.elf.dir/UIStrings.cpp.obj
                0x00000000000007c9                _ZN9UIStrings7Program11ProgramMenu4MASHE
 .progmem.data._ZN9UIStrings7Program11ProgramMenu14HEAT_STRIKE_INE
                0x00000000000007ce       0x10 CMakeFiles/BrewTroller-OT_DX1_STEAMPWM.elf.dir/UIStrings.cpp.obj
                0x00000000000007ce                _ZN9UIStrings7Program11ProgramMenu14HEAT_STRIKE_INE
 .progmem.data._ZN9UIStrings7Program11ProgramMenu10MASH_SCHEDE
                0x00000000000007de        0xe CMakeFiles/BrewTroller-OT_DX1_STEAMPWM.elf.dir/UIStrings.cpp.obj
                0x00000000000007de                _ZN9UIStrings7Program11ProgramMenu10MASH_SCHEDE
 .progmem.data._ZN9UIStrings7Program11ProgramMenu10PITCH_TEMPE
                0x00000000000007ec        0xb CMakeFiles/BrewTroller-OT_DX1_STEAMPWM.elf.dir/UIStrings.cpp.obj
                0x00000000000007ec                _ZN9UIStrings7Program11ProgramMenu10PITCH_TEMPE
 .progmem.data._ZN9UIStrings7Program11ProgramMenu11SPARGE_TEMPE
                0x00000000000007f7        0xc CMakeFiles/BrewTroller-OT_DX1_STEAMPWM.elf.dir/UIStrings.cpp.obj
                0x00000000000007f7                _ZN9UIStrings7Program11ProgramMenu11SPARGE_TEMPE
 .progmem.data._ZN9UIStrings7Program11ProgramMenu8HLT_TEMPE
                0x0000000000000803        0xa CMakeFiles/BrewTroller-OT_DX1_STEAMPWM.elf.dir/UIStrings.cpp.obj
                0x0000000000000803                _ZN9UIStrings7Program11ProgramMenu8HLT_TEMPE
 .progmem.data._ZN9UIStrings7Program11ProgramMenu9NO_SPARGEE
                0x000000000000080d        0x9 CMakeFiles/BrewTroller-OT_DX1_STEAMPWM.elf.dir/UIStrings.cpp.obj
                0x000000000000080d                _ZN9UIStrings7Program11ProgramMenu9NO_SPARGEE
 .progmem.data._ZN9UIStrings7Program11ProgramMenu10RATIO_TO_1E
                0x0000000000000816        0x3 CMakeFiles/BrewTroller-OT_DX1_STEAMPWM.elf.dir/UIStrings.cpp.obj
                0x0000000000000816                _ZN9UIStrings7Program11ProgramMenu10RATIO_TO_1E
 .progmem.data._ZN9UIStrings7Program11ProgramMenu10MASH_RATIOE
                0x0000000000000819        0xb CMakeFiles/BrewTroller-OT_DX1_STEAMPWM.elf.dir/UIStrings.cpp.obj
                0x0000000000000819                _ZN9UIStrings7Program11ProgramMenu10MASH_RATIOE
 .progmem.data._ZN9UIStrings7Program11ProgramMenu11MINUTES_INDE
                0x0000000000000824        0x5 CMakeFiles/BrewTroller-OT_DX1_STEAMPWM.elf.dir/UIStrings.cpp.obj
                0x0000000000000824                _ZN9UIStrings7Program11ProgramMenu11MINUTES_INDE
 .progmem.data._ZN9UIStrings7Program11ProgramMenu8BOIL_LENE
                0x0000000000000829        0xc CMakeFiles/BrewTroller-OT_DX1_STEAMPWM.elf.dir/UIStrings.cpp.obj
                0x0000000000000829                _ZN9UIStrings7Program11ProgramMenu8BOIL_LENE
 .progmem.data._ZN9UIStrings7Program11ProgramMenu8GRAIN_WTE
                0x0000000000000835        0xa CMakeFiles/BrewTroller-OT_DX1_STEAMPWM.elf.dir/UIStrings.cpp.obj
                0x0000000000000835                _ZN9UIStrings7Program11ProgramMenu8GRAIN_WTE
 .progmem.data._ZN9UIStrings7Program11ProgramMenu9BATCH_VOLE
                0x000000000000083f        0xb CMakeFiles/BrewTroller-OT_DX1_STEAMPWM.elf.dir/UIStrings.cpp.obj
                0x000000000000083f                _ZN9UIStrings7Program11ProgramMenu9BATCH_VOLE
 .progmem.data._ZN9UIStrings7Program11ProgramMenu10START_ERR3E
                0x000000000000084a        0x8 CMakeFiles/BrewTroller-OT_DX1_STEAMPWM.elf.dir/UIStrings.cpp.obj
                0x000000000000084a                _ZN9UIStrings7Program11ProgramMenu10START_ERR3E
 .progmem.data._ZN9UIStrings7Program11ProgramMenu10START_ERR2E
                0x0000000000000852       0x13 CMakeFiles/BrewTroller-OT_DX1_STEAMPWM.elf.dir/UIStrings.cpp.obj
                0x0000000000000852                _ZN9UIStrings7Program11ProgramMenu10START_ERR2E
 .progmem.data._ZN9UIStrings7Program11ProgramMenu10START_ERR1E
                0x0000000000000865       0x15 CMakeFiles/BrewTroller-OT_DX1_STEAMPWM.elf.dir/UIStrings.cpp.obj
                0x0000000000000865                _ZN9UIStrings7Program11ProgramMenu10START_ERR1E
 .progmem.data._ZN9UIStrings7Program11ProgramMenu12START_FAILEDE
                0x000000000000087a       0x15 CMakeFiles/BrewTroller-OT_DX1_STEAMPWM.elf.dir/UIStrings.cpp.obj
                0x000000000000087a                _ZN9UIStrings7Program11ProgramMenu12START_FAILEDE
 .progmem.data._ZN9UIStrings7Program11ProgramMenu11DELAY_STARTE
                0x000000000000088f        0xc CMakeFiles/BrewTroller-OT_DX1_STEAMPWM.elf.dir/UIStrings.cpp.obj
                0x000000000000088f                _ZN9UIStrings7Program11ProgramMenu11DELAY_STARTE
 .progmem.data._ZN9UIStrings7Program11ProgramMenu5STARTE
                0x000000000000089b        0x6 CMakeFiles/BrewTroller-OT_DX1_STEAMPWM.elf.dir/UIStrings.cpp.obj
                0x000000000000089b                _ZN9UIStrings7Program11ProgramMenu5STARTE
 .progmem.data._ZN9UIStrings7Program11ProgramMenu10GRAIN_TEMPE
                0x00000000000008a1        0xb CMakeFiles/BrewTroller-OT_DX1_STEAMPWM.elf.dir/UIStrings.cpp.obj
                0x00000000000008a1                _ZN9UIStrings7Program11ProgramMenu10GRAIN_TEMPE
 .progmem.data._ZN9UIStrings7Program11ProgramMenu9EDIT_PROGE
                0x00000000000008ac        0xd CMakeFiles/BrewTroller-OT_DX1_STEAMPWM.elf.dir/UIStrings.cpp.obj
                0x00000000000008ac                _ZN9UIStrings7Program11ProgramMenu9EDIT_PROGE
 .progmem.data._ZN9UIStrings7Program11ProgramMenu9PROG_NAMEE
                0x00000000000008b9        0xe CMakeFiles/BrewTroller-OT_DX1_STEAMPWM.elf.dir/UIStrings.cpp.obj
                0x00000000000008b9                _ZN9UIStrings7Program11ProgramMenu9PROG_NAMEE
 .progmem.data._ZN9UIStrings8BoilMenu10BOIL_TIMERE
                0x00000000000008c7        0xb CMakeFiles/BrewTroller-OT_DX1_STEAMPWM.elf.dir/UIStrings.cpp.obj
                0x00000000000008c7                _ZN9UIStrings8BoilMenu10BOIL_TIMERE
 .progmem.data._ZN9UIStrings8BoilMenu10BOIL_POWERE
                0x00000000000008d2        0xb CMakeFiles/BrewTroller-OT_DX1_STEAMPWM.elf.dir/UIStrings.cpp.obj
                0x00000000000008d2                _ZN9UIStrings8BoilMenu10BOIL_POWERE
 .progmem.data._ZN9UIStrings8BoilMenu9BOIL_TEMPE
                0x00000000000008dd        0xa CMakeFiles/BrewTroller-OT_DX1_STEAMPWM.elf.dir/UIStrings.cpp.obj
                0x00000000000008dd                _ZN9UIStrings8BoilMenu9BOIL_TEMPE
 .progmem.data._ZN9UIStrings8BoilMenu9BOIL_CTRLE
                0x00000000000008e7        0xc CMakeFiles/BrewTroller-OT_DX1_STEAMPWM.elf.dir/UIStrings.cpp.obj
                0x00000000000008e7                _ZN9UIStrings8BoilMenu9BOIL_CTRLE
 .progmem.data._ZN9UIStrings10SpargeMenu17KETTLE_TARGET_VOLE
                0x00000000000008f3       0x12 CMakeFiles/BrewTroller-OT_DX1_STEAMPWM.elf.dir/UIStrings.cpp.obj
                0x00000000000008f3                _ZN9UIStrings10SpargeMenu17KETTLE_TARGET_VOLE
 .progmem.data._ZN9UIStrings10SpargeMenu13KETTLE_TARGETE
                0x0000000000000905        0xe CMakeFiles/BrewTroller-OT_DX1_STEAMPWM.elf.dir/UIStrings.cpp.obj
                0x0000000000000905                _ZN9UIStrings10SpargeMenu13KETTLE_TARGETE
 .progmem.data._ZN9UIStrings10SpargeMenu8AUTO_FLYE
                0x0000000000000913        0x9 CMakeFiles/BrewTroller-OT_DX1_STEAMPWM.elf.dir/UIStrings.cpp.obj
                0x0000000000000913                _ZN9UIStrings10SpargeMenu8AUTO_FLYE
 .progmem.data._ZN9UIStrings10SpargeMenu8AUTO_OUTE
                0x000000000000091c        0x9 CMakeFiles/BrewTroller-OT_DX1_STEAMPWM.elf.dir/UIStrings.cpp.obj
                0x000000000000091c                _ZN9UIStrings10SpargeMenu8AUTO_OUTE
 .progmem.data._ZN9UIStrings10SpargeMenu7AUTO_INE
                0x0000000000000925        0x8 CMakeFiles/BrewTroller-OT_DX1_STEAMPWM.elf.dir/UIStrings.cpp.obj
                0x0000000000000925                _ZN9UIStrings10SpargeMenu7AUTO_INE
 .progmem.data._ZN9UIStrings8MashMenu10MASH_TIMERE
                0x000000000000092d        0xb CMakeFiles/BrewTroller-OT_DX1_STEAMPWM.elf.dir/UIStrings.cpp.obj
                0x000000000000092d                _ZN9UIStrings8MashMenu10MASH_TIMERE
 .progmem.data._ZN9UIStrings8MashMenu13MASH_SETPOINTE
                0x0000000000000938        0xe CMakeFiles/BrewTroller-OT_DX1_STEAMPWM.elf.dir/UIStrings.cpp.obj
                0x0000000000000938                _ZN9UIStrings8MashMenu13MASH_SETPOINTE
 .progmem.data._ZN9UIStrings8FillMenu15MASH_TARGET_VOLE
                0x0000000000000946       0x10 CMakeFiles/BrewTroller-OT_DX1_STEAMPWM.elf.dir/UIStrings.cpp.obj
                0x0000000000000946                _ZN9UIStrings8FillMenu15MASH_TARGET_VOLE
 .progmem.data._ZN9UIStrings8FillMenu11MASH_TARGETE
                0x0000000000000956        0xc CMakeFiles/BrewTroller-OT_DX1_STEAMPWM.elf.dir/UIStrings.cpp.obj
                0x0000000000000956                _ZN9UIStrings8FillMenu11MASH_TARGETE
 .progmem.data._ZN9UIStrings8FillMenu9AUTO_FILLE
                0x0000000000000962        0xa CMakeFiles/BrewTroller-OT_DX1_STEAMPWM.elf.dir/UIStrings.cpp.obj
                0x0000000000000962                _ZN9UIStrings8FillMenu9AUTO_FILLE
 .progmem.data._ZN9UIStrings8MainMenu10DRAIN_ERR3E
                0x000000000000096c        0xa CMakeFiles/BrewTroller-OT_DX1_STEAMPWM.elf.dir/UIStrings.cpp.obj
                0x000000000000096c                _ZN9UIStrings8MainMenu10DRAIN_ERR3E
 .progmem.data._ZN9UIStrings8MainMenu10DRAIN_ERR2E
                0x0000000000000976       0x12 CMakeFiles/BrewTroller-OT_DX1_STEAMPWM.elf.dir/UIStrings.cpp.obj
                0x0000000000000976                _ZN9UIStrings8MainMenu10DRAIN_ERR2E
 .progmem.data._ZN9UIStrings8MainMenu10DRAIN_ERR1E
                0x0000000000000988       0x13 CMakeFiles/BrewTroller-OT_DX1_STEAMPWM.elf.dir/UIStrings.cpp.obj
                0x0000000000000988                _ZN9UIStrings8MainMenu10DRAIN_ERR1E
 .progmem.data._ZN9UIStrings8MainMenu12SYSTEM_SETUPE
                0x000000000000099b        0xd CMakeFiles/BrewTroller-OT_DX1_STEAMPWM.elf.dir/UIStrings.cpp.obj
                0x000000000000099b                _ZN9UIStrings8MainMenu12SYSTEM_SETUPE
 .progmem.data._ZN9UIStrings8MainMenu9RESET_ALLE
                0x00000000000009a8        0xa CMakeFiles/BrewTroller-OT_DX1_STEAMPWM.elf.dir/UIStrings.cpp.obj
                0x00000000000009a8                _ZN9UIStrings8MainMenu9RESET_ALLE
 .progmem.data._ZN9UIStrings8MainMenu13START_PROGRAME
                0x00000000000009b2        0xe CMakeFiles/BrewTroller-OT_DX1_STEAMPWM.elf.dir/UIStrings.cpp.obj
                0x00000000000009b2                _ZN9UIStrings8MainMenu13START_PROGRAME
 .progmem.data._ZN9UIStrings8MainMenu12EDIT_PROGRAME
                0x00000000000009c0        0xd CMakeFiles/BrewTroller-OT_DX1_STEAMPWM.elf.dir/UIStrings.cpp.obj
                0x00000000000009c0                _ZN9UIStrings8MainMenu12EDIT_PROGRAME
 .progmem.data._ZN9UIStrings9AUXScreen9AUX_THREEE
                0x00000000000009cd        0x5 CMakeFiles/BrewTroller-OT_DX1_STEAMPWM.elf.dir/UIStrings.cpp.obj
                0x00000000000009cd                _ZN9UIStrings9AUXScreen9AUX_THREEE
 .progmem.data._ZN9UIStrings9AUXScreen7AUX_TWOE
                0x00000000000009d2        0x5 CMakeFiles/BrewTroller-OT_DX1_STEAMPWM.elf.dir/UIStrings.cpp.obj
                0x00000000000009d2                _ZN9UIStrings9AUXScreen7AUX_TWOE
 .progmem.data._ZN9UIStrings9AUXScreen7AUX_ONEE
                0x00000000000009d7        0x5 CMakeFiles/BrewTroller-OT_DX1_STEAMPWM.elf.dir/UIStrings.cpp.obj
                0x00000000000009d7                _ZN9UIStrings9AUXScreen7AUX_ONEE
 .progmem.data._ZN9UIStrings9AUXScreen9AUX_TEMPSE
                0x00000000000009dc        0xa CMakeFiles/BrewTroller-OT_DX1_STEAMPWM.elf.dir/UIStrings.cpp.obj
                0x00000000000009dc                _ZN9UIStrings9AUXScreen9AUX_TEMPSE
 .progmem.data._ZN9UIStrings11ChillScreen10CHILL_BOTHE
                0x00000000000009e6        0xb CMakeFiles/BrewTroller-OT_DX1_STEAMPWM.elf.dir/UIStrings.cpp.obj
                0x00000000000009e6                _ZN9UIStrings11ChillScreen10CHILL_BOTHE
 .progmem.data._ZN9UIStrings11ChillScreen3OUTE
                0x00000000000009f1        0x4 CMakeFiles/BrewTroller-OT_DX1_STEAMPWM.elf.dir/UIStrings.cpp.obj
                0x00000000000009f1                _ZN9UIStrings11ChillScreen3OUTE
 .progmem.data._ZN9UIStrings11ChillScreen2INE
                0x00000000000009f5        0x3 CMakeFiles/BrewTroller-OT_DX1_STEAMPWM.elf.dir/UIStrings.cpp.obj
                0x00000000000009f5                _ZN9UIStrings11ChillScreen2INE
 .progmem.data._ZN9UIStrings11ChillScreen3H20E
                0x00000000000009f8        0x4 CMakeFiles/BrewTroller-OT_DX1_STEAMPWM.elf.dir/UIStrings.cpp.obj
                0x00000000000009f8                _ZN9UIStrings11ChillScreen3H20E
 .progmem.data._ZN9UIStrings11ChillScreen4BEERE
                0x00000000000009fc        0x5 CMakeFiles/BrewTroller-OT_DX1_STEAMPWM.elf.dir/UIStrings.cpp.obj
                0x00000000000009fc                _ZN9UIStrings11ChillScreen4BEERE
 .progmem.data._ZN9UIStrings11ChillScreen5CHILLE
                0x0000000000000a01        0x6 CMakeFiles/BrewTroller-OT_DX1_STEAMPWM.elf.dir/UIStrings.cpp.obj
                0x0000000000000a01                _ZN9UIStrings11ChillScreen5CHILLE
 .progmem.data._ZN9UIStrings10BoilScreen9BOIL_AUTOE
                0x0000000000000a07        0x7 CMakeFiles/BrewTroller-OT_DX1_STEAMPWM.elf.dir/UIStrings.cpp.obj
                0x0000000000000a07                _ZN9UIStrings10BoilScreen9BOIL_AUTOE
 .progmem.data._ZN9UIStrings10BoilScreen4BOILE
                0x0000000000000a0e        0x5 CMakeFiles/BrewTroller-OT_DX1_STEAMPWM.elf.dir/UIStrings.cpp.obj
                0x0000000000000a0e                _ZN9UIStrings10BoilScreen4BOILE
 .progmem.data._ZN9UIStrings12SpargeScreen9FLYSPARGEE
                0x0000000000000a13        0xb CMakeFiles/BrewTroller-OT_DX1_STEAMPWM.elf.dir/UIStrings.cpp.obj
                0x0000000000000a13                _ZN9UIStrings12SpargeScreen9FLYSPARGEE
 .progmem.data._ZN9UIStrings12SpargeScreen8FILLBOTHE
                0x0000000000000a1e        0xa CMakeFiles/BrewTroller-OT_DX1_STEAMPWM.elf.dir/UIStrings.cpp.obj
                0x0000000000000a1e                _ZN9UIStrings12SpargeScreen8FILLBOTHE
 .progmem.data._ZN9UIStrings12SpargeScreen6SPARGEE
                0x0000000000000a28        0x7 CMakeFiles/BrewTroller-OT_DX1_STEAMPWM.elf.dir/UIStrings.cpp.obj
                0x0000000000000a28                _ZN9UIStrings12SpargeScreen6SPARGEE
 .progmem.data._ZN9UIStrings8MashStep7ENDMASHE
                0x0000000000000a2f        0x9 CMakeFiles/BrewTroller-OT_DX1_STEAMPWM.elf.dir/UIStrings.cpp.obj
                0x0000000000000a2f                _ZN9UIStrings8MashStep7ENDMASHE
 .progmem.data._ZN9UIStrings8MashStep7MASHOUTE
                0x0000000000000a38        0x9 CMakeFiles/BrewTroller-OT_DX1_STEAMPWM.elf.dir/UIStrings.cpp.obj
                0x0000000000000a38                _ZN9UIStrings8MashStep7MASHOUTE
 .progmem.data._ZN9UIStrings8MashStep6SACCH2E
                0x0000000000000a41        0x7 CMakeFiles/BrewTroller-OT_DX1_STEAMPWM.elf.dir/UIStrings.cpp.obj
                0x0000000000000a41                _ZN9UIStrings8MashStep6SACCH2E
 .progmem.data._ZN9UIStrings8MashStep5SACCHE
                0x0000000000000a48        0x6 CMakeFiles/BrewTroller-OT_DX1_STEAMPWM.elf.dir/UIStrings.cpp.obj
                0x0000000000000a48                _ZN9UIStrings8MashStep5SACCHE
 .progmem.data._ZN9UIStrings8MashStep7PROTEINE
                0x0000000000000a4e        0x8 CMakeFiles/BrewTroller-OT_DX1_STEAMPWM.elf.dir/UIStrings.cpp.obj
                0x0000000000000a4e                _ZN9UIStrings8MashStep7PROTEINE
 .progmem.data._ZN9UIStrings8MashStep4ACIDE
                0x0000000000000a56        0x5 CMakeFiles/BrewTroller-OT_DX1_STEAMPWM.elf.dir/UIStrings.cpp.obj
                0x0000000000000a56                _ZN9UIStrings8MashStep4ACIDE
 .progmem.data._ZN9UIStrings8MashStep7DOUGHINE
                0x0000000000000a5b        0x9 CMakeFiles/BrewTroller-OT_DX1_STEAMPWM.elf.dir/UIStrings.cpp.obj
                0x0000000000000a5b                _ZN9UIStrings8MashStep7DOUGHINE
 .progmem.data._ZN9UIStrings8MashStep7PREHEATE
                0x0000000000000a64        0x8 CMakeFiles/BrewTroller-OT_DX1_STEAMPWM.elf.dir/UIStrings.cpp.obj
                0x0000000000000a64                _ZN9UIStrings8MashStep7PREHEATE
 .progmem.data._ZN9UIStrings8MashStep5DELAYE
                0x0000000000000a6c        0x6 CMakeFiles/BrewTroller-OT_DX1_STEAMPWM.elf.dir/UIStrings.cpp.obj
                0x0000000000000a6c                _ZN9UIStrings8MashStep5DELAYE
 .progmem.data._ZN9UIStrings13GrainInScreen7GRAININE
                0x0000000000000a72        0x9 CMakeFiles/BrewTroller-OT_DX1_STEAMPWM.elf.dir/UIStrings.cpp.obj
                0x0000000000000a72                _ZN9UIStrings13GrainInScreen7GRAININE
 .progmem.data._ZN9UIStrings12ValveProfile5USER3E
                0x0000000000000a7b        0xd CMakeFiles/BrewTroller-OT_DX1_STEAMPWM.elf.dir/UIStrings.cpp.obj
                0x0000000000000a7b                _ZN9UIStrings12ValveProfile5USER3E
 .progmem.data._ZN9UIStrings12ValveProfile5USER2E
                0x0000000000000a88        0xd CMakeFiles/BrewTroller-OT_DX1_STEAMPWM.elf.dir/UIStrings.cpp.obj
                0x0000000000000a88                _ZN9UIStrings12ValveProfile5USER2E
 .progmem.data._ZN9UIStrings12ValveProfile5USER1E
                0x0000000000000a95        0xd CMakeFiles/BrewTroller-OT_DX1_STEAMPWM.elf.dir/UIStrings.cpp.obj
                0x0000000000000a95                _ZN9UIStrings12ValveProfile5USER1E
 .progmem.data._ZN9UIStrings12ValveProfile10KETTLEIDLEE
                0x0000000000000aa2        0xc CMakeFiles/BrewTroller-OT_DX1_STEAMPWM.elf.dir/UIStrings.cpp.obj
                0x0000000000000aa2                _ZN9UIStrings12ValveProfile10KETTLEIDLEE
 .progmem.data._ZN9UIStrings12ValveProfile10KETTLEHEATE
                0x0000000000000aae        0xc CMakeFiles/BrewTroller-OT_DX1_STEAMPWM.elf.dir/UIStrings.cpp.obj
                0x0000000000000aae                _ZN9UIStrings12ValveProfile10KETTLEHEATE
 .progmem.data._ZN9UIStrings12ValveProfile7HLTIDLEE
                0x0000000000000aba        0x9 CMakeFiles/BrewTroller-OT_DX1_STEAMPWM.elf.dir/UIStrings.cpp.obj
                0x0000000000000aba                _ZN9UIStrings12ValveProfile7HLTIDLEE
 .progmem.data._ZN9UIStrings12ValveProfile7HLTHEATE
                0x0000000000000ac3        0x9 CMakeFiles/BrewTroller-OT_DX1_STEAMPWM.elf.dir/UIStrings.cpp.obj
                0x0000000000000ac3                _ZN9UIStrings12ValveProfile7HLTHEATE
 .progmem.data._ZN9UIStrings12ValveProfile5DRAINE
                0x0000000000000acc        0x6 CMakeFiles/BrewTroller-OT_DX1_STEAMPWM.elf.dir/UIStrings.cpp.obj
                0x0000000000000acc                _ZN9UIStrings12ValveProfile5DRAINE
 .progmem.data._ZN9UIStrings12ValveProfile10BOILRECIRCE
                0x0000000000000ad2        0xc CMakeFiles/BrewTroller-OT_DX1_STEAMPWM.elf.dir/UIStrings.cpp.obj
                0x0000000000000ad2                _ZN9UIStrings12ValveProfile10BOILRECIRCE
 .progmem.data._ZN9UIStrings12ValveProfile9CHILLBEERE
                0x0000000000000ade        0xb CMakeFiles/BrewTroller-OT_DX1_STEAMPWM.elf.dir/UIStrings.cpp.obj
                0x0000000000000ade                _ZN9UIStrings12ValveProfile9CHILLBEERE
 .progmem.data._ZN9UIStrings12ValveProfile8CHILLH2OE
                0x0000000000000ae9        0xa CMakeFiles/BrewTroller-OT_DX1_STEAMPWM.elf.dir/UIStrings.cpp.obj
                0x0000000000000ae9                _ZN9UIStrings12ValveProfile8CHILLH2OE
 .progmem.data._ZN9UIStrings12ValveProfile9KETTLELIDE
                0x0000000000000af3        0xb CMakeFiles/BrewTroller-OT_DX1_STEAMPWM.elf.dir/UIStrings.cpp.obj
                0x0000000000000af3                _ZN9UIStrings12ValveProfile9KETTLELIDE
 .progmem.data._ZN9UIStrings12ValveProfile8BOILADDSE
                0x0000000000000afe        0xf CMakeFiles/BrewTroller-OT_DX1_STEAMPWM.elf.dir/UIStrings.cpp.obj
                0x0000000000000afe                _ZN9UIStrings12ValveProfile8BOILADDSE
 .progmem.data._ZN9UIStrings12ValveProfile9SPARGEOUTE
                0x0000000000000b0d        0xb CMakeFiles/BrewTroller-OT_DX1_STEAMPWM.elf.dir/UIStrings.cpp.obj
                0x0000000000000b0d                _ZN9UIStrings12ValveProfile9SPARGEOUTE
 .progmem.data._ZN9UIStrings12ValveProfile8SPARGEINE
                0x0000000000000b18        0xa CMakeFiles/BrewTroller-OT_DX1_STEAMPWM.elf.dir/UIStrings.cpp.obj
                0x0000000000000b18                _ZN9UIStrings12ValveProfile8SPARGEINE
 .progmem.data._ZN9UIStrings12ValveProfile8MASHIDLEE
                0x0000000000000b22        0xa CMakeFiles/BrewTroller-OT_DX1_STEAMPWM.elf.dir/UIStrings.cpp.obj
                0x0000000000000b22                _ZN9UIStrings12ValveProfile8MASHIDLEE
 .progmem.data._ZN9UIStrings12ValveProfile8MASHHEATE
                0x0000000000000b2c        0xa CMakeFiles/BrewTroller-OT_DX1_STEAMPWM.elf.dir/UIStrings.cpp.obj
                0x0000000000000b2c                _ZN9UIStrings12ValveProfile8MASHHEATE
 .progmem.data._ZN9UIStrings12ValveProfile8ADDGRAINE
                0x0000000000000b36        0xa CMakeFiles/BrewTroller-OT_DX1_STEAMPWM.elf.dir/UIStrings.cpp.obj
                0x0000000000000b36                _ZN9UIStrings12ValveProfile8ADDGRAINE
 .progmem.data._ZN9UIStrings12ValveProfile8FILLMASHE
                0x0000000000000b40        0xa CMakeFiles/BrewTroller-OT_DX1_STEAMPWM.elf.dir/UIStrings.cpp.obj
                0x0000000000000b40                _ZN9UIStrings12ValveProfile8FILLMASHE
 .progmem.data._ZN9UIStrings12ValveProfile7FILLHLTE
                0x0000000000000b4a        0x9 CMakeFiles/BrewTroller-OT_DX1_STEAMPWM.elf.dir/UIStrings.cpp.obj
                0x0000000000000b4a                _ZN9UIStrings12ValveProfile7FILLHLTE
 .progmem.data._ZN9UIStrings10FillScreen6REFILLE
                0x0000000000000b53        0x7 CMakeFiles/BrewTroller-OT_DX1_STEAMPWM.elf.dir/UIStrings.cpp.obj
                0x0000000000000b53                _ZN9UIStrings10FillScreen6REFILLE
 .progmem.data._ZN9UIStrings10FillScreen4FILLE
                0x0000000000000b5a        0x5 CMakeFiles/BrewTroller-OT_DX1_STEAMPWM.elf.dir/UIStrings.cpp.obj
                0x0000000000000b5a                _ZN9UIStrings10FillScreen4FILLE
 .progmem.data._ZN9UIStrings10HomeScreen6BT_URLE
                0x0000000000000b5f       0x14 CMakeFiles/BrewTroller-OT_DX1_STEAMPWM.elf.dir/UIStrings.cpp.obj
                0x0000000000000b5f                _ZN9UIStrings10HomeScreen6BT_URLE
 .progmem.data._ZN9UIStrings10EEPROMInit11PLEASE_WAITE
                0x0000000000000b73        0xf CMakeFiles/BrewTroller-OT_DX1_STEAMPWM.elf.dir/UIStrings.cpp.obj
                0x0000000000000b73                _ZN9UIStrings10EEPROMInit11PLEASE_WAITE
 .progmem.data._ZN9UIStrings10EEPROMInit11INIT_EEPROME
                0x0000000000000b82       0x12 CMakeFiles/BrewTroller-OT_DX1_STEAMPWM.elf.dir/UIStrings.cpp.obj
                0x0000000000000b82                _ZN9UIStrings10EEPROMInit11INIT_EEPROME
 .progmem.data._ZN9UIStrings10EEPROMInit14MISSING_CONFIGE
                0x0000000000000b94        0xf CMakeFiles/BrewTroller-OT_DX1_STEAMPWM.elf.dir/UIStrings.cpp.obj
                0x0000000000000b94                _ZN9UIStrings10EEPROMInit14MISSING_CONFIGE
 .progmem.data._ZN9UIStrings6Shared6DELETEE
                0x0000000000000ba3        0x7 CMakeFiles/BrewTroller-OT_DX1_STEAMPWM.elf.dir/UIStrings.cpp.obj
                0x0000000000000ba3                _ZN9UIStrings6Shared6DELETEE
 .progmem.data._ZN9UIStrings6Shared4ZEROE
                0x0000000000000baa        0x2 CMakeFiles/BrewTroller-OT_DX1_STEAMPWM.elf.dir/UIStrings.cpp.obj
                0x0000000000000baa                _ZN9UIStrings6Shared4ZEROE
 .progmem.data._ZN9UIStrings6Shared3SECE
                0x0000000000000bac        0x2 CMakeFiles/BrewTroller-OT_DX1_STEAMPWM.elf.dir/UIStrings.cpp.obj
                0x0000000000000bac                _ZN9UIStrings6Shared3SECE
 .progmem.data._ZN9UIStrings6Shared8MASHDESCE
                0x0000000000000bae        0x9 CMakeFiles/BrewTroller-OT_DX1_STEAMPWM.elf.dir/UIStrings.cpp.obj
                0x0000000000000bae                _ZN9UIStrings6Shared8MASHDESCE
 .progmem.data._ZN9UIStrings6Shared7HLTDESCE
                0x0000000000000bb7       0x10 CMakeFiles/BrewTroller-OT_DX1_STEAMPWM.elf.dir/UIStrings.cpp.obj
                0x0000000000000bb7                _ZN9UIStrings6Shared7HLTDESCE
 .progmem.data._ZN9UIStrings6Shared12HLT_SETPOINTE
                0x0000000000000bc7        0xd CMakeFiles/BrewTroller-OT_DX1_STEAMPWM.elf.dir/UIStrings.cpp.obj
                0x0000000000000bc7                _ZN9UIStrings6Shared12HLT_SETPOINTE
 .progmem.data._ZN9UIStrings6Shared9VALVE_OFFE
                0x0000000000000bd4        0x6 CMakeFiles/BrewTroller-OT_DX1_STEAMPWM.elf.dir/UIStrings.cpp.obj
                0x0000000000000bd4                _ZN9UIStrings6Shared9VALVE_OFFE
 .progmem.data._ZN9UIStrings6Shared8VALVE_ONE
                0x0000000000000bda        0x5 CMakeFiles/BrewTroller-OT_DX1_STEAMPWM.elf.dir/UIStrings.cpp.obj
                0x0000000000000bda                _ZN9UIStrings6Shared8VALVE_ONE
 .progmem.data._ZN9UIStrings6Shared14HLT_TARGET_VOLE
                0x0000000000000bdf        0xf CMakeFiles/BrewTroller-OT_DX1_STEAMPWM.elf.dir/UIStrings.cpp.obj
                0x0000000000000bdf                _ZN9UIStrings6Shared14HLT_TARGET_VOLE
 .progmem.data._ZN9UIStrings6Shared10HLT_TARGETE
                0x0000000000000bee        0xb CMakeFiles/BrewTroller-OT_DX1_STEAMPWM.elf.dir/UIStrings.cpp.obj
                0x0000000000000bee                _ZN9UIStrings6Shared10HLT_TARGETE
 .progmem.data._ZN9UIStrings6Shared6ALLOFFE
                0x0000000000000bf9        0x8 CMakeFiles/BrewTroller-OT_DX1_STEAMPWM.elf.dir/UIStrings.cpp.obj
                0x0000000000000bf9                _ZN9UIStrings6Shared6ALLOFFE
 .progmem.data._ZN9UIStrings7Generic5EMPTYE
                0x0000000000000c01        0x1 CMakeFiles/BrewTroller-OT_DX1_STEAMPWM.elf.dir/UIStrings.cpp.obj
                0x0000000000000c01                _ZN9UIStrings7Generic5EMPTYE
 .progmem.data._ZN9UIStrings7Generic8PERC_SYME
                0x0000000000000c02        0x2 CMakeFiles/BrewTroller-OT_DX1_STEAMPWM.elf.dir/UIStrings.cpp.obj
                0x0000000000000c02                _ZN9UIStrings7Generic8PERC_SYME
 .progmem.data._ZN9UIStrings7Generic11COLON_SPACEE
                0x0000000000000c04        0x3 CMakeFiles/BrewTroller-OT_DX1_STEAMPWM.elf.dir/UIStrings.cpp.obj
                0x0000000000000c04                _ZN9UIStrings7Generic11COLON_SPACEE
 .progmem.data._ZN9UIStrings7Generic11START_TIMERE
                0x0000000000000c07        0xc CMakeFiles/BrewTroller-OT_DX1_STEAMPWM.elf.dir/UIStrings.cpp.obj
                0x0000000000000c07                _ZN9UIStrings7Generic11START_TIMERE
 .progmem.data._ZN9UIStrings7Generic11PAUSE_TIMERE
                0x0000000000000c13        0xc CMakeFiles/BrewTroller-OT_DX1_STEAMPWM.elf.dir/UIStrings.cpp.obj
                0x0000000000000c13                _ZN9UIStrings7Generic11PAUSE_TIMERE
 .progmem.data._ZN9UIStrings7Generic9SET_TIMERE
                0x0000000000000c1f        0xa CMakeFiles/BrewTroller-OT_DX1_STEAMPWM.elf.dir/UIStrings.cpp.obj
                0x0000000000000c1f                _ZN9UIStrings7Generic9SET_TIMERE
 .progmem.data._ZN9UIStrings7Generic6MANUALE
                0x0000000000000c29        0x7 CMakeFiles/BrewTroller-OT_DX1_STEAMPWM.elf.dir/UIStrings.cpp.obj
                0x0000000000000c29                _ZN9UIStrings7Generic6MANUALE
 .progmem.data._ZN9UIStrings7Generic4AUTOE
                0x0000000000000c30        0x5 CMakeFiles/BrewTroller-OT_DX1_STEAMPWM.elf.dir/UIStrings.cpp.obj
                0x0000000000000c30                _ZN9UIStrings7Generic4AUTOE
 .progmem.data._ZN9UIStrings7Generic8VOLBLANKE
                0x0000000000000c35        0x7 CMakeFiles/BrewTroller-OT_DX1_STEAMPWM.elf.dir/UIStrings.cpp.obj
                0x0000000000000c35                _ZN9UIStrings7Generic8VOLBLANKE
 .progmem.data._ZN9UIStrings7Generic9TEMPBLANKE
                0x0000000000000c3c        0x5 CMakeFiles/BrewTroller-OT_DX1_STEAMPWM.elf.dir/UIStrings.cpp.obj
                0x0000000000000c3c                _ZN9UIStrings7Generic9TEMPBLANKE
 .progmem.data._ZN9UIStrings7Generic3OFFE
                0x0000000000000c41        0x4 CMakeFiles/BrewTroller-OT_DX1_STEAMPWM.elf.dir/UIStrings.cpp.obj
                0x0000000000000c41                _ZN9UIStrings7Generic3OFFE
 .progmem.data._ZN9UIStrings7Generic2ONE
                0x0000000000000c45        0x3 CMakeFiles/BrewTroller-OT_DX1_STEAMPWM.elf.dir/UIStrings.cpp.obj
                0x0000000000000c45                _ZN9UIStrings7Generic2ONE
 .progmem.data._ZN9UIStrings7Generic5COLONE
                0x0000000000000c48        0x2 CMakeFiles/BrewTroller-OT_DX1_STEAMPWM.elf.dir/UIStrings.cpp.obj
                0x0000000000000c48                _ZN9UIStrings7Generic5COLONE
 .progmem.data._ZN9UIStrings7Generic8LESS_SYME
                0x0000000000000c4a        0x2 CMakeFiles/BrewTroller-OT_DX1_STEAMPWM.elf.dir/UIStrings.cpp.obj
                0x0000000000000c4a                _ZN9UIStrings7Generic8LESS_SYME
 .progmem.data._ZN9UIStrings7Generic11GREATER_SYME
                0x0000000000000c4c        0x2 CMakeFiles/BrewTroller-OT_DX1_STEAMPWM.elf.dir/UIStrings.cpp.obj
                0x0000000000000c4c                _ZN9UIStrings7Generic11GREATER_SYME
 .progmem.data._ZN9UIStrings7Generic6ACTUALE
                0x0000000000000c4e        0x7 CMakeFiles/BrewTroller-OT_DX1_STEAMPWM.elf.dir/UIStrings.cpp.obj
                0x0000000000000c4e                _ZN9UIStrings7Generic6ACTUALE
 .progmem.data._ZN9UIStrings7Generic6TARGETE
                0x0000000000000c55        0x7 CMakeFiles/BrewTroller-OT_DX1_STEAMPWM.elf.dir/UIStrings.cpp.obj
                0x0000000000000c55                _ZN9UIStrings7Generic6TARGETE
 .progmem.data._ZN9UIStrings7Generic8CONTINUEE
                0x0000000000000c5c        0x9 CMakeFiles/BrewTroller-OT_DX1_STEAMPWM.elf.dir/UIStrings.cpp.obj
                0x0000000000000c5c                _ZN9UIStrings7Generic8CONTINUEE
 .progmem.data._ZN9UIStrings7Generic5SPACEE
                0x0000000000000c65        0x2 CMakeFiles/BrewTroller-OT_DX1_STEAMPWM.elf.dir/UIStrings.cpp.obj
                0x0000000000000c65                _ZN9UIStrings7Generic5SPACEE
 .progmem.data._ZN9UIStrings7Generic4MENUE
                0x0000000000000c67        0x5 CMakeFiles/BrewTroller-OT_DX1_STEAMPWM.elf.dir/UIStrings.cpp.obj
                0x0000000000000c67                _ZN9UIStrings7Generic4MENUE
 .progmem.data._ZN9UIStrings7Generic5ABORTE
                0x0000000000000c6c        0x6 CMakeFiles/BrewTroller-OT_DX1_STEAMPWM.elf.dir/UIStrings.cpp.obj
                0x0000000000000c6c                _ZN9UIStrings7Generic5ABORTE
 .progmem.data._ZN9UIStrings7Generic4EXITE
                0x0000000000000c72        0x5 CMakeFiles/BrewTroller-OT_DX1_STEAMPWM.elf.dir/UIStrings.cpp.obj
                0x0000000000000c72                _ZN9UIStrings7Generic4EXITE
 .progmem.data._ZN9UIStrings7Generic6CANCELE
                0x0000000000000c77        0x7 CMakeFiles/BrewTroller-OT_DX1_STEAMPWM.elf.dir/UIStrings.cpp.obj
                0x0000000000000c77                _ZN9UIStrings7Generic6CANCELE
 .progmem.data._ZN9UIStrings7Generic2OKE
                0x0000000000000c7e        0x3 CMakeFiles/BrewTroller-OT_DX1_STEAMPWM.elf.dir/UIStrings.cpp.obj
                0x0000000000000c7e                _ZN9UIStrings7Generic2OKE
 .progmem.data._ZN9UIStrings7Generic5BTVERE
                0x0000000000000c81        0xa CMakeFiles/BrewTroller-OT_DX1_STEAMPWM.elf.dir/UIStrings.cpp.obj
                0x0000000000000c81                _ZN9UIStrings7Generic5BTVERE
 .progmem.data._ZN9UIStrings7Generic2BTE
                0x0000000000000c8b        0xc CMakeFiles/BrewTroller-OT_DX1_STEAMPWM.elf.dir/UIStrings.cpp.obj
                0x0000000000000c8b                _ZN9UIStrings7Generic2BTE
 .progmem.data.digital_pin_to_timer_PGM
                0x0000000000000c97       0x20 ../lib/libBT-libs.a(wiring_digital.c.obj)
                0x0000000000000c97                digital_pin_to_timer_PGM
 .progmem.data.digital_pin_to_bit_mask_PGM
                0x0000000000000cb7       0x20 ../lib/libBT-libs.a(wiring_digital.c.obj)
                0x0000000000000cb7                digital_pin_to_bit_mask_PGM
 .progmem.data.digital_pin_to_port_PGM
                0x0000000000000cd7       0x20 ../lib/libBT-libs.a(wiring_digital.c.obj)
                0x0000000000000cd7                digital_pin_to_port_PGM
 .progmem.data.port_to_input_PGM
                0x0000000000000cf7        0xa ../lib/libBT-libs.a(wiring_digital.c.obj)
                0x0000000000000cf7                port_to_input_PGM
 .progmem.data.port_to_output_PGM
                0x0000000000000d01        0xa ../lib/libBT-libs.a(wiring_digital.c.obj)
                0x0000000000000d01                port_to_output_PGM
 .progmem.data.port_to_mode_PGM
                0x0000000000000d0b        0xa ../lib/libBT-libs.a(wiring_digital.c.obj)
                0x0000000000000d0b                port_to_mode_PGM
 .progmem.data.digitalpin_to_pcint_PGM
                0x0000000000000d15       0x20 ../lib/libBT-libs.a(pin.cpp.obj)
                0x0000000000000d15                digitalpin_to_pcint_PGM
                0x0000000000000d36                . = ALIGN (0x2)
 *fill*         0x0000000000000d35        0x1 
                0x0000000000000d36                __trampolines_start = .
 *(.trampolines)
 .trampolines   0x0000000000000d36        0x0 linker stubs
 *(.trampolines*)
                0x0000000000000d36                __trampolines_end = .
 *(.jumptables)
 *(.jumptables*)
 *(.lowtext)
 *(.lowtext*)
                0x0000000000000d36                __ctors_start = .
 *(.ctors)
 .ctors         0x0000000000000d36        0x2 CMakeFiles/BrewTroller-OT_DX1_STEAMPWM.elf.dir/BrewTroller.cpp.obj
 .ctors         0x0000000000000d38        0x2 CMakeFiles/BrewTroller-OT_DX1_STEAMPWM.elf.dir/Com.cpp.obj
 .ctors         0x0000000000000d3a        0x2 CMakeFiles/BrewTroller-OT_DX1_STEAMPWM.elf.dir/Temp.cpp.obj
 .ctors         0x0000000000000d3c        0x2 CMakeFiles/BrewTroller-OT_DX1_STEAMPWM.elf.dir/Timer.cpp.obj
 .ctors         0x0000000000000d3e        0x2 ../lib/libBT-libs.a(HardwareSerial.cpp.obj)
 .ctors         0x0000000000000d40        0x2 ../lib/libBT-libs.a(Wire.cpp.obj)
 .ctors         0x0000000000000d42        0x2 ../lib/libBT-libs.a(encoder.cpp.obj)
 .ctors         0x0000000000000d44        0x2 ../lib/libBT-libs.a(pin.cpp.obj)
 .ctors         0x0000000000000d46        0x2 ../lib/libBT-libs.a(ModbusMaster.cpp.obj)
                0x0000000000000d48                __ctors_end = .
                0x0000000000000d48                __dtors_start = .
 *(.dtors)
 .dtors         0x0000000000000d48        0x2 CMakeFiles/BrewTroller-OT_DX1_STEAMPWM.elf.dir/BrewTroller.cpp.obj
                0x0000000000000d4a                __dtors_end = .
 SORT(*)(.ctors)
 SORT(*)(.dtors)
 *(.init0)
 .init0         0x0000000000000d4a        0x0 /usr/lib/gcc/avr/4.8.2/../../../avr/lib/avr51/crtm1284p.o
                0x0000000000000d4a                __init
 *(.init0)
 *(.init1)
 *(.init1)
 *(.init2)
 .init2         0x0000000000000d4a        0xc /usr/lib/gcc/avr/4.8.2/../../../avr/lib/avr51/crtm1284p.o
 *(.init2)
 *(.init3)
 *(.init3)
 *(.init4)
 .init4         0x0000000000000d56       0x1a /usr/lib/gcc/avr/4.8.2/avr51/libgcc.a(_copy_data.o)
                0x0000000000000d56                __do_copy_data
 .init4         0x0000000000000d70       0x10 /usr/lib/gcc/avr/4.8.2/avr51/libgcc.a(_clear_bss.o)
                0x0000000000000d70                __do_clear_bss
 *(.init4)
 *(.init5)
 *(.init5)
 *(.init6)
 .init6         0x0000000000000d80       0x20 /usr/lib/gcc/avr/4.8.2/avr51/libgcc.a(_ctors.o)
                0x0000000000000d80                __do_global_ctors
 *(.init6)
 *(.init7)
 *(.init7)
 *(.init8)
 *(.init8)
 *(.init9)
 .init9         0x0000000000000da0        0x6 /usr/lib/gcc/avr/4.8.2/../../../avr/lib/avr51/crtm1284p.o
 *(.init9)
 *(.text)
 .text          0x0000000000000da6        0x2 /usr/lib/gcc/avr/4.8.2/../../../avr/lib/avr51/crtm1284p.o
                0x0000000000000da6                __vector_22
                0x0000000000000da6                __vector_32
                0x0000000000000da6                __vector_34
                0x0000000000000da6                __vector_24
                0x0000000000000da6                __vector_12
                0x0000000000000da6                __bad_interrupt
                0x0000000000000da6                __vector_31
                0x0000000000000da6                __vector_23
                0x0000000000000da6                __vector_30
                0x0000000000000da6                __vector_25
                0x0000000000000da6                __vector_11
                0x0000000000000da6                __vector_13
                0x0000000000000da6                __vector_17
                0x0000000000000da6                __vector_19
                0x0000000000000da6                __vector_27
                0x0000000000000da6                __vector_33
                0x0000000000000da6                __vector_9
                0x0000000000000da6                __vector_15
                0x0000000000000da6                __vector_8
                0x0000000000000da6                __vector_14
                0x0000000000000da6                __vector_10
                0x0000000000000da6                __vector_16
                0x0000000000000da8                . = ALIGN (0x2)
 *(.text.*)
 .text._ZN7TwoWire5writeEi
                0x0000000000000da8       0x10 CMakeFiles/BrewTroller-OT_DX1_STEAMPWM.elf.dir/BrewCore.cpp.obj
                0x0000000000000da8                _ZN7TwoWire5writeEi
 .text._Z9heartbeatv
                0x0000000000000db8       0x4c CMakeFiles/BrewTroller-OT_DX1_STEAMPWM.elf.dir/BrewCore.cpp.obj
                0x0000000000000db8                _Z9heartbeatv
 .text._ZN6LCDI2C6updateEv
                0x0000000000000e04       0xe6 CMakeFiles/BrewTroller-OT_DX1_STEAMPWM.elf.dir/BrewCore.cpp.obj
                0x0000000000000e04                _ZN6LCDI2C6updateEv
 .text._Z8brewCorev
                0x0000000000000eea       0x66 CMakeFiles/BrewTroller-OT_DX1_STEAMPWM.elf.dir/BrewCore.cpp.obj
                0x0000000000000eea                _Z8brewCorev
 .text.setup    0x0000000000000f50       0xa6 CMakeFiles/BrewTroller-OT_DX1_STEAMPWM.elf.dir/BrewTroller.cpp.obj
                0x0000000000000f50                setup
 .text.loop     0x0000000000000ff6        0x6 CMakeFiles/BrewTroller-OT_DX1_STEAMPWM.elf.dir/BrewTroller.cpp.obj
                0x0000000000000ff6                loop
 .text.startup.main
                0x0000000000000ffc       0x16 CMakeFiles/BrewTroller-OT_DX1_STEAMPWM.elf.dir/BrewTroller.cpp.obj
                0x0000000000000ffc                main
 .text.startup._GLOBAL__sub_I_softReset
                0x0000000000001012       0x86 CMakeFiles/BrewTroller-OT_DX1_STEAMPWM.elf.dir/BrewTroller.cpp.obj
 .text.exit._GLOBAL__sub_D_softReset
                0x0000000000001098        0x8 CMakeFiles/BrewTroller-OT_DX1_STEAMPWM.elf.dir/BrewTroller.cpp.obj
 .text._Z12printFieldULm
                0x00000000000010a0       0x1c CMakeFiles/BrewTroller-OT_DX1_STEAMPWM.elf.dir/Com.cpp.obj
                0x00000000000010a0                _Z12printFieldULm
 .text._Z12printFieldPSPKc
                0x00000000000010bc       0x32 CMakeFiles/BrewTroller-OT_DX1_STEAMPWM.elf.dir/Com.cpp.obj
                0x00000000000010bc                _Z12printFieldPSPKc
 .text._Z15logASCIIVersionv
                0x00000000000010ee       0x4c CMakeFiles/BrewTroller-OT_DX1_STEAMPWM.elf.dir/Com.cpp.obj
                0x00000000000010ee                _Z15logASCIIVersionv
 .text._Z7comInitv
                0x000000000000113a       0x1a CMakeFiles/BrewTroller-OT_DX1_STEAMPWM.elf.dir/Com.cpp.obj
                0x000000000000113a                _Z7comInitv
 .text._ZN5BTnicC2Ev
                0x0000000000001154       0x14 CMakeFiles/BrewTroller-OT_DX1_STEAMPWM.elf.dir/Com.cpp.obj
                0x0000000000001154                _ZN5BTnicC2Ev
                0x0000000000001154                _ZN5BTnicC1Ev
 .text._ZN5BTnic2txEv
                0x0000000000001168       0x32 CMakeFiles/BrewTroller-OT_DX1_STEAMPWM.elf.dir/Com.cpp.obj
                0x0000000000001168                _ZN5BTnic2txEv
 .text._ZN5BTnic8getStateEv
                0x000000000000119a       0x2c CMakeFiles/BrewTroller-OT_DX1_STEAMPWM.elf.dir/Com.cpp.obj
                0x000000000000119a                _ZN5BTnic8getStateEv
 .text._ZN5BTnic8logFieldEPc
                0x00000000000011c6       0x4c CMakeFiles/BrewTroller-OT_DX1_STEAMPWM.elf.dir/Com.cpp.obj
                0x00000000000011c6                _ZN5BTnic8logFieldEPc
 .text._ZN5BTnic11logFieldCmdEhi
                0x0000000000001212       0x50 CMakeFiles/BrewTroller-OT_DX1_STEAMPWM.elf.dir/Com.cpp.obj
                0x0000000000001212                _ZN5BTnic11logFieldCmdEhi
 .text._ZN5BTnic10logField_PEPKc
                0x0000000000001262       0x54 CMakeFiles/BrewTroller-OT_DX1_STEAMPWM.elf.dir/Com.cpp.obj
                0x0000000000001262                _ZN5BTnic10logField_PEPKc
 .text._ZN5BTnic9logFieldIEm
                0x00000000000012b6       0x32 CMakeFiles/BrewTroller-OT_DX1_STEAMPWM.elf.dir/Com.cpp.obj
                0x00000000000012b6                _ZN5BTnic9logFieldIEm
 .text._ZN5BTnic10logStepPrgEv
                0x00000000000012e8       0x5a CMakeFiles/BrewTroller-OT_DX1_STEAMPWM.elf.dir/Com.cpp.obj
                0x00000000000012e8                _ZN5BTnic10logStepPrgEv
 .text._ZN5BTnic6logEndEv
                0x0000000000001342       0x3c CMakeFiles/BrewTroller-OT_DX1_STEAMPWM.elf.dir/Com.cpp.obj
                0x0000000000001342                _ZN5BTnic6logEndEv
 .text._ZN5BTnic9rejectCmdEh
                0x000000000000137e       0x6c CMakeFiles/BrewTroller-OT_DX1_STEAMPWM.elf.dir/Com.cpp.obj
                0x000000000000137e                _ZN5BTnic9rejectCmdEh
 .text._ZN5BTnic11getCmdIndexEv
                0x00000000000013ea       0xb2 CMakeFiles/BrewTroller-OT_DX1_STEAMPWM.elf.dir/Com.cpp.obj
                0x00000000000013ea                _ZN5BTnic11getCmdIndexEv
 .text._ZN5BTnic16getCmdParamCountEv
                0x000000000000149c       0x2a CMakeFiles/BrewTroller-OT_DX1_STEAMPWM.elf.dir/Com.cpp.obj
                0x000000000000149c                _ZN5BTnic16getCmdParamCountEv
 .text._ZN5BTnic11getCmdParamEhPch
                0x00000000000014c6       0x6c CMakeFiles/BrewTroller-OT_DX1_STEAMPWM.elf.dir/Com.cpp.obj
                0x00000000000014c6                _ZN5BTnic11getCmdParamEhPch
 .text._ZN5BTnic14getCmdParamNumEh
                0x0000000000001532       0x2e CMakeFiles/BrewTroller-OT_DX1_STEAMPWM.elf.dir/Com.cpp.obj
                0x0000000000001532                _ZN5BTnic14getCmdParamNumEh
 .text._ZN5BTnic7execCmdEv
                0x0000000000001560      0xe0e CMakeFiles/BrewTroller-OT_DX1_STEAMPWM.elf.dir/Com.cpp.obj
                0x0000000000001560                _ZN5BTnic7execCmdEv
 .text._ZN5BTnic2rxEh
                0x000000000000236e       0x46 CMakeFiles/BrewTroller-OT_DX1_STEAMPWM.elf.dir/Com.cpp.obj
                0x000000000000236e                _ZN5BTnic2rxEh
 .text._Z8comEventhi
                0x00000000000023b4        0x2 CMakeFiles/BrewTroller-OT_DX1_STEAMPWM.elf.dir/Com.cpp.obj
                0x00000000000023b4                _Z8comEventhi
 .text.startup._GLOBAL__sub_I__Z7comInitv
                0x00000000000023b6       0x10 CMakeFiles/BrewTroller-OT_DX1_STEAMPWM.elf.dir/Com.cpp.obj
 .text._Z14updateI2CBTnicv
                0x00000000000023c6       0x9c CMakeFiles/BrewTroller-OT_DX1_STEAMPWM.elf.dir/Com.cpp.obj
                0x00000000000023c6                _Z14updateI2CBTnicv
 .text._Z13updateS0BTnicv
                0x0000000000002462       0x68 CMakeFiles/BrewTroller-OT_DX1_STEAMPWM.elf.dir/Com.cpp.obj
                0x0000000000002462                _Z13updateS0BTnicv
 .text._Z9updateComv
                0x00000000000024ca        0x6 CMakeFiles/BrewTroller-OT_DX1_STEAMPWM.elf.dir/Com.cpp.obj
                0x00000000000024ca                _Z9updateComv
 .text._ZN5Print5writeEPKc
                0x00000000000024d0       0x2e CMakeFiles/BrewTroller-OT_DX1_STEAMPWM.elf.dir/Com_BTPD.cpp.obj
                0x00000000000024d0                _ZN5Print5writeEPKc
 .text._Z12SendTimeBTPDhhhhh
                0x00000000000024fe       0xf2 CMakeFiles/BrewTroller-OT_DX1_STEAMPWM.elf.dir/Com_BTPD.cpp.obj
                0x00000000000024fe                _Z12SendTimeBTPDhhhhh
 .text._Z10sendVsTimehhh
                0x00000000000025f0      0x1a8 CMakeFiles/BrewTroller-OT_DX1_STEAMPWM.elf.dir/Com_BTPD.cpp.obj
                0x00000000000025f0                _Z10sendVsTimehhh
 .text._Z14sendStringBTPDhPKc
                0x0000000000002798       0x3a CMakeFiles/BrewTroller-OT_DX1_STEAMPWM.elf.dir/Com_BTPD.cpp.obj
                0x0000000000002798                _Z14sendStringBTPDhPKc
 .text._Z14sendFloatsBTPDhff
                0x00000000000027d2       0x72 CMakeFiles/BrewTroller-OT_DX1_STEAMPWM.elf.dir/Com_BTPD.cpp.obj
                0x00000000000027d2                _Z14sendFloatsBTPDhff
 .text._Z10sendVsTemphhh
                0x0000000000002844       0x64 CMakeFiles/BrewTroller-OT_DX1_STEAMPWM.elf.dir/Com_BTPD.cpp.obj
                0x0000000000002844                _Z10sendVsTemphhh
 .text._Z14sendVesselTemphP6Vessel
                0x00000000000028a8       0x56 CMakeFiles/BrewTroller-OT_DX1_STEAMPWM.elf.dir/Com_BTPD.cpp.obj
                0x00000000000028a8                _Z14sendVesselTemphP6Vessel
 .text._Z10updateBTPDv
                0x00000000000028fe       0xc8 CMakeFiles/BrewTroller-OT_DX1_STEAMPWM.elf.dir/Com_BTPD.cpp.obj
                0x00000000000028fe                _Z10updateBTPDv
 .text._Z14loadVlvConfigsv
                0x00000000000029c6       0x10 CMakeFiles/BrewTroller-OT_DX1_STEAMPWM.elf.dir/EEPROM.cpp.obj
                0x00000000000029c6                _Z14loadVlvConfigsv
 .text._Z13getPIDEnabledh
                0x00000000000029d6       0x22 CMakeFiles/BrewTroller-OT_DX1_STEAMPWM.elf.dir/EEPROM.cpp.obj
                0x00000000000029d6                _Z13getPIDEnabledh
 .text._Z7getPIDph
                0x00000000000029f8       0x16 CMakeFiles/BrewTroller-OT_DX1_STEAMPWM.elf.dir/EEPROM.cpp.obj
                0x00000000000029f8                _Z7getPIDph
 .text._Z7getPIDih
                0x0000000000002a0e       0x16 CMakeFiles/BrewTroller-OT_DX1_STEAMPWM.elf.dir/EEPROM.cpp.obj
                0x0000000000002a0e                _Z7getPIDih
 .text._Z7getPIDdh
                0x0000000000002a24       0x16 CMakeFiles/BrewTroller-OT_DX1_STEAMPWM.elf.dir/EEPROM.cpp.obj
                0x0000000000002a24                _Z7getPIDdh
 .text._Z11getPIDCycleh
                0x0000000000002a3a       0x2a CMakeFiles/BrewTroller-OT_DX1_STEAMPWM.elf.dir/EEPROM.cpp.obj
                0x0000000000002a3a                _Z11getPIDCycleh
 .text._Z13getHysteresish
                0x0000000000002a64       0x2a CMakeFiles/BrewTroller-OT_DX1_STEAMPWM.elf.dir/EEPROM.cpp.obj
                0x0000000000002a64                _Z13getHysteresish
 .text._Z11getBoilTempv
                0x0000000000002a8e        0xc CMakeFiles/BrewTroller-OT_DX1_STEAMPWM.elf.dir/EEPROM.cpp.obj
                0x0000000000002a8e                _Z11getBoilTempv
 .text._Z11setBoilTemph
                0x0000000000002a9a        0xe CMakeFiles/BrewTroller-OT_DX1_STEAMPWM.elf.dir/EEPROM.cpp.obj
                0x0000000000002a9a                _Z11setBoilTemph
 .text._Z10setBoilPwrh
                0x0000000000002aa8       0x12 CMakeFiles/BrewTroller-OT_DX1_STEAMPWM.elf.dir/EEPROM.cpp.obj
                0x0000000000002aa8                _Z10setBoilPwrh
 .text._Z11setEvapRateh
                0x0000000000002aba        0xe CMakeFiles/BrewTroller-OT_DX1_STEAMPWM.elf.dir/EEPROM.cpp.obj
                0x0000000000002aba                _Z11setEvapRateh
 .text._Z11getEvapRatev
                0x0000000000002ac8        0xc CMakeFiles/BrewTroller-OT_DX1_STEAMPWM.elf.dir/EEPROM.cpp.obj
                0x0000000000002ac8                _Z11getEvapRatev
 .text._Z11setSetpointhi
                0x0000000000002ad4       0x36 CMakeFiles/BrewTroller-OT_DX1_STEAMPWM.elf.dir/EEPROM.cpp.obj
                0x0000000000002ad4                _Z11setSetpointhi
 .text._Z14setTimerStatushh
                0x0000000000002b0a       0x52 CMakeFiles/BrewTroller-OT_DX1_STEAMPWM.elf.dir/EEPROM.cpp.obj
                0x0000000000002b0a                _Z14setTimerStatushh
 .text._Z14setAlarmStatush
                0x0000000000002b5c       0x30 CMakeFiles/BrewTroller-OT_DX1_STEAMPWM.elf.dir/EEPROM.cpp.obj
                0x0000000000002b5c                _Z14setAlarmStatush
 .text._Z23eepromLoadProgramThreadhP13ProgramThread
                0x0000000000002b8c       0x18 CMakeFiles/BrewTroller-OT_DX1_STEAMPWM.elf.dir/EEPROM.cpp.obj
                0x0000000000002b8c                _Z23eepromLoadProgramThreadhP13ProgramThread
 .text._Z23eepromSaveProgramThreadhP13ProgramThread
                0x0000000000002ba4       0x18 CMakeFiles/BrewTroller-OT_DX1_STEAMPWM.elf.dir/EEPROM.cpp.obj
                0x0000000000002ba4                _Z23eepromSaveProgramThreadhP13ProgramThread
 .text._Z12setGrainTemph
                0x0000000000002bbc        0xe CMakeFiles/BrewTroller-OT_DX1_STEAMPWM.elf.dir/EEPROM.cpp.obj
                0x0000000000002bbc                _Z12setGrainTemph
 .text._Z12getGrainTempv
                0x0000000000002bca        0xc CMakeFiles/BrewTroller-OT_DX1_STEAMPWM.elf.dir/EEPROM.cpp.obj
                0x0000000000002bca                _Z12getGrainTempv
 .text._Z11setProgNamehPc
                0x0000000000002bd6       0x48 CMakeFiles/BrewTroller-OT_DX1_STEAMPWM.elf.dir/EEPROM.cpp.obj
                0x0000000000002bd6                _Z11setProgNamehPc
 .text._Z11getProgNamehPc
                0x0000000000002c1e       0x4e CMakeFiles/BrewTroller-OT_DX1_STEAMPWM.elf.dir/EEPROM.cpp.obj
                0x0000000000002c1e                _Z11getProgNamehPc
 .text._Z13setProgSpargehh
                0x0000000000002c6c       0x18 CMakeFiles/BrewTroller-OT_DX1_STEAMPWM.elf.dir/EEPROM.cpp.obj
                0x0000000000002c6c                _Z13setProgSpargehh
 .text._Z13getProgSpargeh
                0x0000000000002c84       0x20 CMakeFiles/BrewTroller-OT_DX1_STEAMPWM.elf.dir/EEPROM.cpp.obj
                0x0000000000002c84                _Z13getProgSpargeh
 .text._Z15setProgMashTemphhh
                0x0000000000002ca4       0x1c CMakeFiles/BrewTroller-OT_DX1_STEAMPWM.elf.dir/EEPROM.cpp.obj
                0x0000000000002ca4                _Z15setProgMashTemphhh
 .text._Z15getProgMashTemphh
                0x0000000000002cc0       0x26 CMakeFiles/BrewTroller-OT_DX1_STEAMPWM.elf.dir/EEPROM.cpp.obj
                0x0000000000002cc0                _Z15getProgMashTemphh
 .text._Z15setProgMashMinshhh
                0x0000000000002ce6       0x22 CMakeFiles/BrewTroller-OT_DX1_STEAMPWM.elf.dir/EEPROM.cpp.obj
                0x0000000000002ce6                _Z15setProgMashMinshhh
 .text._Z15getProgMashMinshh
                0x0000000000002d08       0x1c CMakeFiles/BrewTroller-OT_DX1_STEAMPWM.elf.dir/EEPROM.cpp.obj
                0x0000000000002d08                _Z15getProgMashMinshh
 .text._Z16setProgMLHeatSrchh
                0x0000000000002d24       0x18 CMakeFiles/BrewTroller-OT_DX1_STEAMPWM.elf.dir/EEPROM.cpp.obj
                0x0000000000002d24                _Z16setProgMLHeatSrchh
 .text._Z16getProgMLHeatSrch
                0x0000000000002d3c       0x16 CMakeFiles/BrewTroller-OT_DX1_STEAMPWM.elf.dir/EEPROM.cpp.obj
                0x0000000000002d3c                _Z16getProgMLHeatSrch
 .text._Z10setProgHLThh
                0x0000000000002d52       0x18 CMakeFiles/BrewTroller-OT_DX1_STEAMPWM.elf.dir/EEPROM.cpp.obj
                0x0000000000002d52                _Z10setProgHLThh
 .text._Z10getProgHLTh
                0x0000000000002d6a       0x20 CMakeFiles/BrewTroller-OT_DX1_STEAMPWM.elf.dir/EEPROM.cpp.obj
                0x0000000000002d6a                _Z10getProgHLTh
 .text._Z12setProgPitchhh
                0x0000000000002d8a       0x18 CMakeFiles/BrewTroller-OT_DX1_STEAMPWM.elf.dir/EEPROM.cpp.obj
                0x0000000000002d8a                _Z12setProgPitchhh
 .text._Z12getProgPitchh
                0x0000000000002da2       0x20 CMakeFiles/BrewTroller-OT_DX1_STEAMPWM.elf.dir/EEPROM.cpp.obj
                0x0000000000002da2                _Z12getProgPitchh
 .text._Z13getTriggerPinh
                0x0000000000002dc2       0x10 CMakeFiles/BrewTroller-OT_DX1_STEAMPWM.elf.dir/EEPROM.cpp.obj
                0x0000000000002dc2                _Z13getTriggerPinh
 .text._Z13setTriggerPinhh
                0x0000000000002dd2       0x14 CMakeFiles/BrewTroller-OT_DX1_STEAMPWM.elf.dir/EEPROM.cpp.obj
                0x0000000000002dd2                _Z13setTriggerPinhh
 .text._Z16getVlvModbusAddrh
                0x0000000000002de6       0x16 CMakeFiles/BrewTroller-OT_DX1_STEAMPWM.elf.dir/EEPROM.cpp.obj
                0x0000000000002de6                _Z16getVlvModbusAddrh
 .text._Z21getVlvModbusCoilCounth
                0x0000000000002dfc       0x16 CMakeFiles/BrewTroller-OT_DX1_STEAMPWM.elf.dir/EEPROM.cpp.obj
                0x0000000000002dfc                _Z21getVlvModbusCoilCounth
 .text._Z18getVlvModbusOffseth
                0x0000000000002e12       0x16 CMakeFiles/BrewTroller-OT_DX1_STEAMPWM.elf.dir/EEPROM.cpp.obj
                0x0000000000002e12                _Z18getVlvModbusOffseth
 .text._Z16setVlvModbusAddrhh
                0x0000000000002e28       0x18 CMakeFiles/BrewTroller-OT_DX1_STEAMPWM.elf.dir/EEPROM.cpp.obj
                0x0000000000002e28                _Z16setVlvModbusAddrhh
 .text._Z21setVlvModbusCoilCounthh
                0x0000000000002e40       0x18 CMakeFiles/BrewTroller-OT_DX1_STEAMPWM.elf.dir/EEPROM.cpp.obj
                0x0000000000002e40                _Z21setVlvModbusCoilCounthh
 .text._Z18setVlvModbusOffsethh
                0x0000000000002e58       0x18 CMakeFiles/BrewTroller-OT_DX1_STEAMPWM.elf.dir/EEPROM.cpp.obj
                0x0000000000002e58                _Z18setVlvModbusOffsethh
 .text._Z10initEEPROMv
                0x0000000000002e70       0xe0 CMakeFiles/BrewTroller-OT_DX1_STEAMPWM.elf.dir/EEPROM.cpp.obj
                0x0000000000002e70                _Z10initEEPROMv
 .text._Z14EEPROMreadLongi
                0x0000000000002f50       0x2a CMakeFiles/BrewTroller-OT_DX1_STEAMPWM.elf.dir/EEPROM.cpp.obj
                0x0000000000002f50                _Z14EEPROMreadLongi
 .text._Z15getProgBatchVolh
                0x0000000000002f7a        0xe CMakeFiles/BrewTroller-OT_DX1_STEAMPWM.elf.dir/EEPROM.cpp.obj
                0x0000000000002f7a                _Z15getProgBatchVolh
 .text._Z12getProgGrainh
                0x0000000000002f88        0xe CMakeFiles/BrewTroller-OT_DX1_STEAMPWM.elf.dir/EEPROM.cpp.obj
                0x0000000000002f88                _Z12getProgGrainh
 .text._Z15EEPROMwriteLongil
                0x0000000000002f96       0x2a CMakeFiles/BrewTroller-OT_DX1_STEAMPWM.elf.dir/EEPROM.cpp.obj
                0x0000000000002f96                _Z15EEPROMwriteLongil
 .text._Z11setValveCfghm
                0x0000000000002fc0       0x1c CMakeFiles/BrewTroller-OT_DX1_STEAMPWM.elf.dir/EEPROM.cpp.obj
                0x0000000000002fc0                _Z11setValveCfghm
 .text._Z15setProgBatchVolhm
                0x0000000000002fdc        0xe CMakeFiles/BrewTroller-OT_DX1_STEAMPWM.elf.dir/EEPROM.cpp.obj
                0x0000000000002fdc                _Z15setProgBatchVolhm
 .text._Z12setProgGrainhm
                0x0000000000002fea        0xe CMakeFiles/BrewTroller-OT_DX1_STEAMPWM.elf.dir/EEPROM.cpp.obj
                0x0000000000002fea                _Z12setProgGrainhm
 .text._Z13EEPROMreadInti
                0x0000000000002ff8       0x26 CMakeFiles/BrewTroller-OT_DX1_STEAMPWM.elf.dir/EEPROM.cpp.obj
                0x0000000000002ff8                _Z13EEPROMreadInti
 .text._Z15getBoilAddsTrigv
                0x000000000000301e        0x6 CMakeFiles/BrewTroller-OT_DX1_STEAMPWM.elf.dir/EEPROM.cpp.obj
                0x000000000000301e                _Z15getBoilAddsTrigv
 .text._Z12getDelayMinsv
                0x0000000000003024        0x6 CMakeFiles/BrewTroller-OT_DX1_STEAMPWM.elf.dir/EEPROM.cpp.obj
                0x0000000000003024                _Z12getDelayMinsv
 .text._Z11getProgBoilh
                0x000000000000302a        0xe CMakeFiles/BrewTroller-OT_DX1_STEAMPWM.elf.dir/EEPROM.cpp.obj
                0x000000000000302a                _Z11getProgBoilh
 .text._Z12getProgRatioh
                0x0000000000003038        0xe CMakeFiles/BrewTroller-OT_DX1_STEAMPWM.elf.dir/EEPROM.cpp.obj
                0x0000000000003038                _Z12getProgRatioh
 .text._Z11getProgAddsh
                0x0000000000003046        0xe CMakeFiles/BrewTroller-OT_DX1_STEAMPWM.elf.dir/EEPROM.cpp.obj
                0x0000000000003046                _Z11getProgAddsh
 .text._Z15getVlvModbusRegh
                0x0000000000003054        0xe CMakeFiles/BrewTroller-OT_DX1_STEAMPWM.elf.dir/EEPROM.cpp.obj
                0x0000000000003054                _Z15getVlvModbusRegh
 .text._Z13loadVlvModbush
                0x0000000000003062       0x74 CMakeFiles/BrewTroller-OT_DX1_STEAMPWM.elf.dir/EEPROM.cpp.obj
                0x0000000000003062                _Z13loadVlvModbush
 .text._Z14EEPROMwriteIntii
                0x00000000000030d6       0x26 CMakeFiles/BrewTroller-OT_DX1_STEAMPWM.elf.dir/EEPROM.cpp.obj
                0x00000000000030d6                _Z14EEPROMwriteIntii
 .text._Z16setTimerRecoveryhj
                0x00000000000030fc        0xc CMakeFiles/BrewTroller-OT_DX1_STEAMPWM.elf.dir/EEPROM.cpp.obj
                0x00000000000030fc                _Z16setTimerRecoveryhj
 .text._Z15setBoilAddsTrigj
                0x0000000000003108        0x8 CMakeFiles/BrewTroller-OT_DX1_STEAMPWM.elf.dir/EEPROM.cpp.obj
                0x0000000000003108                _Z15setBoilAddsTrigj
 .text._Z12setDelayMinsj
                0x0000000000003110        0x8 CMakeFiles/BrewTroller-OT_DX1_STEAMPWM.elf.dir/EEPROM.cpp.obj
                0x0000000000003110                _Z12setDelayMinsj
 .text._Z11setProgBoilhi
                0x0000000000003118       0x18 CMakeFiles/BrewTroller-OT_DX1_STEAMPWM.elf.dir/EEPROM.cpp.obj
                0x0000000000003118                _Z11setProgBoilhi
 .text._Z12setProgRatiohj
                0x0000000000003130        0xe CMakeFiles/BrewTroller-OT_DX1_STEAMPWM.elf.dir/EEPROM.cpp.obj
                0x0000000000003130                _Z12setProgRatiohj
 .text._Z11setProgAddshj
                0x000000000000313e        0xe CMakeFiles/BrewTroller-OT_DX1_STEAMPWM.elf.dir/EEPROM.cpp.obj
                0x000000000000313e                _Z11setProgAddshj
 .text._Z15setVlvModbusReghj
                0x000000000000314c        0xe CMakeFiles/BrewTroller-OT_DX1_STEAMPWM.elf.dir/EEPROM.cpp.obj
                0x000000000000314c                _Z15setVlvModbusReghj
 .text._Z20setVlvModbusDefaultsh
                0x000000000000315a       0x48 CMakeFiles/BrewTroller-OT_DX1_STEAMPWM.elf.dir/EEPROM.cpp.obj
                0x000000000000315a                _Z20setVlvModbusDefaultsh
 .text._Z11checkConfigv
                0x00000000000031a2       0xe6 CMakeFiles/BrewTroller-OT_DX1_STEAMPWM.elf.dir/EEPROM.cpp.obj
                0x00000000000031a2                _Z11checkConfigv
 .text._Z16EEPROMwriteBytesiPhh
                0x0000000000003288       0x3c CMakeFiles/BrewTroller-OT_DX1_STEAMPWM.elf.dir/EEPROM.cpp.obj
                0x0000000000003288                _Z16EEPROMwriteBytesiPhh
 .text._Z9setTSAddrhPh
                0x00000000000032c4       0x3a CMakeFiles/BrewTroller-OT_DX1_STEAMPWM.elf.dir/EEPROM.cpp.obj
                0x00000000000032c4                _Z9setTSAddrhPh
 .text._Z15EEPROMreadBytesiPhh
                0x00000000000032fe       0x40 CMakeFiles/BrewTroller-OT_DX1_STEAMPWM.elf.dir/EEPROM.cpp.obj
                0x00000000000032fe                _Z15EEPROMreadBytesiPhh
 .text._Z9loadSetupv
                0x000000000000333e       0xf2 CMakeFiles/BrewTroller-OT_DX1_STEAMPWM.elf.dir/EEPROM.cpp.obj
                0x000000000000333e                _Z9loadSetupv
 .text._Z12spargeMaxISRv
                0x0000000000003430       0x24 CMakeFiles/BrewTroller-OT_DX1_STEAMPWM.elf.dir/Events.cpp.obj
                0x0000000000003430                _Z12spargeMaxISRv
 .text._Z8eStopISRv
                0x0000000000003454       0x28 CMakeFiles/BrewTroller-OT_DX1_STEAMPWM.elf.dir/Events.cpp.obj
                0x0000000000003454                _Z8eStopISRv
 .text._Z9hltMinISRv
                0x000000000000347c       0x30 CMakeFiles/BrewTroller-OT_DX1_STEAMPWM.elf.dir/Events.cpp.obj
                0x000000000000347c                _Z9hltMinISRv
 .text._Z10mashMinISRv
                0x00000000000034ac       0x30 CMakeFiles/BrewTroller-OT_DX1_STEAMPWM.elf.dir/Events.cpp.obj
                0x00000000000034ac                _Z10mashMinISRv
 .text._Z12kettleMinISRv
                0x00000000000034dc       0x30 CMakeFiles/BrewTroller-OT_DX1_STEAMPWM.elf.dir/Events.cpp.obj
                0x00000000000034dc                _Z12kettleMinISRv
 .text._Z12eventHandlerhi
                0x000000000000350c      0x110 CMakeFiles/BrewTroller-OT_DX1_STEAMPWM.elf.dir/Events.cpp.obj
                0x000000000000350c                _Z12eventHandlerhi
 .text._Z12triggerSetupv
                0x000000000000361c       0x86 CMakeFiles/BrewTroller-OT_DX1_STEAMPWM.elf.dir/Events.cpp.obj
                0x000000000000361c                _Z12triggerSetupv
 .text._Z7pinInitv
                0x00000000000036a2       0x60 CMakeFiles/BrewTroller-OT_DX1_STEAMPWM.elf.dir/Outputs.cpp.obj
                0x00000000000036a2                _Z7pinInitv
 .text._Z7pidInitv
                0x0000000000003702        0x2 CMakeFiles/BrewTroller-OT_DX1_STEAMPWM.elf.dir/Outputs.cpp.obj
                0x0000000000003702                _Z7pidInitv
 .text._Z15resetHeatOutputh
                0x0000000000003704       0x1a CMakeFiles/BrewTroller-OT_DX1_STEAMPWM.elf.dir/Outputs.cpp.obj
                0x0000000000003704                _Z15resetHeatOutputh
 .text._Z18processHeatOutputsv
                0x000000000000371e       0x58 CMakeFiles/BrewTroller-OT_DX1_STEAMPWM.elf.dir/Outputs.cpp.obj
                0x000000000000371e                _Z18processHeatOutputsv
 .text._Z9setValvesm
                0x0000000000003776       0x94 CMakeFiles/BrewTroller-OT_DX1_STEAMPWM.elf.dir/Outputs.cpp.obj
                0x0000000000003776                _Z9setValvesm
 .text._Z16computeValveBitsv
                0x000000000000380a      0x14e CMakeFiles/BrewTroller-OT_DX1_STEAMPWM.elf.dir/Outputs.cpp.obj
                0x000000000000380a                _Z16computeValveBitsv
 .text._Z12updateValvesv
                0x0000000000003958        0x4 CMakeFiles/BrewTroller-OT_DX1_STEAMPWM.elf.dir/Outputs.cpp.obj
                0x0000000000003958                _Z12updateValvesv
 .text._Z12resetOutputsv
                0x000000000000395c       0x36 CMakeFiles/BrewTroller-OT_DX1_STEAMPWM.elf.dir/Outputs.cpp.obj
                0x000000000000395c                _Z12resetOutputsv
 .text._Z17vlvConfigIsActiveh
                0x0000000000003992       0x44 CMakeFiles/BrewTroller-OT_DX1_STEAMPWM.elf.dir/Outputs.cpp.obj
                0x0000000000003992                _Z17vlvConfigIsActiveh
 .text._Z8vesselAVh
                0x00000000000039d6       0x1a CMakeFiles/BrewTroller-OT_DX1_STEAMPWM.elf.dir/Outputs.cpp.obj
                0x00000000000039d6                _Z8vesselAVh
 .text._Z13vesselVLVHeath
                0x00000000000039f0       0x1a CMakeFiles/BrewTroller-OT_DX1_STEAMPWM.elf.dir/Outputs.cpp.obj
                0x00000000000039f0                _Z13vesselVLVHeath
 .text._Z13vesselVLVIdleh
                0x0000000000003a0a       0x1a CMakeFiles/BrewTroller-OT_DX1_STEAMPWM.elf.dir/Outputs.cpp.obj
                0x0000000000003a0a                _Z13vesselVLVIdleh
 .text._Z16processAutoValvev
                0x0000000000003a24      0x3b6 CMakeFiles/BrewTroller-OT_DX1_STEAMPWM.elf.dir/Outputs.cpp.obj
                0x0000000000003a24                _Z16processAutoValvev
 .text._Z16vesselMinTriggerh
                0x0000000000003dda       0x30 CMakeFiles/BrewTroller-OT_DX1_STEAMPWM.elf.dir/Outputs.cpp.obj
                0x0000000000003dda                _Z16vesselMinTriggerh
 .text._Z16autoValveBitmaskv
                0x0000000000003e0a       0x2e CMakeFiles/BrewTroller-OT_DX1_STEAMPWM.elf.dir/Outputs.cpp.obj
                0x0000000000003e0a                _Z16autoValveBitmaskv
 .text._Z12getHeatPowerh
                0x0000000000003e38       0x14 CMakeFiles/BrewTroller-OT_DX1_STEAMPWM.elf.dir/Outputs.cpp.obj
                0x0000000000003e38                _Z12getHeatPowerh
 .text._ZN9PVOutGPIOC2Eh
                0x0000000000003e4c       0x1e CMakeFiles/BrewTroller-OT_DX1_STEAMPWM.elf.dir/PVOut.cpp.obj
                0x0000000000003e4c                _ZN9PVOutGPIOC1Eh
                0x0000000000003e4c                _ZN9PVOutGPIOC2Eh
 .text._ZN9PVOutGPIOD2Ev
                0x0000000000003e6a        0xa CMakeFiles/BrewTroller-OT_DX1_STEAMPWM.elf.dir/PVOut.cpp.obj
                0x0000000000003e6a                _ZN9PVOutGPIOD1Ev
                0x0000000000003e6a                _ZN9PVOutGPIOD2Ev
 .text._ZN9PVOutGPIO5setupEhh
                0x0000000000003e74       0x1a CMakeFiles/BrewTroller-OT_DX1_STEAMPWM.elf.dir/PVOut.cpp.obj
                0x0000000000003e74                _ZN9PVOutGPIO5setupEhh
 .text._ZN9PVOutGPIO3setEm
                0x0000000000003e8e       0xae CMakeFiles/BrewTroller-OT_DX1_STEAMPWM.elf.dir/PVOut.cpp.obj
                0x0000000000003e8e                _ZN9PVOutGPIO3setEm
 .text._ZN9PVOutGPIO4initEv
                0x0000000000003f3c        0x8 CMakeFiles/BrewTroller-OT_DX1_STEAMPWM.elf.dir/PVOut.cpp.obj
                0x0000000000003f3c                _ZN9PVOutGPIO4initEv
 .text._ZN9PVOutGPIO3getEv
                0x0000000000003f44        0xc CMakeFiles/BrewTroller-OT_DX1_STEAMPWM.elf.dir/PVOut.cpp.obj
                0x0000000000003f44                _ZN9PVOutGPIO3getEv
 .text._ZN11PVOutMODBUSC2Ehjhh
                0x0000000000003f50       0x9c CMakeFiles/BrewTroller-OT_DX1_STEAMPWM.elf.dir/PVOut.cpp.obj
                0x0000000000003f50                _ZN11PVOutMODBUSC2Ehjhh
                0x0000000000003f50                _ZN11PVOutMODBUSC1Ehjhh
 .text._ZN11PVOutMODBUS3setEm
                0x0000000000003fec       0xca CMakeFiles/BrewTroller-OT_DX1_STEAMPWM.elf.dir/PVOut.cpp.obj
                0x0000000000003fec                _ZN11PVOutMODBUS3setEm
 .text._ZN11PVOutMODBUS5countEv
                0x00000000000040b6        0xa CMakeFiles/BrewTroller-OT_DX1_STEAMPWM.elf.dir/PVOut.cpp.obj
                0x00000000000040b6                _ZN11PVOutMODBUS5countEv
 .text._ZN11PVOutMODBUS6offsetEv
                0x00000000000040c0       0x10 CMakeFiles/BrewTroller-OT_DX1_STEAMPWM.elf.dir/PVOut.cpp.obj
                0x00000000000040c0                _ZN11PVOutMODBUS6offsetEv
 .text._ZN11PVOutMODBUS6detectEv
                0x00000000000040d0       0x1a CMakeFiles/BrewTroller-OT_DX1_STEAMPWM.elf.dir/PVOut.cpp.obj
                0x00000000000040d0                _ZN11PVOutMODBUS6detectEv
 .text._ZN11PVOutMODBUS7setAddrEh
                0x00000000000040ea       0x4a CMakeFiles/BrewTroller-OT_DX1_STEAMPWM.elf.dir/PVOut.cpp.obj
                0x00000000000040ea                _ZN11PVOutMODBUS7setAddrEh
 .text._ZN11PVOutMODBUS9setIDModeEh
                0x0000000000004134        0xe CMakeFiles/BrewTroller-OT_DX1_STEAMPWM.elf.dir/PVOut.cpp.obj
                0x0000000000004134                _ZN11PVOutMODBUS9setIDModeEh
 .text._ZN11PVOutMODBUS9getIDModeEv
                0x0000000000004142       0x2c CMakeFiles/BrewTroller-OT_DX1_STEAMPWM.elf.dir/PVOut.cpp.obj
                0x0000000000004142                _ZN11PVOutMODBUS9getIDModeEv
 .text._Z16brewStepIsActiveh
                0x000000000000416e       0x1c CMakeFiles/BrewTroller-OT_DX1_STEAMPWM.elf.dir/StepLogic.cpp.obj
                0x000000000000416e                _Z16brewStepIsActiveh
 .text._Z12zoneIsActiveh
                0x000000000000418a       0x1a CMakeFiles/BrewTroller-OT_DX1_STEAMPWM.elf.dir/StepLogic.cpp.obj
                0x000000000000418a                _Z12zoneIsActiveh
 .text._Z23programThreadActiveSteph
                0x00000000000041a4       0x10 CMakeFiles/BrewTroller-OT_DX1_STEAMPWM.elf.dir/StepLogic.cpp.obj
                0x00000000000041a4                _Z23programThreadActiveSteph
 .text._Z23programThreadRecipeNamehPc
                0x00000000000041b4       0x12 CMakeFiles/BrewTroller-OT_DX1_STEAMPWM.elf.dir/StepLogic.cpp.obj
                0x00000000000041b4                _Z23programThreadRecipeNamehPc
 .text._Z24programThreadRecipeIndexh
                0x00000000000041c6       0x10 CMakeFiles/BrewTroller-OT_DX1_STEAMPWM.elf.dir/StepLogic.cpp.obj
                0x00000000000041c6                _Z24programThreadRecipeIndexh
 .text._Z20programThreadAcquirev
                0x00000000000041d6       0x28 CMakeFiles/BrewTroller-OT_DX1_STEAMPWM.elf.dir/StepLogic.cpp.obj
                0x00000000000041d6                _Z20programThreadAcquirev
 .text._Z17programThreadSaveP13ProgramThread
                0x00000000000041fe       0x12 CMakeFiles/BrewTroller-OT_DX1_STEAMPWM.elf.dir/StepLogic.cpp.obj
                0x00000000000041fe                _Z17programThreadSaveP13ProgramThread
 .text._Z20programThreadSetStepP13ProgramThreadh
                0x0000000000004210       0x30 CMakeFiles/BrewTroller-OT_DX1_STEAMPWM.elf.dir/StepLogic.cpp.obj
                0x0000000000004210                _Z20programThreadSetStepP13ProgramThreadh
 .text._Z13brewStepChill10StepSignalP13ProgramThread
                0x0000000000004240       0xc8 CMakeFiles/BrewTroller-OT_DX1_STEAMPWM.elf.dir/StepLogic.cpp.obj
                0x0000000000004240                _Z13brewStepChill10StepSignalP13ProgramThread
 .text._Z12brewStepBoil10StepSignalP13ProgramThread
                0x0000000000004308      0x3a2 CMakeFiles/BrewTroller-OT_DX1_STEAMPWM.elf.dir/StepLogic.cpp.obj
                0x0000000000004308                _Z12brewStepBoil10StepSignalP13ProgramThread
 .text._Z17brewStepZoneInUseh
                0x00000000000046aa       0x24 CMakeFiles/BrewTroller-OT_DX1_STEAMPWM.elf.dir/StepLogic.cpp.obj
                0x00000000000046aa                _Z17brewStepZoneInUseh
 .text._Z17programThreadInithh
                0x00000000000046ce       0x68 CMakeFiles/BrewTroller-OT_DX1_STEAMPWM.elf.dir/StepLogic.cpp.obj
                0x00000000000046ce                _Z17programThreadInithh
 .text._Z17programThreadInith
                0x0000000000004736        0x4 CMakeFiles/BrewTroller-OT_DX1_STEAMPWM.elf.dir/StepLogic.cpp.obj
                0x0000000000004736                _Z17programThreadInith
 .text._Z19programThreadSignalP13ProgramThread10StepSignal
                0x000000000000473a       0x24 CMakeFiles/BrewTroller-OT_DX1_STEAMPWM.elf.dir/StepLogic.cpp.obj
                0x000000000000473a                _Z19programThreadSignalP13ProgramThread10StepSignal
 .text._Z18programThreadsInitv
                0x000000000000475e       0x4e CMakeFiles/BrewTroller-OT_DX1_STEAMPWM.elf.dir/StepLogic.cpp.obj
                0x000000000000475e                _Z18programThreadsInitv
 .text._Z20programThreadsUpdatev
                0x00000000000047ac       0x22 CMakeFiles/BrewTroller-OT_DX1_STEAMPWM.elf.dir/StepLogic.cpp.obj
                0x00000000000047ac                _Z20programThreadsUpdatev
 .text._Z14brewStepSignalh10StepSignal
                0x00000000000047ce       0x60 CMakeFiles/BrewTroller-OT_DX1_STEAMPWM.elf.dir/StepLogic.cpp.obj
                0x00000000000047ce                _Z14brewStepSignalh10StepSignal
 .text._Z21programThreadResetAllv
                0x000000000000482e       0x10 CMakeFiles/BrewTroller-OT_DX1_STEAMPWM.elf.dir/StepLogic.cpp.obj
                0x000000000000482e                _Z21programThreadResetAllv
 .text._Z18brewStepMashHelperh10StepSignalP13ProgramThread
                0x000000000000483e      0x186 CMakeFiles/BrewTroller-OT_DX1_STEAMPWM.elf.dir/StepLogic.cpp.obj
                0x000000000000483e                _Z18brewStepMashHelperh10StepSignalP13ProgramThread
 .text._Z15brewStepDoughIn10StepSignalP13ProgramThread
                0x00000000000049c4        0x8 CMakeFiles/BrewTroller-OT_DX1_STEAMPWM.elf.dir/StepLogic.cpp.obj
                0x00000000000049c4                _Z15brewStepDoughIn10StepSignalP13ProgramThread
 .text._Z12brewStepAcid10StepSignalP13ProgramThread
                0x00000000000049cc        0x8 CMakeFiles/BrewTroller-OT_DX1_STEAMPWM.elf.dir/StepLogic.cpp.obj
                0x00000000000049cc                _Z12brewStepAcid10StepSignalP13ProgramThread
 .text._Z15brewStepProtein10StepSignalP13ProgramThread
                0x00000000000049d4        0x8 CMakeFiles/BrewTroller-OT_DX1_STEAMPWM.elf.dir/StepLogic.cpp.obj
                0x00000000000049d4                _Z15brewStepProtein10StepSignalP13ProgramThread
 .text._Z13brewStepSacch10StepSignalP13ProgramThread
                0x00000000000049dc        0x8 CMakeFiles/BrewTroller-OT_DX1_STEAMPWM.elf.dir/StepLogic.cpp.obj
                0x00000000000049dc                _Z13brewStepSacch10StepSignalP13ProgramThread
 .text._Z14brewStepSacch210StepSignalP13ProgramThread
                0x00000000000049e4        0x8 CMakeFiles/BrewTroller-OT_DX1_STEAMPWM.elf.dir/StepLogic.cpp.obj
                0x00000000000049e4                _Z14brewStepSacch210StepSignalP13ProgramThread
 .text._Z15brewStepMashOut10StepSignalP13ProgramThread
                0x00000000000049ec        0x8 CMakeFiles/BrewTroller-OT_DX1_STEAMPWM.elf.dir/StepLogic.cpp.obj
                0x00000000000049ec                _Z15brewStepMashOut10StepSignalP13ProgramThread
 .text._Z17resetSpargeValvesv
                0x00000000000049f4       0x30 CMakeFiles/BrewTroller-OT_DX1_STEAMPWM.elf.dir/StepLogic.cpp.obj
                0x00000000000049f4                _Z17resetSpargeValvesv
 .text._Z14calcPreboilVolh
                0x0000000000004a24       0xd0 CMakeFiles/BrewTroller-OT_DX1_STEAMPWM.elf.dir/StepLogic.cpp.obj
                0x0000000000004a24                _Z14calcPreboilVolh
 .text._Z14brewStepSparge10StepSignalP13ProgramThread
                0x0000000000004af4       0x8e CMakeFiles/BrewTroller-OT_DX1_STEAMPWM.elf.dir/StepLogic.cpp.obj
                0x0000000000004af4                _Z14brewStepSparge10StepSignalP13ProgramThread
 .text._Z16brewStepMashHold10StepSignalP13ProgramThread
                0x0000000000004b82       0xe6 CMakeFiles/BrewTroller-OT_DX1_STEAMPWM.elf.dir/StepLogic.cpp.obj
                0x0000000000004b82                _Z16brewStepMashHold10StepSignalP13ProgramThread
 .text._Z13calcGrainLossh
                0x0000000000004c68       0x74 CMakeFiles/BrewTroller-OT_DX1_STEAMPWM.elf.dir/StepLogic.cpp.obj
                0x0000000000004c68                _Z13calcGrainLossh
 .text._Z13calcStrikeVolh
                0x0000000000004cdc      0x164 CMakeFiles/BrewTroller-OT_DX1_STEAMPWM.elf.dir/StepLogic.cpp.obj
                0x0000000000004cdc                _Z13calcStrikeVolh
 .text._Z13calcSpargeVolh
                0x0000000000004e40       0x82 CMakeFiles/BrewTroller-OT_DX1_STEAMPWM.elf.dir/StepLogic.cpp.obj
                0x0000000000004e40                _Z13calcSpargeVolh
 .text._Z16calcRefillVolumeh
                0x0000000000004ec2       0x2c CMakeFiles/BrewTroller-OT_DX1_STEAMPWM.elf.dir/StepLogic.cpp.obj
                0x0000000000004ec2                _Z16calcRefillVolumeh
 .text._Z14brewStepRefill10StepSignalP13ProgramThread
                0x0000000000004eee      0x180 CMakeFiles/BrewTroller-OT_DX1_STEAMPWM.elf.dir/StepLogic.cpp.obj
                0x0000000000004eee                _Z14brewStepRefill10StepSignalP13ProgramThread
 .text._Z15brewStepGrainIn10StepSignalP13ProgramThread
                0x000000000000506e      0x1c2 CMakeFiles/BrewTroller-OT_DX1_STEAMPWM.elf.dir/StepLogic.cpp.obj
                0x000000000000506e                _Z15brewStepGrainIn10StepSignalP13ProgramThread
 .text._Z15brewStepPreheat10StepSignalP13ProgramThread
                0x0000000000005230       0xc6 CMakeFiles/BrewTroller-OT_DX1_STEAMPWM.elf.dir/StepLogic.cpp.obj
                0x0000000000005230                _Z15brewStepPreheat10StepSignalP13ProgramThread
 .text._Z13brewStepDelay10StepSignalP13ProgramThread
                0x00000000000052f6       0x8e CMakeFiles/BrewTroller-OT_DX1_STEAMPWM.elf.dir/StepLogic.cpp.obj
                0x00000000000052f6                _Z13brewStepDelay10StepSignalP13ProgramThread
 .text._Z12brewStepFill10StepSignalP13ProgramThread
                0x0000000000005384      0x276 CMakeFiles/BrewTroller-OT_DX1_STEAMPWM.elf.dir/StepLogic.cpp.obj
                0x0000000000005384                _Z12brewStepFill10StepSignalP13ProgramThread
 .text._Z15calcGrainVolumeh
                0x00000000000055fa       0x74 CMakeFiles/BrewTroller-OT_DX1_STEAMPWM.elf.dir/StepLogic.cpp.obj
                0x00000000000055fa                _Z15calcGrainVolumeh
 .text._Z16getFirstStepTemph
                0x000000000000566e       0x24 CMakeFiles/BrewTroller-OT_DX1_STEAMPWM.elf.dir/StepLogic.cpp.obj
                0x000000000000566e                _Z16getFirstStepTemph
 .text._Z14calcStrikeTemph
                0x0000000000005692       0xde CMakeFiles/BrewTroller-OT_DX1_STEAMPWM.elf.dir/StepLogic.cpp.obj
                0x0000000000005692                _Z14calcStrikeTemph
 .text._Z8tempInitv
                0x0000000000005770       0x84 CMakeFiles/BrewTroller-OT_DX1_STEAMPWM.elf.dir/Temp.cpp.obj
                0x0000000000005770                _Z8tempInitv
 .text._Z7tsReadyv
                0x00000000000057f4        0xe CMakeFiles/BrewTroller-OT_DX1_STEAMPWM.elf.dir/Temp.cpp.obj
                0x00000000000057f4                _Z7tsReadyv
 .text._Z9validAddrPh
                0x0000000000005802       0x1a CMakeFiles/BrewTroller-OT_DX1_STEAMPWM.elf.dir/Temp.cpp.obj
                0x0000000000005802                _Z9validAddrPh
 .text._Z9getDSAddrPh
                0x000000000000581c       0x92 CMakeFiles/BrewTroller-OT_DX1_STEAMPWM.elf.dir/Temp.cpp.obj
                0x000000000000581c                _Z9getDSAddrPh
 .text._Z9read_tempPh
                0x00000000000058ae       0xae CMakeFiles/BrewTroller-OT_DX1_STEAMPWM.elf.dir/Temp.cpp.obj
                0x00000000000058ae                _Z9read_tempPh
 .text._Z11updateTempsv
                0x000000000000595c       0xe2 CMakeFiles/BrewTroller-OT_DX1_STEAMPWM.elf.dir/Temp.cpp.obj
                0x000000000000595c                _Z11updateTempsv
 .text.startup._GLOBAL__sub_I_ds
                0x0000000000005a3e        0xa CMakeFiles/BrewTroller-OT_DX1_STEAMPWM.elf.dir/Temp.cpp.obj
 .text._Z8setTimerhi
                0x0000000000005a48       0x74 CMakeFiles/BrewTroller-OT_DX1_STEAMPWM.elf.dir/Timer.cpp.obj
                0x0000000000005a48                _Z8setTimerhi
 .text._Z10pauseTimerh
                0x0000000000005abc       0x50 CMakeFiles/BrewTroller-OT_DX1_STEAMPWM.elf.dir/Timer.cpp.obj
                0x0000000000005abc                _Z10pauseTimerh
 .text._Z10clearTimerh
                0x0000000000005b0c       0x3a CMakeFiles/BrewTroller-OT_DX1_STEAMPWM.elf.dir/Timer.cpp.obj
                0x0000000000005b0c                _Z10clearTimerh
 .text._Z9setBuzzerh
                0x0000000000005b46       0x12 CMakeFiles/BrewTroller-OT_DX1_STEAMPWM.elf.dir/Timer.cpp.obj
                0x0000000000005b46                _Z9setBuzzerh
 .text._Z12updateBuzzerv
                0x0000000000005b58        0x6 CMakeFiles/BrewTroller-OT_DX1_STEAMPWM.elf.dir/Timer.cpp.obj
                0x0000000000005b58                _Z12updateBuzzerv
 .text._Z8setAlarmh
                0x0000000000005b5e       0x10 CMakeFiles/BrewTroller-OT_DX1_STEAMPWM.elf.dir/Timer.cpp.obj
                0x0000000000005b5e                _Z8setAlarmh
 .text._Z12updateTimersv
                0x0000000000005b6e      0x1b0 CMakeFiles/BrewTroller-OT_DX1_STEAMPWM.elf.dir/Timer.cpp.obj
                0x0000000000005b6e                _Z12updateTimersv
 .text.startup._GLOBAL__sub_I_buzzerCycleStart
                0x0000000000005d1e       0x16 CMakeFiles/BrewTroller-OT_DX1_STEAMPWM.elf.dir/Timer.cpp.obj
 .text._ZN6LCDI2C5printEhhPKc
                0x0000000000005d34       0x32 CMakeFiles/BrewTroller-OT_DX1_STEAMPWM.elf.dir/UI.cpp.obj
                0x0000000000005d34                _ZN6LCDI2C5printEhhPKc
 .text._ZN6LCDI2C7print_PEhhPKc
                0x0000000000005d66       0x42 CMakeFiles/BrewTroller-OT_DX1_STEAMPWM.elf.dir/UI.cpp.obj
                0x0000000000005d66                _ZN6LCDI2C7print_PEhhPKc
 .text._ZN6LCDI2C5clearEv
                0x0000000000005da8       0x3a CMakeFiles/BrewTroller-OT_DX1_STEAMPWM.elf.dir/UI.cpp.obj
                0x0000000000005da8                _ZN6LCDI2C5clearEv
 .text._ZN6LCDI2C6centerEhhPKch
                0x0000000000005de2       0x7e CMakeFiles/BrewTroller-OT_DX1_STEAMPWM.elf.dir/UI.cpp.obj
                0x0000000000005de2                _ZN6LCDI2C6centerEhhPKch
 .text._ZN6LCDI2C4lPadEhhPKchc
                0x0000000000005e60       0xb8 CMakeFiles/BrewTroller-OT_DX1_STEAMPWM.elf.dir/UI.cpp.obj
                0x0000000000005e60                _ZN6LCDI2C4lPadEhhPKchc
 .text._ZN6LCDI2C4rPadEhhPKchc
                0x0000000000005f18       0xa8 CMakeFiles/BrewTroller-OT_DX1_STEAMPWM.elf.dir/UI.cpp.obj
                0x0000000000005f18                _ZN6LCDI2C4rPadEhhPKchc
 .text._Z7uiEventhh
                0x0000000000005fc0       0x52 CMakeFiles/BrewTroller-OT_DX1_STEAMPWM.elf.dir/UI.cpp.obj
                0x0000000000005fc0                _Z7uiEventhh
 .text._Z8unlockUIv
                0x0000000000006012       0x32 CMakeFiles/BrewTroller-OT_DX1_STEAMPWM.elf.dir/UI.cpp.obj
                0x0000000000006012                _Z8unlockUIv
 .text._Z6lockUIv
                0x0000000000006044        0xc CMakeFiles/BrewTroller-OT_DX1_STEAMPWM.elf.dir/UI.cpp.obj
                0x0000000000006044                _Z6lockUIv
 .text._Z21stepAdvanceFailDialogv
                0x0000000000006050       0x60 CMakeFiles/BrewTroller-OT_DX1_STEAMPWM.elf.dir/UI.cpp.obj
                0x0000000000006050                _Z21stepAdvanceFailDialogv
 .text._Z13continueClickv
                0x00000000000060b0       0x60 CMakeFiles/BrewTroller-OT_DX1_STEAMPWM.elf.dir/UI.cpp.obj
                0x00000000000060b0                _Z13continueClickv
 .text._Z24programStartFailedDialogv
                0x0000000000006110       0x52 CMakeFiles/BrewTroller-OT_DX1_STEAMPWM.elf.dir/UI.cpp.obj
                0x0000000000006110                _Z24programStartFailedDialogv
 .text._Z7warnHLTm
                0x0000000000006162       0xb0 CMakeFiles/BrewTroller-OT_DX1_STEAMPWM.elf.dir/UI.cpp.obj
                0x0000000000006162                _Z7warnHLTm
 .text._Z8warnMashmm
                0x0000000000006212      0x108 CMakeFiles/BrewTroller-OT_DX1_STEAMPWM.elf.dir/UI.cpp.obj
                0x0000000000006212                _Z8warnMashmm
 .text._Z8warnBoilm
                0x000000000000631a       0xb0 CMakeFiles/BrewTroller-OT_DX1_STEAMPWM.elf.dir/UI.cpp.obj
                0x000000000000631a                _Z8warnBoilm
 .text._Z8drawMenuPKcP4menu
                0x00000000000063ca       0x66 CMakeFiles/BrewTroller-OT_DX1_STEAMPWM.elf.dir/UI.cpp.obj
                0x00000000000063ca                _Z8drawMenuPKcP4menu
 .text._Z10scrollMenuPKcP4menu
                0x0000000000006430       0xe4 CMakeFiles/BrewTroller-OT_DX1_STEAMPWM.elf.dir/UI.cpp.obj
                0x0000000000006430                _Z10scrollMenuPKcP4menu
 .text._Z15boilControlMenuv
                0x0000000000006514       0xae CMakeFiles/BrewTroller-OT_DX1_STEAMPWM.elf.dir/UI.cpp.obj
                0x0000000000006514                _Z15boilControlMenuv
 .text._Z13showProgCalcsh
                0x00000000000065c2      0x1e6 CMakeFiles/BrewTroller-OT_DX1_STEAMPWM.elf.dir/UI.cpp.obj
                0x00000000000065c2                _Z13showProgCalcsh
 .text._Z15editHopSchedulej
                0x00000000000067a8      0x14c CMakeFiles/BrewTroller-OT_DX1_STEAMPWM.elf.dir/UI.cpp.obj
                0x00000000000067a8                _Z15editHopSchedulej
 .text._Z13MLHeatSrcMenuh
                0x00000000000068f4       0x64 CMakeFiles/BrewTroller-OT_DX1_STEAMPWM.elf.dir/UI.cpp.obj
                0x00000000000068f4                _Z13MLHeatSrcMenuh
 .text._Z9getChoiceP4menuh
                0x0000000000006958       0xd8 CMakeFiles/BrewTroller-OT_DX1_STEAMPWM.elf.dir/UI.cpp.obj
                0x0000000000006958                _Z9getChoiceP4menuh
 .text._Z13confirmChoicePKch
                0x0000000000006a30       0x58 CMakeFiles/BrewTroller-OT_DX1_STEAMPWM.elf.dir/UI.cpp.obj
                0x0000000000006a30                _Z13confirmChoicePKch
 .text._Z12confirmAbortv
                0x0000000000006a88       0x38 CMakeFiles/BrewTroller-OT_DX1_STEAMPWM.elf.dir/UI.cpp.obj
                0x0000000000006a88                _Z12confirmAbortv
 .text._Z10confirmDelv
                0x0000000000006ac0       0x1c CMakeFiles/BrewTroller-OT_DX1_STEAMPWM.elf.dir/UI.cpp.obj
                0x0000000000006ac0                _Z10confirmDelv
 .text._Z11concatPSTRSPcPKcS1_
                0x0000000000006adc       0x22 CMakeFiles/BrewTroller-OT_DX1_STEAMPWM.elf.dir/UI.cpp.obj
                0x0000000000006adc                _Z11concatPSTRSPcPKcS1_
 .text._Z10printTimerhhh
                0x0000000000006afe      0x1ce CMakeFiles/BrewTroller-OT_DX1_STEAMPWM.elf.dir/UI.cpp.obj
                0x0000000000006afe                _Z10printTimerhhh
 .text._Z13screenRefreshv
                0x0000000000006ccc      0x8e2 CMakeFiles/BrewTroller-OT_DX1_STEAMPWM.elf.dir/UI.cpp.obj
                0x0000000000006ccc                _Z13screenRefreshv
 .text._Z13getTimerValuePKcih
                0x00000000000075ae      0x246 CMakeFiles/BrewTroller-OT_DX1_STEAMPWM.elf.dir/UI.cpp.obj
                0x00000000000075ae                _Z13getTimerValuePKcih
 .text._Z9ASCII2ench
                0x00000000000077f4       0x5e CMakeFiles/BrewTroller-OT_DX1_STEAMPWM.elf.dir/UI.cpp.obj
                0x00000000000077f4                _Z9ASCII2ench
 .text._Z9enc2ASCIIh
                0x0000000000007852       0x5e CMakeFiles/BrewTroller-OT_DX1_STEAMPWM.elf.dir/UI.cpp.obj
                0x0000000000007852                _Z9enc2ASCIIh
 .text._Z23displayAssignSensorTempi
                0x00000000000078b0       0x76 CMakeFiles/BrewTroller-OT_DX1_STEAMPWM.elf.dir/UI.cpp.obj
                0x00000000000078b0                _Z23displayAssignSensorTempi
 .text._Z12assignSensorv
                0x0000000000007926      0x326 CMakeFiles/BrewTroller-OT_DX1_STEAMPWM.elf.dir/UI.cpp.obj
                0x0000000000007926                _Z12assignSensorv
 .text._ZN6LCDI2C12i2cGetBrightEv.isra.10
                0x0000000000007c4c       0x4c CMakeFiles/BrewTroller-OT_DX1_STEAMPWM.elf.dir/UI.cpp.obj
 .text._ZN6LCDI2C14i2cGetContrastEv.isra.12
                0x0000000000007c98       0x4c CMakeFiles/BrewTroller-OT_DX1_STEAMPWM.elf.dir/UI.cpp.obj
 .text._ZN6LCDI2C16i2cLcdGetVersionEv
                0x0000000000007ce4       0x9c CMakeFiles/BrewTroller-OT_DX1_STEAMPWM.elf.dir/UI.cpp.obj
                0x0000000000007ce4                _ZN6LCDI2C16i2cLcdGetVersionEv
 .text._ZN6LCDI2C13setCustChar_PEhPKh
                0x0000000000007d80       0x5e CMakeFiles/BrewTroller-OT_DX1_STEAMPWM.elf.dir/UI.cpp.obj
                0x0000000000007d80                _ZN6LCDI2C13setCustChar_PEhPKh
 .text._Z10screenInitv
                0x0000000000007dde      0x6f2 CMakeFiles/BrewTroller-OT_DX1_STEAMPWM.elf.dir/UI.cpp.obj
                0x0000000000007dde                _Z10screenInitv
 .text._Z8getValuePcmjmPKc
                0x00000000000084d0      0x496 CMakeFiles/BrewTroller-OT_DX1_STEAMPWM.elf.dir/UI.cpp.obj
                0x00000000000084d0                _Z8getValuePcmjmPKc
 .text._Z10getValue_PPKcmjmS0_
                0x0000000000008966       0x38 CMakeFiles/BrewTroller-OT_DX1_STEAMPWM.elf.dir/UI.cpp.obj
                0x0000000000008966                _Z10getValue_PPKcmjmS0_
 .text._Z16editMashScheduleh
                0x000000000000899e      0x1e2 CMakeFiles/BrewTroller-OT_DX1_STEAMPWM.elf.dir/UI.cpp.obj
                0x000000000000899e                _Z16editMashScheduleh
 .text._Z11editProgramh
                0x0000000000008b80      0x55a CMakeFiles/BrewTroller-OT_DX1_STEAMPWM.elf.dir/UI.cpp.obj
                0x0000000000008b80                _Z11editProgramh
 .text._Z16startProgramMenuv
                0x00000000000090da      0x2ca CMakeFiles/BrewTroller-OT_DX1_STEAMPWM.elf.dir/UI.cpp.obj
                0x00000000000090da                _Z16startProgramMenuv
 .text._Z17volCalibEntryMenuhh
                0x00000000000093a4      0x20c CMakeFiles/BrewTroller-OT_DX1_STEAMPWM.elf.dir/UI.cpp.obj
                0x00000000000093a4                _Z17volCalibEntryMenuhh
 .text._Z12volCalibMenuPch
                0x00000000000095b0      0x186 CMakeFiles/BrewTroller-OT_DX1_STEAMPWM.elf.dir/UI.cpp.obj
                0x00000000000095b0                _Z12volCalibMenuPch
 .text._Z21cfgMODBUSOutputAssignh
                0x0000000000009736      0x1aa CMakeFiles/BrewTroller-OT_DX1_STEAMPWM.elf.dir/UI.cpp.obj
                0x0000000000009736                _Z21cfgMODBUSOutputAssignh
 .text._Z20cfgMODBUSOutputBoardh
                0x00000000000098e0      0x2d2 CMakeFiles/BrewTroller-OT_DX1_STEAMPWM.elf.dir/UI.cpp.obj
                0x00000000000098e0                _Z20cfgMODBUSOutputBoardh
 .text._Z16cfgMODBUSOutputsv
                0x0000000000009bb2       0xf8 CMakeFiles/BrewTroller-OT_DX1_STEAMPWM.elf.dir/UI.cpp.obj
                0x0000000000009bb2                _Z16cfgMODBUSOutputsv
 .text._Z11cfgTriggersv
                0x0000000000009caa      0x108 CMakeFiles/BrewTroller-OT_DX1_STEAMPWM.elf.dir/UI.cpp.obj
                0x0000000000009caa                _Z11cfgTriggersv
 .text._Z10cfgOutputsv
                0x0000000000009db2      0x3fc CMakeFiles/BrewTroller-OT_DX1_STEAMPWM.elf.dir/UI.cpp.obj
                0x0000000000009db2                _Z10cfgOutputsv
 .text._Z10cfgVolumesv
                0x000000000000a1ae      0x22e CMakeFiles/BrewTroller-OT_DX1_STEAMPWM.elf.dir/UI.cpp.obj
                0x000000000000a1ae                _Z10cfgVolumesv
 .text._Z9getStringPKcPch
                0x000000000000a3dc      0x240 CMakeFiles/BrewTroller-OT_DX1_STEAMPWM.elf.dir/UI.cpp.obj
                0x000000000000a3dc                _Z9getStringPKcPch
 .text._Z15editProgramMenuv
                0x000000000000a61c       0x8e CMakeFiles/BrewTroller-OT_DX1_STEAMPWM.elf.dir/UI.cpp.obj
                0x000000000000a61c                _Z15editProgramMenuv
 .text._ZN6LCDI2C9setBrightEh
                0x000000000000a6aa       0x36 CMakeFiles/BrewTroller-OT_DX1_STEAMPWM.elf.dir/UI.cpp.obj
                0x000000000000a6aa                _ZN6LCDI2C9setBrightEh
 .text._ZN6LCDI2C11setContrastEh
                0x000000000000a6e0       0x36 CMakeFiles/BrewTroller-OT_DX1_STEAMPWM.elf.dir/UI.cpp.obj
                0x000000000000a6e0                _ZN6LCDI2C11setContrastEh
 .text._Z9adjustLCDv
                0x000000000000a716      0x2e6 CMakeFiles/BrewTroller-OT_DX1_STEAMPWM.elf.dir/UI.cpp.obj
                0x000000000000a716                _Z9adjustLCDv
 .text._Z12UIinitEEPROMv
                0x000000000000a9fc       0x38 CMakeFiles/BrewTroller-OT_DX1_STEAMPWM.elf.dir/UI.cpp.obj
                0x000000000000a9fc                _Z12UIinitEEPROMv
 .text._Z6uiInitv
                0x000000000000aa34       0x78 CMakeFiles/BrewTroller-OT_DX1_STEAMPWM.elf.dir/UI.cpp.obj
                0x000000000000aa34                _Z6uiInitv
 .text._Z7uiEstopv
                0x000000000000aaac       0xf2 CMakeFiles/BrewTroller-OT_DX1_STEAMPWM.elf.dir/UI.cpp.obj
                0x000000000000aaac                _Z7uiEstopv
 .text._Z15cfgValveProfilePcm
                0x000000000000ab9e      0x414 CMakeFiles/BrewTroller-OT_DX1_STEAMPWM.elf.dir/UI.cpp.obj
                0x000000000000ab9e                _Z15cfgValveProfilePcm
 .text._Z9cfgValvesv
                0x000000000000afb2       0xb2 CMakeFiles/BrewTroller-OT_DX1_STEAMPWM.elf.dir/UI.cpp.obj
                0x000000000000afb2                _Z9cfgValvesv
 .text._Z9menuSetupv
                0x000000000000b064      0x122 CMakeFiles/BrewTroller-OT_DX1_STEAMPWM.elf.dir/UI.cpp.obj
                0x000000000000b064                _Z9menuSetupv
 .text._Z11screenEnterv
                0x000000000000b186      0xf08 CMakeFiles/BrewTroller-OT_DX1_STEAMPWM.elf.dir/UI.cpp.obj
                0x000000000000b186                _Z11screenEnterv
 .text._Z6uiCorev
                0x000000000000c08e       0x3e CMakeFiles/BrewTroller-OT_DX1_STEAMPWM.elf.dir/UI.cpp.obj
                0x000000000000c08e                _Z6uiCorev
 .text._Z7strLPadPchc
                0x000000000000c0cc       0x80 CMakeFiles/BrewTroller-OT_DX1_STEAMPWM.elf.dir/Util.cpp.obj
                0x000000000000c0cc                _Z7strLPadPchc
 .text._Z5vftoamPcjh
                0x000000000000c14c      0x128 CMakeFiles/BrewTroller-OT_DX1_STEAMPWM.elf.dir/Util.cpp.obj
                0x000000000000c14c                _Z5vftoamPcjh
 .text._Z10truncFloatPch
                0x000000000000c274       0x1c CMakeFiles/BrewTroller-OT_DX1_STEAMPWM.elf.dir/Util.cpp.obj
                0x000000000000c274                _Z10truncFloatPch
 .text._Z5pow10h
                0x000000000000c290       0x22 CMakeFiles/BrewTroller-OT_DX1_STEAMPWM.elf.dir/Util.cpp.obj
                0x000000000000c290                _Z5pow10h
 .text._ZN6VesselC2EhPbhfhhdd
                0x000000000000c2b2      0x3f8 CMakeFiles/BrewTroller-OT_DX1_STEAMPWM.elf.dir/Vessel.cpp.obj
                0x000000000000c2b2                _ZN6VesselC1EhPbhfhhdd
                0x000000000000c2b2                _ZN6VesselC2EhPbhfhhdd
 .text._ZN6VesselD2Ev
                0x000000000000c6aa       0x10 CMakeFiles/BrewTroller-OT_DX1_STEAMPWM.elf.dir/Vessel.cpp.obj
                0x000000000000c6aa                _ZN6VesselD2Ev
                0x000000000000c6aa                _ZN6VesselD1Ev
 .text._ZN6Vessel11getSetpointEv
                0x000000000000c6ba       0x16 CMakeFiles/BrewTroller-OT_DX1_STEAMPWM.elf.dir/Vessel.cpp.obj
                0x000000000000c6ba                _ZN6Vessel11getSetpointEv
 .text._ZN6Vessel14getTemperatureEv
                0x000000000000c6d0       0x10 CMakeFiles/BrewTroller-OT_DX1_STEAMPWM.elf.dir/Vessel.cpp.obj
                0x000000000000c6d0                _ZN6Vessel14getTemperatureEv
 .text._ZN6Vessel10setTuningsEddd
                0x000000000000c6e0       0x9a CMakeFiles/BrewTroller-OT_DX1_STEAMPWM.elf.dir/Vessel.cpp.obj
                0x000000000000c6e0                _ZN6Vessel10setTuningsEddd
 .text._ZN6Vessel12setTSAddressEPh
                0x000000000000c77a       0x28 CMakeFiles/BrewTroller-OT_DX1_STEAMPWM.elf.dir/Vessel.cpp.obj
                0x000000000000c77a                _ZN6Vessel12setTSAddressEPh
 .text._ZN6Vessel12updateOutputEv
                0x000000000000c7a2      0x226 CMakeFiles/BrewTroller-OT_DX1_STEAMPWM.elf.dir/Vessel.cpp.obj
                0x000000000000c7a2                _ZN6Vessel12updateOutputEv
 .text._ZN6Vessel11setSetpointEd
                0x000000000000c9c8       0xa8 CMakeFiles/BrewTroller-OT_DX1_STEAMPWM.elf.dir/Vessel.cpp.obj
                0x000000000000c9c8                _ZN6Vessel11setSetpointEd
 .text._ZN6Vessel17updateTemperatureEv
                0x000000000000ca70      0x20c CMakeFiles/BrewTroller-OT_DX1_STEAMPWM.elf.dir/Vessel.cpp.obj
                0x000000000000ca70                _ZN6Vessel17updateTemperatureEv
 .text._ZN6Vessel12manualOutputEi
                0x000000000000cc7c       0x38 CMakeFiles/BrewTroller-OT_DX1_STEAMPWM.elf.dir/Vessel.cpp.obj
                0x000000000000cc7c                _ZN6Vessel12manualOutputEi
 .text._ZN6Vessel4isOnEv
                0x000000000000ccb4        0x6 CMakeFiles/BrewTroller-OT_DX1_STEAMPWM.elf.dir/Vessel.cpp.obj
                0x000000000000ccb4                _ZN6Vessel4isOnEv
 .text._ZN6Vessel9getOutputEv
                0x000000000000ccba       0x16 CMakeFiles/BrewTroller-OT_DX1_STEAMPWM.elf.dir/Vessel.cpp.obj
                0x000000000000ccba                _ZN6Vessel9getOutputEv
 .text._ZN6Vessel16getPercentOutputEv
                0x000000000000ccd0       0x28 CMakeFiles/BrewTroller-OT_DX1_STEAMPWM.elf.dir/Vessel.cpp.obj
                0x000000000000ccd0                _ZN6Vessel16getPercentOutputEv
 .text._ZN6Vessel6setPIDEb
                0x000000000000ccf8       0x50 CMakeFiles/BrewTroller-OT_DX1_STEAMPWM.elf.dir/Vessel.cpp.obj
                0x000000000000ccf8                _ZN6Vessel6setPIDEb
 .text._ZN6Vessel13setHysteresisEf
                0x000000000000cd48       0x4e CMakeFiles/BrewTroller-OT_DX1_STEAMPWM.elf.dir/Vessel.cpp.obj
                0x000000000000cd48                _ZN6Vessel13setHysteresisEf
 .text._ZN6Vessel11setPIDCycleEf
                0x000000000000cd96       0x4e CMakeFiles/BrewTroller-OT_DX1_STEAMPWM.elf.dir/Vessel.cpp.obj
                0x000000000000cd96                _ZN6Vessel11setPIDCycleEf
 .text._ZN6Vessel15setHeatOverrideE10SoftSwitch
                0x000000000000cde4        0x6 CMakeFiles/BrewTroller-OT_DX1_STEAMPWM.elf.dir/Vessel.cpp.obj
                0x000000000000cde4                _ZN6Vessel15setHeatOverrideE10SoftSwitch
 .text._ZN6Vessel23updateVolumeCalibrationEhmi
                0x000000000000cdea       0x7c CMakeFiles/BrewTroller-OT_DX1_STEAMPWM.elf.dir/Vessel.cpp.obj
                0x000000000000cdea                _ZN6Vessel23updateVolumeCalibrationEhmi
 .text._ZN6Vessel11setCapacityEf
                0x000000000000ce66       0x2e CMakeFiles/BrewTroller-OT_DX1_STEAMPWM.elf.dir/Vessel.cpp.obj
                0x000000000000ce66                _ZN6Vessel11setCapacityEf
 .text._ZN6Vessel12setDeadspaceEf
                0x000000000000ce94       0x2c CMakeFiles/BrewTroller-OT_DX1_STEAMPWM.elf.dir/Vessel.cpp.obj
                0x000000000000ce94                _ZN6Vessel12setDeadspaceEf
 .text._ZN6Vessel9getVolumeEv
                0x000000000000cec0       0x1a CMakeFiles/BrewTroller-OT_DX1_STEAMPWM.elf.dir/Vessel.cpp.obj
                0x000000000000cec0                _ZN6Vessel9getVolumeEv
 .text._ZN6Vessel17takeVolumeReadingEv
                0x000000000000ceda       0xbc CMakeFiles/BrewTroller-OT_DX1_STEAMPWM.elf.dir/Vessel.cpp.obj
                0x000000000000ceda                _ZN6Vessel17takeVolumeReadingEv
 .text._ZN6Vessel19getCalibrationValueEv
                0x000000000000cf96       0x62 CMakeFiles/BrewTroller-OT_DX1_STEAMPWM.elf.dir/Vessel.cpp.obj
                0x000000000000cf96                _ZN6Vessel19getCalibrationValueEv
 .text._Z11initVesselsv
                0x000000000000cff8       0xac CMakeFiles/BrewTroller-OT_DX1_STEAMPWM.elf.dir/Vessel.cpp.obj
                0x000000000000cff8                _Z11initVesselsv
 .text._Z10updateVolsv
                0x000000000000d0a4       0x6e CMakeFiles/BrewTroller-OT_DX1_STEAMPWM.elf.dir/Volume.cpp.obj
                0x000000000000d0a4                _Z10updateVolsv
 .text._Z10readVolumehPmPj
                0x000000000000d112      0x400 CMakeFiles/BrewTroller-OT_DX1_STEAMPWM.elf.dir/Volume.cpp.obj
                0x000000000000d112                _Z10readVolumehPmPj
 .text.avr-libc
                0x000000000000d512      0x24e ../lib/libBT-libs.a(malloc.c.obj)
                0x000000000000d512                malloc
                0x000000000000d642                free
 .text._ZN14HardwareSerial9availableEv
                0x000000000000d760       0x24 ../lib/libBT-libs.a(HardwareSerial.cpp.obj)
                0x000000000000d760                _ZN14HardwareSerial9availableEv
 .text._ZN14HardwareSerial4peekEv
                0x000000000000d784       0x36 ../lib/libBT-libs.a(HardwareSerial.cpp.obj)
                0x000000000000d784                _ZN14HardwareSerial4peekEv
 .text._ZN14HardwareSerial4readEv
                0x000000000000d7ba       0x44 ../lib/libBT-libs.a(HardwareSerial.cpp.obj)
                0x000000000000d7ba                _ZN14HardwareSerial4readEv
 .text._ZN14HardwareSerial5flushEv
                0x000000000000d7fe       0x16 ../lib/libBT-libs.a(HardwareSerial.cpp.obj)
                0x000000000000d7fe                _ZN14HardwareSerial5flushEv
 .text._ZN14HardwareSerial5writeEh
                0x000000000000d814       0x7a ../lib/libBT-libs.a(HardwareSerial.cpp.obj)
                0x000000000000d814                _ZN14HardwareSerial5writeEh
 .text._Z11serialEventv
                0x000000000000d88e        0x2 ../lib/libBT-libs.a(HardwareSerial.cpp.obj)
                0x000000000000d88e                _Z11serialEventv
 .text.__vector_20
                0x000000000000d890       0x7c ../lib/libBT-libs.a(HardwareSerial.cpp.obj)
                0x000000000000d890                __vector_20
 .text._Z12serialEvent1v
                0x000000000000d90c        0x2 ../lib/libBT-libs.a(HardwareSerial.cpp.obj)
                0x000000000000d90c                _Z12serialEvent1v
 .text.__vector_28
                0x000000000000d90e       0x7c ../lib/libBT-libs.a(HardwareSerial.cpp.obj)
                0x000000000000d90e                __vector_28
 .text._Z14serialEventRunv
                0x000000000000d98a       0x1a ../lib/libBT-libs.a(HardwareSerial.cpp.obj)
                0x000000000000d98a                _Z14serialEventRunv
 .text.__vector_21
                0x000000000000d9a4       0x7e ../lib/libBT-libs.a(HardwareSerial.cpp.obj)
                0x000000000000d9a4                __vector_21
 .text.__vector_29
                0x000000000000da22       0x7e ../lib/libBT-libs.a(HardwareSerial.cpp.obj)
                0x000000000000da22                __vector_29
 .text._ZN14HardwareSerialC2EP11ring_bufferS1_PVhS3_S3_S3_S3_S3_hhhhh
                0x000000000000daa0       0x64 ../lib/libBT-libs.a(HardwareSerial.cpp.obj)
                0x000000000000daa0                _ZN14HardwareSerialC1EP11ring_bufferS1_PVhS3_S3_S3_S3_S3_hhhhh
                0x000000000000daa0                _ZN14HardwareSerialC2EP11ring_bufferS1_PVhS3_S3_S3_S3_S3_hhhhh
 .text._ZN14HardwareSerial5beginEm
                0x000000000000db04      0x106 ../lib/libBT-libs.a(HardwareSerial.cpp.obj)
                0x000000000000db04                _ZN14HardwareSerial5beginEm
 .text._ZN14HardwareSerial5beginEmh
                0x000000000000dc0a      0x110 ../lib/libBT-libs.a(HardwareSerial.cpp.obj)
                0x000000000000dc0a                _ZN14HardwareSerial5beginEmh
 .text.startup._GLOBAL__sub_I_rx_buffer
                0x000000000000dd1a       0xa6 ../lib/libBT-libs.a(HardwareSerial.cpp.obj)
 .text._Znwj    0x000000000000ddc0        0x4 ../lib/libBT-libs.a(new.cpp.obj)
                0x000000000000ddc0                _Znwj
 .text._ZdlPv   0x000000000000ddc4        0x4 ../lib/libBT-libs.a(new.cpp.obj)
                0x000000000000ddc4                _ZdlPv
 .text._ZN5Print5writeEPKhj
                0x000000000000ddc8       0x44 ../lib/libBT-libs.a(Print.cpp.obj)
                0x000000000000ddc8                _ZN5Print5writeEPKhj
 .text._ZN5Print5printEPKc
                0x000000000000de0c        0x6 ../lib/libBT-libs.a(Print.cpp.obj)
                0x000000000000de0c                _ZN5Print5printEPKc
 .text._ZN5Print5printEc
                0x000000000000de12       0x10 ../lib/libBT-libs.a(Print.cpp.obj)
                0x000000000000de12                _ZN5Print5printEc
 .text._ZN5Print7printlnEv
                0x000000000000de22       0x24 ../lib/libBT-libs.a(Print.cpp.obj)
                0x000000000000de22                _ZN5Print7printlnEv
 .text._ZN5Print7printlnEPKc
                0x000000000000de46       0x22 ../lib/libBT-libs.a(Print.cpp.obj)
                0x000000000000de46                _ZN5Print7printlnEPKc
 .text._ZN5Print11printNumberEmh
                0x000000000000de68       0xba ../lib/libBT-libs.a(Print.cpp.obj)
                0x000000000000de68                _ZN5Print11printNumberEmh
 .text._ZN5Print5printEmi
                0x000000000000df22       0x1a ../lib/libBT-libs.a(Print.cpp.obj)
                0x000000000000df22                _ZN5Print5printEmi
 .text.__vector_18
                0x000000000000df3c       0x94 ../lib/libBT-libs.a(wiring.c.obj)
                0x000000000000df3c                __vector_18
 .text.millis   0x000000000000dfd0       0x18 ../lib/libBT-libs.a(wiring.c.obj)
                0x000000000000dfd0                millis
 .text.micros   0x000000000000dfe8       0x46 ../lib/libBT-libs.a(wiring.c.obj)
                0x000000000000dfe8                micros
 .text.delay    0x000000000000e02e       0x48 ../lib/libBT-libs.a(wiring.c.obj)
                0x000000000000e02e                delay
 .text.delayMicroseconds
                0x000000000000e076       0x16 ../lib/libBT-libs.a(wiring.c.obj)
                0x000000000000e076                delayMicroseconds
 .text.init     0x000000000000e08c       0x90 ../lib/libBT-libs.a(wiring.c.obj)
                0x000000000000e08c                init
 .text.analogRead
                0x000000000000e11c       0x3a ../lib/libBT-libs.a(wiring_analog.c.obj)
                0x000000000000e11c                analogRead
 .text.turnOffPWM
                0x000000000000e156       0x5e ../lib/libBT-libs.a(wiring_digital.c.obj)
 .text.digitalWrite
                0x000000000000e1b4       0x64 ../lib/libBT-libs.a(wiring_digital.c.obj)
                0x000000000000e1b4                digitalWrite
 .text._ZN11EEPROMClass4readEi
                0x000000000000e218        0x6 ../lib/libBT-libs.a(EEPROM.cpp.obj)
                0x000000000000e218                _ZN11EEPROMClass4readEi
 .text._ZN11EEPROMClass5writeEih
                0x000000000000e21e        0x8 ../lib/libBT-libs.a(EEPROM.cpp.obj)
                0x000000000000e21e                _ZN11EEPROMClass5writeEih
 .text._ZN7TwoWire9availableEv
                0x000000000000e226       0x10 ../lib/libBT-libs.a(Wire.cpp.obj)
                0x000000000000e226                _ZN7TwoWire9availableEv
 .text._ZN7TwoWire4readEv
                0x000000000000e236       0x26 ../lib/libBT-libs.a(Wire.cpp.obj)
                0x000000000000e236                _ZN7TwoWire4readEv
 .text._ZN7TwoWire4peekEv
                0x000000000000e25c       0x1e ../lib/libBT-libs.a(Wire.cpp.obj)
                0x000000000000e25c                _ZN7TwoWire4peekEv
 .text._ZN7TwoWire5flushEv
                0x000000000000e27a        0x2 ../lib/libBT-libs.a(Wire.cpp.obj)
                0x000000000000e27a                _ZN7TwoWire5flushEv
 .text._ZN7TwoWire16onReceiveServiceEPhi
                0x000000000000e27c       0x46 ../lib/libBT-libs.a(Wire.cpp.obj)
                0x000000000000e27c                _ZN7TwoWire16onReceiveServiceEPhi
 .text._ZN7TwoWire16onRequestServiceEv
                0x000000000000e2c2       0x18 ../lib/libBT-libs.a(Wire.cpp.obj)
                0x000000000000e2c2                _ZN7TwoWire16onRequestServiceEv
 .text._ZN7TwoWire5writeEPKhj
                0x000000000000e2da       0x4c ../lib/libBT-libs.a(Wire.cpp.obj)
                0x000000000000e2da                _ZN7TwoWire5writeEPKhj
 .text._ZN7TwoWire5writeEh
                0x000000000000e326       0x5e ../lib/libBT-libs.a(Wire.cpp.obj)
                0x000000000000e326                _ZN7TwoWire5writeEh
 .text._ZN7TwoWireC2Ev
                0x000000000000e384       0x20 ../lib/libBT-libs.a(Wire.cpp.obj)
                0x000000000000e384                _ZN7TwoWireC2Ev
                0x000000000000e384                _ZN7TwoWireC1Ev
 .text._ZN7TwoWire5beginEv
                0x000000000000e3a4       0x12 ../lib/libBT-libs.a(Wire.cpp.obj)
                0x000000000000e3a4                _ZN7TwoWire5beginEv
 .text._ZN7TwoWire5beginEh
                0x000000000000e3b6       0x20 ../lib/libBT-libs.a(Wire.cpp.obj)
                0x000000000000e3b6                _ZN7TwoWire5beginEh
 .text._ZN7TwoWire5beginEi
                0x000000000000e3d6        0x4 ../lib/libBT-libs.a(Wire.cpp.obj)
                0x000000000000e3d6                _ZN7TwoWire5beginEi
 .text._ZN7TwoWire11requestFromEhhh
                0x000000000000e3da       0x18 ../lib/libBT-libs.a(Wire.cpp.obj)
                0x000000000000e3da                _ZN7TwoWire11requestFromEhhh
 .text._ZN7TwoWire11requestFromEhh
                0x000000000000e3f2        0x4 ../lib/libBT-libs.a(Wire.cpp.obj)
                0x000000000000e3f2                _ZN7TwoWire11requestFromEhh
 .text._ZN7TwoWire11requestFromEii
                0x000000000000e3f6        0x4 ../lib/libBT-libs.a(Wire.cpp.obj)
                0x000000000000e3f6                _ZN7TwoWire11requestFromEii
 .text._ZN7TwoWire17beginTransmissionEh
                0x000000000000e3fa       0x14 ../lib/libBT-libs.a(Wire.cpp.obj)
                0x000000000000e3fa                _ZN7TwoWire17beginTransmissionEh
 .text._ZN7TwoWire17beginTransmissionEi
                0x000000000000e40e        0x4 ../lib/libBT-libs.a(Wire.cpp.obj)
                0x000000000000e40e                _ZN7TwoWire17beginTransmissionEi
 .text._ZN7TwoWire15endTransmissionEh
                0x000000000000e412       0x24 ../lib/libBT-libs.a(Wire.cpp.obj)
                0x000000000000e412                _ZN7TwoWire15endTransmissionEh
 .text._ZN7TwoWire15endTransmissionEv
                0x000000000000e436        0x4 ../lib/libBT-libs.a(Wire.cpp.obj)
                0x000000000000e436                _ZN7TwoWire15endTransmissionEv
 .text.startup._GLOBAL__sub_I__ZN7TwoWire8rxBufferE
                0x000000000000e43a        0x6 ../lib/libBT-libs.a(Wire.cpp.obj)
 .text.twi_init
                0x000000000000e440       0x38 ../lib/libBT-libs.a(twi.c.obj)
                0x000000000000e440                twi_init
 .text.twi_setAddress
                0x000000000000e478        0x8 ../lib/libBT-libs.a(twi.c.obj)
                0x000000000000e478                twi_setAddress
 .text.twi_readFrom
                0x000000000000e480       0x88 ../lib/libBT-libs.a(twi.c.obj)
                0x000000000000e480                twi_readFrom
 .text.twi_writeTo
                0x000000000000e508       0xa6 ../lib/libBT-libs.a(twi.c.obj)
                0x000000000000e508                twi_writeTo
 .text.twi_transmit
                0x000000000000e5ae       0x32 ../lib/libBT-libs.a(twi.c.obj)
                0x000000000000e5ae                twi_transmit
 .text.twi_attachSlaveRxEvent
                0x000000000000e5e0        0xa ../lib/libBT-libs.a(twi.c.obj)
                0x000000000000e5e0                twi_attachSlaveRxEvent
 .text.twi_attachSlaveTxEvent
                0x000000000000e5ea        0xa ../lib/libBT-libs.a(twi.c.obj)
                0x000000000000e5ea                twi_attachSlaveTxEvent
 .text.twi_stop
                0x000000000000e5f4       0x14 ../lib/libBT-libs.a(twi.c.obj)
                0x000000000000e5f4                twi_stop
 .text.twi_releaseBus
                0x000000000000e608        0xc ../lib/libBT-libs.a(twi.c.obj)
                0x000000000000e608                twi_releaseBus
 .text.__vector_26
                0x000000000000e614      0x25c ../lib/libBT-libs.a(twi.c.obj)
                0x000000000000e614                __vector_26
 .text._ZN7encoder17isEnterPinPressedEv
                0x000000000000e870       0x1a ../lib/libBT-libs.a(encoder.cpp.obj)
                0x000000000000e870                _ZN7encoder17isEnterPinPressedEv
 .text._ZN7encoderC2Ev
                0x000000000000e88a       0x2a ../lib/libBT-libs.a(encoder.cpp.obj)
                0x000000000000e88a                _ZN7encoderC1Ev
                0x000000000000e88a                _ZN7encoderC2Ev
 .text._ZN7encoder5beginEh
                0x000000000000e8b4        0x6 ../lib/libBT-libs.a(encoder.cpp.obj)
                0x000000000000e8b4                _ZN7encoder5beginEh
 .text._ZN7encoder9i2cSetMinEi
                0x000000000000e8ba       0x44 ../lib/libBT-libs.a(encoder.cpp.obj)
                0x000000000000e8ba                _ZN7encoder9i2cSetMinEi
 .text._ZN7encoder6setMinEi
                0x000000000000e8fe       0x12 ../lib/libBT-libs.a(encoder.cpp.obj)
                0x000000000000e8fe                _ZN7encoder6setMinEi
 .text._ZN7encoder9i2cSetMaxEi
                0x000000000000e910       0x44 ../lib/libBT-libs.a(encoder.cpp.obj)
                0x000000000000e910                _ZN7encoder9i2cSetMaxEi
 .text._ZN7encoder6setMaxEi
                0x000000000000e954       0x12 ../lib/libBT-libs.a(encoder.cpp.obj)
                0x000000000000e954                _ZN7encoder6setMaxEi
 .text._ZN7encoder11i2cSetCountEi
                0x000000000000e966       0x44 ../lib/libBT-libs.a(encoder.cpp.obj)
                0x000000000000e966                _ZN7encoder11i2cSetCountEi
 .text._ZN7encoder8setCountEi
                0x000000000000e9aa       0x16 ../lib/libBT-libs.a(encoder.cpp.obj)
                0x000000000000e9aa                _ZN7encoder8setCountEi
 .text.startup._GLOBAL__sub_I__ZN7encoderC2Ev
                0x000000000000e9c0        0x6 ../lib/libBT-libs.a(encoder.cpp.obj)
 .text._ZN7encoder11i2cGetCountEv
                0x000000000000e9c6       0x60 ../lib/libBT-libs.a(encoder.cpp.obj)
                0x000000000000e9c6                _ZN7encoder11i2cGetCountEv
 .text._ZN7encoder8getCountEv
                0x000000000000ea26       0x12 ../lib/libBT-libs.a(encoder.cpp.obj)
                0x000000000000ea26                _ZN7encoder8getCountEv
 .text._ZN7encoder9i2cChangeEv
                0x000000000000ea38       0x56 ../lib/libBT-libs.a(encoder.cpp.obj)
                0x000000000000ea38                _ZN7encoder9i2cChangeEv
 .text._ZN7encoder11i2cGetDeltaEv
                0x000000000000ea8e       0x5e ../lib/libBT-libs.a(encoder.cpp.obj)
                0x000000000000ea8e                _ZN7encoder11i2cGetDeltaEv
 .text._ZN7encoder8getDeltaEv
                0x000000000000eaec       0x28 ../lib/libBT-libs.a(encoder.cpp.obj)
                0x000000000000eaec                _ZN7encoder8getDeltaEv
 .text._ZN7encoder6changeEv
                0x000000000000eb14       0x2a ../lib/libBT-libs.a(encoder.cpp.obj)
                0x000000000000eb14                _ZN7encoder6changeEv
 .text._ZN7encoder5i2cOkEv
                0x000000000000eb3e       0x4c ../lib/libBT-libs.a(encoder.cpp.obj)
                0x000000000000eb3e                _ZN7encoder5i2cOkEv
 .text._ZN7encoder2okEv
                0x000000000000eb8a       0x1c ../lib/libBT-libs.a(encoder.cpp.obj)
                0x000000000000eb8a                _ZN7encoder2okEv
 .text._ZN7encoder9i2cCancelEv
                0x000000000000eba6       0x4c ../lib/libBT-libs.a(encoder.cpp.obj)
                0x000000000000eba6                _ZN7encoder9i2cCancelEv
 .text._ZN7encoder6cancelEv
                0x000000000000ebf2       0x68 ../lib/libBT-libs.a(encoder.cpp.obj)
                0x000000000000ebf2                _ZN7encoder6cancelEv
 .text._ZN8PCI_PortC2EiiRVh
                0x000000000000ec5a       0x52 ../lib/libBT-libs.a(pin.cpp.obj)
                0x000000000000ec5a                _ZN8PCI_PortC2EiiRVh
                0x000000000000ec5a                _ZN8PCI_PortC1EiiRVh
 .text._ZN3pinC2Ev
                0x000000000000ecac        0xc ../lib/libBT-libs.a(pin.cpp.obj)
                0x000000000000ecac                _ZN3pinC2Ev
                0x000000000000ecac                _ZN3pinC1Ev
 .text._ZN3pin5setupEhh
                0x000000000000ecb8       0x56 ../lib/libBT-libs.a(pin.cpp.obj)
                0x000000000000ecb8                _ZN3pin5setupEhh
 .text._ZN3pin3setEv
                0x000000000000ed0e       0x42 ../lib/libBT-libs.a(pin.cpp.obj)
                0x000000000000ed0e                _ZN3pin3setEv
 .text._ZN3pin5clearEv
                0x000000000000ed50       0x4a ../lib/libBT-libs.a(pin.cpp.obj)
                0x000000000000ed50                _ZN3pin5clearEv
 .text._ZN3pin6toggleEv
                0x000000000000ed9a       0x42 ../lib/libBT-libs.a(pin.cpp.obj)
                0x000000000000ed9a                _ZN3pin6toggleEv
 .text._ZN3pin3setEh
                0x000000000000eddc        0x8 ../lib/libBT-libs.a(pin.cpp.obj)
                0x000000000000eddc                _ZN3pin3setEh
 .text._ZN3pin3getEv
                0x000000000000ede4       0x30 ../lib/libBT-libs.a(pin.cpp.obj)
                0x000000000000ede4                _ZN3pin3getEv
 .text._ZN8PCI_Port6addPinEhhhPFvvE
                0x000000000000ee14       0x96 ../lib/libBT-libs.a(pin.cpp.obj)
                0x000000000000ee14                _ZN8PCI_Port6addPinEhhhPFvvE
 .text._ZN3pin11attachPCIntEiPFvvE
                0x000000000000eeaa       0x62 ../lib/libBT-libs.a(pin.cpp.obj)
                0x000000000000eeaa                _ZN3pin11attachPCIntEiPFvvE
 .text._ZN8PCI_Port6delPinEh
                0x000000000000ef0c       0xc2 ../lib/libBT-libs.a(pin.cpp.obj)
                0x000000000000ef0c                _ZN8PCI_Port6delPinEh
 .text._ZN3pin11detachPCIntEv
                0x000000000000efce       0x34 ../lib/libBT-libs.a(pin.cpp.obj)
                0x000000000000efce                _ZN3pin11detachPCIntEv
 .text._ZN8PCI_Port12PCintHandlerEv
                0x000000000000f002       0x6a ../lib/libBT-libs.a(pin.cpp.obj)
                0x000000000000f002                _ZN8PCI_Port12PCintHandlerEv
 .text.__vector_4
                0x000000000000f06c       0x52 ../lib/libBT-libs.a(pin.cpp.obj)
                0x000000000000f06c                __vector_4
 .text.__vector_5
                0x000000000000f0be       0x52 ../lib/libBT-libs.a(pin.cpp.obj)
                0x000000000000f0be                __vector_5
 .text.__vector_6
                0x000000000000f110       0x52 ../lib/libBT-libs.a(pin.cpp.obj)
                0x000000000000f110                __vector_6
 .text.__vector_7
                0x000000000000f162       0x52 ../lib/libBT-libs.a(pin.cpp.obj)
                0x000000000000f162                __vector_7
 .text.startup._GLOBAL__sub_I__ZN8PCI_Port7PCI_Pin11s_pcIntPinsE
                0x000000000000f1b4       0x70 ../lib/libBT-libs.a(pin.cpp.obj)
 .text._ZN4menuC2Ehh
                0x000000000000f224       0x26 ../lib/libBT-libs.a(menu.cpp.obj)
                0x000000000000f224                _ZN4menuC1Ehh
                0x000000000000f224                _ZN4menuC2Ehh
 .text._ZN4menuD2Ev
                0x000000000000f24a        0xa ../lib/libBT-libs.a(menu.cpp.obj)
                0x000000000000f24a                _ZN4menuD2Ev
                0x000000000000f24a                _ZN4menuD1Ev
 .text._ZN4menu11setSelectedEh
                0x000000000000f254        0x6 ../lib/libBT-libs.a(menu.cpp.obj)
                0x000000000000f254                _ZN4menu11setSelectedEh
 .text._ZN4menu11getSelectedEv
                0x000000000000f25a        0x6 ../lib/libBT-libs.a(menu.cpp.obj)
                0x000000000000f25a                _ZN4menu11getSelectedEv
 .text._ZN4menu11refreshDispEv
                0x000000000000f260       0x2c ../lib/libBT-libs.a(menu.cpp.obj)
                0x000000000000f260                _ZN4menu11refreshDispEv
 .text._ZN4menu13getVisibleRowEhPc
                0x000000000000f28c       0x52 ../lib/libBT-libs.a(menu.cpp.obj)
                0x000000000000f28c                _ZN4menu13getVisibleRowEhPc
 .text._ZN4menu14getSelectedRowEPc
                0x000000000000f2de       0x32 ../lib/libBT-libs.a(menu.cpp.obj)
                0x000000000000f2de                _ZN4menu14getSelectedRowEPc
 .text._ZN4menu8getValueEv
                0x000000000000f310       0x1e ../lib/libBT-libs.a(menu.cpp.obj)
                0x000000000000f310                _ZN4menu8getValueEv
 .text._ZN4menu9getCursorEv
                0x000000000000f32e       0x14 ../lib/libBT-libs.a(menu.cpp.obj)
                0x000000000000f32e                _ZN4menu9getCursorEv
 .text._ZN4menu12getItemCountEv
                0x000000000000f342        0x6 ../lib/libBT-libs.a(menu.cpp.obj)
                0x000000000000f342                _ZN4menu12getItemCountEv
 .text._ZN4menu15getIndexByValueEh
                0x000000000000f348       0x36 ../lib/libBT-libs.a(menu.cpp.obj)
                0x000000000000f348                _ZN4menu15getIndexByValueEh
 .text._ZN4menu7setItemEPch
                0x000000000000f37e       0x52 ../lib/libBT-libs.a(menu.cpp.obj)
                0x000000000000f37e                _ZN4menu7setItemEPch
 .text._ZN4menu9setItem_PEPKch
                0x000000000000f3d0       0x52 ../lib/libBT-libs.a(menu.cpp.obj)
                0x000000000000f3d0                _ZN4menu9setItem_PEPKch
 .text._ZN4menu10appendItemEPKch
                0x000000000000f422       0x38 ../lib/libBT-libs.a(menu.cpp.obj)
                0x000000000000f422                _ZN4menu10appendItemEPKch
 .text._ZN4menu12appendItem_PEPKch
                0x000000000000f45a       0x38 ../lib/libBT-libs.a(menu.cpp.obj)
                0x000000000000f45a                _ZN4menu12appendItem_PEPKch
 .text._ZN4menu18setSelectedByValueEh
                0x000000000000f492       0x10 ../lib/libBT-libs.a(menu.cpp.obj)
                0x000000000000f492                _ZN4menu18setSelectedByValueEh
 .text._ZL13_crc16_updatejh
                0x000000000000f4a2       0x30 ../lib/libBT-libs.a(ModbusMaster.cpp.obj)
 .text._ZN12ModbusMasterC2Ev
                0x000000000000f4d2        0xa ../lib/libBT-libs.a(ModbusMaster.cpp.obj)
                0x000000000000f4d2                _ZN12ModbusMasterC1Ev
                0x000000000000f4d2                _ZN12ModbusMasterC2Ev
 .text._ZN12ModbusMasterC2Ehh
                0x000000000000f4dc       0x14 ../lib/libBT-libs.a(ModbusMaster.cpp.obj)
                0x000000000000f4dc                _ZN12ModbusMasterC1Ehh
                0x000000000000f4dc                _ZN12ModbusMasterC2Ehh
 .text._ZN12ModbusMaster5beginEmh
                0x000000000000f4f0      0x210 ../lib/libBT-libs.a(ModbusMaster.cpp.obj)
                0x000000000000f4f0                _ZN12ModbusMaster5beginEmh
 .text._ZN12ModbusMaster8setupRTSEh
                0x000000000000f700       0x46 ../lib/libBT-libs.a(ModbusMaster.cpp.obj)
                0x000000000000f700                _ZN12ModbusMaster8setupRTSEh
 .text._ZN12ModbusMaster17getResponseBufferEh
                0x000000000000f746       0x1a ../lib/libBT-libs.a(ModbusMaster.cpp.obj)
                0x000000000000f746                _ZN12ModbusMaster17getResponseBufferEh
 .text._ZN12ModbusMaster17setTransmitBufferEhj
                0x000000000000f760       0x1e ../lib/libBT-libs.a(ModbusMaster.cpp.obj)
                0x000000000000f760                _ZN12ModbusMaster17setTransmitBufferEhj
 .text._ZN12ModbusMaster23ModbusMasterTransactionEh
                0x000000000000f77e      0x54c ../lib/libBT-libs.a(ModbusMaster.cpp.obj)
                0x000000000000f77e                _ZN12ModbusMaster23ModbusMasterTransactionEh
 .text._ZN12ModbusMaster9readCoilsEjj
                0x000000000000fcca        0xe ../lib/libBT-libs.a(ModbusMaster.cpp.obj)
                0x000000000000fcca                _ZN12ModbusMaster9readCoilsEjj
 .text._ZN12ModbusMaster20readHoldingRegistersEjj
                0x000000000000fcd8        0xe ../lib/libBT-libs.a(ModbusMaster.cpp.obj)
                0x000000000000fcd8                _ZN12ModbusMaster20readHoldingRegistersEjj
 .text._ZN12ModbusMaster19writeSingleRegisterEjj
                0x000000000000fce6       0x22 ../lib/libBT-libs.a(ModbusMaster.cpp.obj)
                0x000000000000fce6                _ZN12ModbusMaster19writeSingleRegisterEjj
 .text._ZN12ModbusMaster18writeMultipleCoilsEjj
                0x000000000000fd08       0x18 ../lib/libBT-libs.a(ModbusMaster.cpp.obj)
                0x000000000000fd08                _ZN12ModbusMaster18writeMultipleCoilsEjj
 .text.startup._GLOBAL__sub_I_MBSerial
                0x000000000000fd20      0x10e ../lib/libBT-libs.a(ModbusMaster.cpp.obj)
 .text._ZN3PID14SetInputLimitsEdd
                0x000000000000fe2e      0x102 ../lib/libBT-libs.a(PID_Beta6.cpp.obj)
                0x000000000000fe2e                _ZN3PID14SetInputLimitsEdd
 .text._ZN3PID15SetOutputLimitsEdd
                0x000000000000ff30       0xb0 ../lib/libBT-libs.a(PID_Beta6.cpp.obj)
                0x000000000000ff30                _ZN3PID15SetOutputLimitsEdd
 .text._ZN3PID10SetTuningsEddd
                0x000000000000ffe0      0x150 ../lib/libBT-libs.a(PID_Beta6.cpp.obj)
                0x000000000000ffe0                _ZN3PID10SetTuningsEddd
 .text._ZN3PID17ConstructorCommonEPdS0_S0_ddd
                0x0000000000010130       0x98 ../lib/libBT-libs.a(PID_Beta6.cpp.obj)
                0x0000000000010130                _ZN3PID17ConstructorCommonEPdS0_S0_ddd
 .text._ZN3PID5ResetEv
                0x00000000000101c8       0x9a ../lib/libBT-libs.a(PID_Beta6.cpp.obj)
                0x00000000000101c8                _ZN3PID5ResetEv
 .text._ZN3PIDC2EPdS0_S0_ddd
                0x0000000000010262       0x34 ../lib/libBT-libs.a(PID_Beta6.cpp.obj)
                0x0000000000010262                _ZN3PIDC1EPdS0_S0_ddd
                0x0000000000010262                _ZN3PIDC2EPdS0_S0_ddd
 .text._ZN3PIDC2EPdS0_S0_S0_ddd
                0x0000000000010296       0x44 ../lib/libBT-libs.a(PID_Beta6.cpp.obj)
                0x0000000000010296                _ZN3PIDC1EPdS0_S0_S0_ddd
                0x0000000000010296                _ZN3PIDC2EPdS0_S0_S0_ddd
 .text._ZN3PID7SetModeEi
                0x00000000000102da       0x30 ../lib/libBT-libs.a(PID_Beta6.cpp.obj)
                0x00000000000102da                _ZN3PID7SetModeEi
 .text._ZN3PID13SetSampleTimeEi
                0x000000000001030a       0xca ../lib/libBT-libs.a(PID_Beta6.cpp.obj)
                0x000000000001030a                _ZN3PID13SetSampleTimeEi
 .text._ZN3PID10GetP_ParamEv
                0x00000000000103d4        0xc ../lib/libBT-libs.a(PID_Beta6.cpp.obj)
                0x00000000000103d4                _ZN3PID10GetP_ParamEv
 .text._ZN3PID10GetI_ParamEv
                0x00000000000103e0        0xc ../lib/libBT-libs.a(PID_Beta6.cpp.obj)
                0x00000000000103e0                _ZN3PID10GetI_ParamEv
 .text._ZN3PID10GetD_ParamEv
                0x00000000000103ec        0xc ../lib/libBT-libs.a(PID_Beta6.cpp.obj)
                0x00000000000103ec                _ZN3PID10GetD_ParamEv
 .text._ZN6DS2482C2Eh
                0x00000000000103f8        0x8 ../lib/libBT-libs.a(DS2482.cpp.obj)
                0x00000000000103f8                _ZN6DS2482C1Eh
                0x00000000000103f8                _ZN6DS2482C2Eh
 .text._ZN6DS248212reset_searchEv
                0x0000000000010400       0x20 ../lib/libBT-libs.a(DS2482.cpp.obj)
                0x0000000000010400                _ZN6DS248212reset_searchEv
 .text._ZN6DS248210setReadPtrEh
                0x0000000000010420       0x32 ../lib/libBT-libs.a(DS2482.cpp.obj)
                0x0000000000010420                _ZN6DS248210setReadPtrEh
 .text._ZN6DS24828readByteEv
                0x0000000000010452       0x16 ../lib/libBT-libs.a(DS2482.cpp.obj)
                0x0000000000010452                _ZN6DS24828readByteEv
 .text._ZN6DS248214wireReadStatusEb
                0x0000000000010468       0x18 ../lib/libBT-libs.a(DS2482.cpp.obj)
                0x0000000000010468                _ZN6DS248214wireReadStatusEb
 .text._ZN6DS24828busyWaitEb
                0x0000000000010480       0x3c ../lib/libBT-libs.a(DS2482.cpp.obj)
                0x0000000000010480                _ZN6DS24828busyWaitEb
 .text._ZN6DS24825resetEv
                0x00000000000104bc       0x38 ../lib/libBT-libs.a(DS2482.cpp.obj)
                0x00000000000104bc                _ZN6DS24825resetEv
 .text._ZN6DS24825writeEhh
                0x00000000000104f4       0x3e ../lib/libBT-libs.a(DS2482.cpp.obj)
                0x00000000000104f4                _ZN6DS24825writeEhh
 .text._ZN6DS24824skipEv
                0x0000000000010532        0x6 ../lib/libBT-libs.a(DS2482.cpp.obj)
                0x0000000000010532                _ZN6DS24824skipEv
 .text._ZN6DS24826selectEPh
                0x0000000000010538       0x36 ../lib/libBT-libs.a(DS2482.cpp.obj)
                0x0000000000010538                _ZN6DS24826selectEPh
 .text._ZN6DS24826searchEPh
                0x000000000001056e      0x134 ../lib/libBT-libs.a(DS2482.cpp.obj)
                0x000000000001056e                _ZN6DS24826searchEPh
 .text._ZN6DS24829configureEh
                0x00000000000106a2       0x60 ../lib/libBT-libs.a(DS2482.cpp.obj)
                0x00000000000106a2                _ZN6DS24829configureEh
 .text._ZN6DS24824readEv
                0x0000000000010702       0x3e ../lib/libBT-libs.a(DS2482.cpp.obj)
                0x0000000000010702                _ZN6DS24824readEv
 .text.__vector_1
                0x0000000000010740       0x62 ../lib/libBT-libs.a(WInterrupts.c.obj)
                0x0000000000010740                __vector_1
 .text.__vector_2
                0x00000000000107a2       0x62 ../lib/libBT-libs.a(WInterrupts.c.obj)
                0x00000000000107a2                __vector_2
 .text.__vector_3
                0x0000000000010804       0x62 ../lib/libBT-libs.a(WInterrupts.c.obj)
                0x0000000000010804                __vector_3
 .text._Z8makeWordhh
                0x0000000000010866        0xa ../lib/libBT-libs.a(WMath.cpp.obj)
                0x0000000000010866                _Z8makeWordhh
 .text.libgcc.mul
                0x0000000000010870       0x1e /usr/lib/gcc/avr/4.8.2/avr51/libgcc.a(_umulhisi3.o)
                0x0000000000010870                __umulhisi3
 .text.libgcc.mul
                0x000000000001088e        0xc /usr/lib/gcc/avr/4.8.2/avr51/libgcc.a(_usmulhisi3.o)
                0x000000000001088e                __usmulhisi3
                0x0000000000010890                __usmulhisi3_tail
 .text.libgcc.mul
                0x000000000001089a       0x14 /usr/lib/gcc/avr/4.8.2/avr51/libgcc.a(_muluhisi3.o)
                0x000000000001089a                __muluhisi3
 .text.libgcc.mul
                0x00000000000108ae       0x1e /usr/lib/gcc/avr/4.8.2/avr51/libgcc.a(_mulsi3.o)
                0x00000000000108ae                __mulsi3
 .text.libgcc.div
                0x00000000000108cc       0x28 /usr/lib/gcc/avr/4.8.2/avr51/libgcc.a(_udivmodhi4.o)
                0x00000000000108cc                __udivmodhi4
 .text.libgcc.div
                0x00000000000108f4       0x26 /usr/lib/gcc/avr/4.8.2/avr51/libgcc.a(_divmodhi4.o)
                0x00000000000108f4                __divmodhi4
                0x00000000000108f4                _div
 .text.libgcc.div
                0x000000000001091a       0x44 /usr/lib/gcc/avr/4.8.2/avr51/libgcc.a(_udivmodsi4.o)
                0x000000000001091a                __udivmodsi4
 .text.libgcc.div
                0x000000000001095e       0x28 /usr/lib/gcc/avr/4.8.2/avr51/libgcc.a(_divmodsi4.o)
                0x000000000001095e                __divmodsi4
 .text.libgcc.div
                0x0000000000010986       0x10 /usr/lib/gcc/avr/4.8.2/avr51/libgcc.a(_negsi2.o)
                0x0000000000010986                __negsi2
 .text.libgcc.prologue
                0x0000000000010996       0x38 /usr/lib/gcc/avr/4.8.2/avr51/libgcc.a(_prologue.o)
                0x0000000000010996                __prologue_saves__
 .text.libgcc.prologue
                0x00000000000109ce       0x36 /usr/lib/gcc/avr/4.8.2/avr51/libgcc.a(_epilogue.o)
                0x00000000000109ce                __epilogue_restores__
 .text.libgcc   0x0000000000010a04        0xc /usr/lib/gcc/avr/4.8.2/avr51/libgcc.a(_tablejump.o)
                0x0000000000010a04                __tablejump2__
                0x0000000000010a08                __tablejump__
 .text.libgcc   0x0000000000010a10        0x8 /usr/lib/gcc/avr/4.8.2/avr51/libgcc.a(_tablejump_elpm.o)
                0x0000000000010a10                __tablejump_elpm__
 .text.avr-libc.fplib
                0x0000000000010a18        0xa /usr/lib/gcc/avr/4.8.2/../../../avr/lib/avr51/libm.a(addsf3.o)
                0x0000000000010a18                __subsf3
                0x0000000000010a1a                __addsf3
 .text.avr-libc.fplib
                0x0000000000010a22       0xc0 /usr/lib/gcc/avr/4.8.2/../../../avr/lib/avr51/libm.a(addsf3x.o)
                0x0000000000010a3c                __addsf3x
 .text.avr-libc.fplib
                0x0000000000010ae2        0x8 /usr/lib/gcc/avr/4.8.2/../../../avr/lib/avr51/libm.a(cmpsf2.o)
                0x0000000000010ae2                __lesf2
                0x0000000000010ae2                __nesf2
                0x0000000000010ae2                __eqsf2
                0x0000000000010ae2                __cmpsf2
                0x0000000000010ae2                __ltsf2
 .text.avr-libc.fplib
                0x0000000000010aea        0x4 /usr/lib/gcc/avr/4.8.2/../../../avr/lib/avr51/libm.a(divsf3.o)
                0x0000000000010aea                __divsf3
 .text.avr-libc.fplib
                0x0000000000010aee       0xcc /usr/lib/gcc/avr/4.8.2/../../../avr/lib/avr51/libm.a(divsf3x.o)
                0x0000000000010b04                __divsf3x
                0x0000000000010b08                __divsf3_pse
 .text.avr-libc.fplib
                0x0000000000010bba        0xa /usr/lib/gcc/avr/4.8.2/../../../avr/lib/avr51/libm.a(fixsfsi.o)
                0x0000000000010bba                __fixsfsi
 .text.avr-libc.fplib
                0x0000000000010bc4       0x58 /usr/lib/gcc/avr/4.8.2/../../../avr/lib/avr51/libm.a(fixunssfsi.o)
                0x0000000000010bc4                __fixunssfsi
 .text.avr-libc.fplib
                0x0000000000010c1c       0x7a /usr/lib/gcc/avr/4.8.2/../../../avr/lib/avr51/libm.a(floatsisf.o)
                0x0000000000010c1c                __floatunsisf
                0x0000000000010c20                __floatsisf
 .text.avr-libc.fplib
                0x0000000000010c96       0x48 /usr/lib/gcc/avr/4.8.2/../../../avr/lib/avr51/libm.a(fp_cmp.o)
                0x0000000000010c96                __fp_cmp
 .text.avr-libc.fplib
                0x0000000000010cde        0xc /usr/lib/gcc/avr/4.8.2/../../../avr/lib/avr51/libm.a(fp_inf.o)
                0x0000000000010cde                __fp_inf
 .text.avr-libc.fplib
                0x0000000000010cea        0x6 /usr/lib/gcc/avr/4.8.2/../../../avr/lib/avr51/libm.a(fp_nan.o)
                0x0000000000010cea                __fp_nan
 .text.avr-libc.fplib
                0x0000000000010cf0        0xe /usr/lib/gcc/avr/4.8.2/../../../avr/lib/avr51/libm.a(fp_pscA.o)
                0x0000000000010cf0                __fp_pscA
 .text.avr-libc.fplib
                0x0000000000010cfe        0xe /usr/lib/gcc/avr/4.8.2/../../../avr/lib/avr51/libm.a(fp_pscB.o)
                0x0000000000010cfe                __fp_pscB
 .text.avr-libc.fplib
                0x0000000000010d0c       0x22 /usr/lib/gcc/avr/4.8.2/../../../avr/lib/avr51/libm.a(fp_round.o)
                0x0000000000010d0c                __fp_round
 .text.avr-libc.fplib
                0x0000000000010d2e       0x44 /usr/lib/gcc/avr/4.8.2/../../../avr/lib/avr51/libm.a(fp_split3.o)
                0x0000000000010d2e                __fp_split3
                0x0000000000010d3e                __fp_splitA
 .text.avr-libc.fplib
                0x0000000000010d72        0xe /usr/lib/gcc/avr/4.8.2/../../../avr/lib/avr51/libm.a(fp_zero.o)
                0x0000000000010d72                __fp_zero
                0x0000000000010d74                __fp_szero
 .text.avr-libc.fplib
                0x0000000000010d80        0x8 /usr/lib/gcc/avr/4.8.2/../../../avr/lib/avr51/libm.a(gesf2.o)
                0x0000000000010d80                __gtsf2
                0x0000000000010d80                __gesf2
 .text.avr-libc.fplib
                0x0000000000010d88        0x4 /usr/lib/gcc/avr/4.8.2/../../../avr/lib/avr51/libm.a(mulsf3.o)
                0x0000000000010d88                __mulsf3
 .text.avr-libc.fplib
                0x0000000000010d8c       0xc2 /usr/lib/gcc/avr/4.8.2/../../../avr/lib/avr51/libm.a(mulsf3x.o)
                0x0000000000010da0                __mulsf3x
                0x0000000000010da4                __mulsf3_pse
 .text.avr-libc.fplib
                0x0000000000010e4e       0x98 /usr/lib/gcc/avr/4.8.2/../../../avr/lib/avr51/libm.a(pow.o)
                0x0000000000010e4e                pow
 .text.avr-libc.fplib
                0x0000000000010ee6       0x62 /usr/lib/gcc/avr/4.8.2/../../../avr/lib/avr51/libm.a(exp.o)
                0x0000000000010ef0                exp
 .text.avr-libc.fplib
                0x0000000000010f48       0x4a /usr/lib/gcc/avr/4.8.2/../../../avr/lib/avr51/libm.a(fp_powser.o)
                0x0000000000010f48                __fp_powser
 .text.avr-libc.fplib
                0x0000000000010f92        0xe /usr/lib/gcc/avr/4.8.2/../../../avr/lib/avr51/libm.a(inverse.o)
                0x0000000000010f92                inverse
 .text.avr-libc.fplib
                0x0000000000010fa0       0x6c /usr/lib/gcc/avr/4.8.2/../../../avr/lib/avr51/libm.a(ldexp.o)
                0x0000000000010fa4                ldexp
 .text.avr-libc.fplib
                0x000000000001100c       0x8a /usr/lib/gcc/avr/4.8.2/../../../avr/lib/avr51/libm.a(log.o)
                0x0000000000011016                log
 .text.avr-libc.fplib
                0x0000000000011096       0x66 /usr/lib/gcc/avr/4.8.2/../../../avr/lib/avr51/libm.a(modf.o)
                0x0000000000011096                modff
                0x0000000000011096                modf
 .text.avr-libc.fplib
                0x00000000000110fc       0x1c /usr/lib/gcc/avr/4.8.2/../../../avr/lib/avr51/libm.a(fp_mpack.o)
                0x00000000000110fc                __fp_mpack
                0x0000000000011100                __fp_mpack_finite
 .text.avr-libc
                0x0000000000011118      0x222 /usr/lib/gcc/avr/4.8.2/../../../avr/lib/avr51/libc.a(strtoul.o)
                0x0000000000011118                strtoul
 .text.avr-libc
                0x000000000001133a       0x3a /usr/lib/gcc/avr/4.8.2/../../../avr/lib/avr51/libc.a(atoi.o)
                0x000000000001133a                atoi
 .text.avr-libc
                0x0000000000011374       0x10 /usr/lib/gcc/avr/4.8.2/../../../avr/lib/avr51/libc.a(isspace.o)
                0x0000000000011374                isspace
 .text.avr-libc
                0x0000000000011384       0x12 /usr/lib/gcc/avr/4.8.2/../../../avr/lib/avr51/libc.a(memcpy_P.o)
                0x0000000000011384                memcpy_P
 .text.avr-libc
                0x0000000000011396       0x16 /usr/lib/gcc/avr/4.8.2/../../../avr/lib/avr51/libc.a(strcat_P.o)
                0x0000000000011396                strcat_P
 .text.avr-libc
                0x00000000000113ac        0xe /usr/lib/gcc/avr/4.8.2/../../../avr/lib/avr51/libc.a(strcpy_P.o)
                0x00000000000113ac                strcpy_P
 .text.avr-libc
                0x00000000000113ba       0x12 /usr/lib/gcc/avr/4.8.2/../../../avr/lib/avr51/libc.a(strlen_P.o)
                0x00000000000113ba                __strlen_P
 .text.avr-libc
                0x00000000000113cc       0x12 /usr/lib/gcc/avr/4.8.2/../../../avr/lib/avr51/libc.a(memcpy.o)
                0x00000000000113cc                memcpy
 .text.avr-libc
                0x00000000000113de        0xe /usr/lib/gcc/avr/4.8.2/../../../avr/lib/avr51/libc.a(memset.o)
                0x00000000000113de                memset
 .text.avr-libc
                0x00000000000113ec       0x26 /usr/lib/gcc/avr/4.8.2/../../../avr/lib/avr51/libc.a(strcasecmp.o)
                0x00000000000113ec                strcasecmp
 .text.avr-libc
                0x0000000000011412       0x16 /usr/lib/gcc/avr/4.8.2/../../../avr/lib/avr51/libc.a(strcat.o)
                0x0000000000011412                strcat
 .text.avr-libc
                0x0000000000011428        0xe /usr/lib/gcc/avr/4.8.2/../../../avr/lib/avr51/libc.a(strcpy.o)
                0x0000000000011428                strcpy
 .text.avr-libc
                0x0000000000011436       0x3e /usr/lib/gcc/avr/4.8.2/../../../avr/lib/avr51/libc.a(itoa.o)
                0x0000000000011436                itoa
 .text.avr-libc
                0x0000000000011474       0x10 /usr/lib/gcc/avr/4.8.2/../../../avr/lib/avr51/libc.a(mul10.o)
                0x0000000000011474                __mulhi_const_10
 .text.avr-libc
                0x0000000000011484       0x46 /usr/lib/gcc/avr/4.8.2/../../../avr/lib/avr51/libc.a(ultoa.o)
                0x0000000000011484                ultoa
 .text.avr-libc
                0x00000000000114ca       0x20 /usr/lib/gcc/avr/4.8.2/../../../avr/lib/avr51/libc.a(eerd_block_atmega1284p.o)
                0x00000000000114ca                __eerd_block_m1284p
                0x00000000000114ce                __eerd_blraw_m1284p
 .text.avr-libc
                0x00000000000114ea       0x10 /usr/lib/gcc/avr/4.8.2/../../../avr/lib/avr51/libc.a(eerd_byte_atmega1284p.o)
                0x00000000000114ea                __eerd_byte_m1284p
 .text.avr-libc
                0x00000000000114fa       0x12 /usr/lib/gcc/avr/4.8.2/../../../avr/lib/avr51/libc.a(eewr_block_atmega1284p.o)
                0x00000000000114fa                __eewr_block_m1284p
 .text.avr-libc
                0x000000000001150c       0x1c /usr/lib/gcc/avr/4.8.2/../../../avr/lib/avr51/libc.a(eewr_byte_atmega1284p.o)
                0x000000000001150c                __eewr_byte_m1284p
                0x000000000001150e                __eewr_r18_m1284p
 .text.avr-libc
                0x0000000000011528        0x6 /usr/lib/gcc/avr/4.8.2/../../../avr/lib/avr51/libc.a(cty_isfalse.o)
                0x0000000000011528                __ctype_isfalse
                0x000000000001152c                __ctype_istrue
 .text.avr-libc
                0x000000000001152e       0x20 /usr/lib/gcc/avr/4.8.2/../../../avr/lib/avr51/libc.a(strrev.o)
                0x000000000001152e                strrev
                0x000000000001154e                . = ALIGN (0x2)
 *(.fini9)
 .fini9         0x000000000001154e        0x0 /usr/lib/gcc/avr/4.8.2/avr51/libgcc.a(_exit.o)
                0x000000000001154e                exit
                0x000000000001154e                _exit
 *(.fini9)
 *(.fini8)
 *(.fini8)
 *(.fini7)
 *(.fini7)
 *(.fini6)
 .fini6         0x000000000001154e       0x1e /usr/lib/gcc/avr/4.8.2/avr51/libgcc.a(_dtors.o)
                0x000000000001154e                __do_global_dtors
 *(.fini6)
 *(.fini5)
 *(.fini5)
 *(.fini4)
 *(.fini4)
 *(.fini3)
 *(.fini3)
 *(.fini2)
 *(.fini2)
 *(.fini1)
 *(.fini1)
 *(.fini0)
 .fini0         0x000000000001156c        0x4 /usr/lib/gcc/avr/4.8.2/avr51/libgcc.a(_exit.o)
 *(.fini0)
                0x0000000000011570                _etext = .

.data           0x0000000000800100      0x1f2 load address 0x0000000000011570
                0x0000000000800100                PROVIDE (__data_start, .)
 *(.data)
 .data          0x0000000000800100        0x0 /usr/lib/gcc/avr/4.8.2/../../../avr/lib/avr51/crtm1284p.o
 .data          0x0000000000800100        0x0 CMakeFiles/BrewTroller-OT_DX1_STEAMPWM.elf.dir/BrewCore.cpp.obj
 .data          0x0000000000800100        0x0 CMakeFiles/BrewTroller-OT_DX1_STEAMPWM.elf.dir/BrewTroller.cpp.obj
 .data          0x0000000000800100        0x0 CMakeFiles/BrewTroller-OT_DX1_STEAMPWM.elf.dir/Com.cpp.obj
 .data          0x0000000000800100        0x0 CMakeFiles/BrewTroller-OT_DX1_STEAMPWM.elf.dir/Com_BTPD.cpp.obj
 .data          0x0000000000800100        0x0 CMakeFiles/BrewTroller-OT_DX1_STEAMPWM.elf.dir/Com_RGBIO8.cpp.obj
 .data          0x0000000000800100        0x0 CMakeFiles/BrewTroller-OT_DX1_STEAMPWM.elf.dir/Com_S0ASC.cpp.obj
 .data          0x0000000000800100        0x0 CMakeFiles/BrewTroller-OT_DX1_STEAMPWM.elf.dir/EEPROM.cpp.obj
 .data          0x0000000000800100        0x0 CMakeFiles/BrewTroller-OT_DX1_STEAMPWM.elf.dir/Events.cpp.obj
 .data          0x0000000000800100        0x0 CMakeFiles/BrewTroller-OT_DX1_STEAMPWM.elf.dir/Outputs.cpp.obj
 .data          0x0000000000800100        0x0 CMakeFiles/BrewTroller-OT_DX1_STEAMPWM.elf.dir/PVOut.cpp.obj
 .data          0x0000000000800100        0x0 CMakeFiles/BrewTroller-OT_DX1_STEAMPWM.elf.dir/StepLogic.cpp.obj
 .data          0x0000000000800100        0x0 CMakeFiles/BrewTroller-OT_DX1_STEAMPWM.elf.dir/Temp.cpp.obj
 .data          0x0000000000800100        0x0 CMakeFiles/BrewTroller-OT_DX1_STEAMPWM.elf.dir/Timer.cpp.obj
 .data          0x0000000000800100        0x0 CMakeFiles/BrewTroller-OT_DX1_STEAMPWM.elf.dir/UI.cpp.obj
 .data          0x0000000000800100        0x0 CMakeFiles/BrewTroller-OT_DX1_STEAMPWM.elf.dir/UIStrings.cpp.obj
 .data          0x0000000000800100        0x0 CMakeFiles/BrewTroller-OT_DX1_STEAMPWM.elf.dir/Util.cpp.obj
 .data          0x0000000000800100        0x0 CMakeFiles/BrewTroller-OT_DX1_STEAMPWM.elf.dir/Vessel.cpp.obj
 .data          0x0000000000800100        0x0 CMakeFiles/BrewTroller-OT_DX1_STEAMPWM.elf.dir/Volume.cpp.obj
 .data          0x0000000000800100        0x0 ../lib/libBT-libs.a(malloc.c.obj)
 .data          0x0000000000800100        0x0 ../lib/libBT-libs.a(HardwareSerial.cpp.obj)
 .data          0x0000000000800100        0x0 ../lib/libBT-libs.a(new.cpp.obj)
 .data          0x0000000000800100        0x0 ../lib/libBT-libs.a(Print.cpp.obj)
 .data          0x0000000000800100        0x0 ../lib/libBT-libs.a(wiring.c.obj)
 .data          0x0000000000800100        0x0 ../lib/libBT-libs.a(wiring_analog.c.obj)
 .data          0x0000000000800100        0x0 ../lib/libBT-libs.a(wiring_digital.c.obj)
 .data          0x0000000000800100        0x0 ../lib/libBT-libs.a(WString.cpp.obj)
 .data          0x0000000000800100        0x0 ../lib/libBT-libs.a(EEPROM.cpp.obj)
 .data          0x0000000000800100        0x0 ../lib/libBT-libs.a(Wire.cpp.obj)
 .data          0x0000000000800100        0x0 ../lib/libBT-libs.a(twi.c.obj)
 .data          0x0000000000800100        0x0 ../lib/libBT-libs.a(encoder.cpp.obj)
 .data          0x0000000000800100        0x0 ../lib/libBT-libs.a(pin.cpp.obj)
 .data          0x0000000000800100        0x0 ../lib/libBT-libs.a(menu.cpp.obj)
 .data          0x0000000000800100        0x0 ../lib/libBT-libs.a(ModbusMaster.cpp.obj)
 .data          0x0000000000800100        0x0 ../lib/libBT-libs.a(PID_Beta6.cpp.obj)
 .data          0x0000000000800100        0x0 ../lib/libBT-libs.a(DS2482.cpp.obj)
 .data          0x0000000000800100        0x0 ../lib/libBT-libs.a(realloc.c.obj)
 .data          0x0000000000800100        0x0 ../lib/libBT-libs.a(WInterrupts.c.obj)
 .data          0x0000000000800100        0x0 ../lib/libBT-libs.a(WMath.cpp.obj)
 .data          0x0000000000800100        0x0 /usr/lib/gcc/avr/4.8.2/avr51/libgcc.a(_umulhisi3.o)
 .data          0x0000000000800100        0x0 /usr/lib/gcc/avr/4.8.2/avr51/libgcc.a(_usmulhisi3.o)
 .data          0x0000000000800100        0x0 /usr/lib/gcc/avr/4.8.2/avr51/libgcc.a(_muluhisi3.o)
 .data          0x0000000000800100        0x0 /usr/lib/gcc/avr/4.8.2/avr51/libgcc.a(_mulshisi3.o)
 .data          0x0000000000800100        0x0 /usr/lib/gcc/avr/4.8.2/avr51/libgcc.a(_mulsi3.o)
 .data          0x0000000000800100        0x0 /usr/lib/gcc/avr/4.8.2/avr51/libgcc.a(_udivmodhi4.o)
 .data          0x0000000000800100        0x0 /usr/lib/gcc/avr/4.8.2/avr51/libgcc.a(_divmodhi4.o)
 .data          0x0000000000800100        0x0 /usr/lib/gcc/avr/4.8.2/avr51/libgcc.a(_udivmodsi4.o)
 .data          0x0000000000800100        0x0 /usr/lib/gcc/avr/4.8.2/avr51/libgcc.a(_divmodsi4.o)
 .data          0x0000000000800100        0x0 /usr/lib/gcc/avr/4.8.2/avr51/libgcc.a(_negsi2.o)
 .data          0x0000000000800100        0x0 /usr/lib/gcc/avr/4.8.2/avr51/libgcc.a(_prologue.o)
 .data          0x0000000000800100        0x0 /usr/lib/gcc/avr/4.8.2/avr51/libgcc.a(_epilogue.o)
 .data          0x0000000000800100        0x0 /usr/lib/gcc/avr/4.8.2/avr51/libgcc.a(_exit.o)
 .data          0x0000000000800100        0x0 /usr/lib/gcc/avr/4.8.2/avr51/libgcc.a(_tablejump.o)
 .data          0x0000000000800100        0x0 /usr/lib/gcc/avr/4.8.2/avr51/libgcc.a(_copy_data.o)
 .data          0x0000000000800100        0x0 /usr/lib/gcc/avr/4.8.2/avr51/libgcc.a(_clear_bss.o)
 .data          0x0000000000800100        0x0 /usr/lib/gcc/avr/4.8.2/avr51/libgcc.a(_ctors.o)
 .data          0x0000000000800100        0x0 /usr/lib/gcc/avr/4.8.2/avr51/libgcc.a(_dtors.o)
 .data          0x0000000000800100        0x0 /usr/lib/gcc/avr/4.8.2/avr51/libgcc.a(_tablejump_elpm.o)
 .data          0x0000000000800100        0x0 /usr/lib/gcc/avr/4.8.2/../../../avr/lib/avr51/libm.a(addsf3.o)
 .data          0x0000000000800100        0x0 /usr/lib/gcc/avr/4.8.2/../../../avr/lib/avr51/libm.a(addsf3x.o)
 .data          0x0000000000800100        0x0 /usr/lib/gcc/avr/4.8.2/../../../avr/lib/avr51/libm.a(cmpsf2.o)
 .data          0x0000000000800100        0x0 /usr/lib/gcc/avr/4.8.2/../../../avr/lib/avr51/libm.a(divsf3.o)
 .data          0x0000000000800100        0x0 /usr/lib/gcc/avr/4.8.2/../../../avr/lib/avr51/libm.a(divsf3x.o)
 .data          0x0000000000800100        0x0 /usr/lib/gcc/avr/4.8.2/../../../avr/lib/avr51/libm.a(fixsfsi.o)
 .data          0x0000000000800100        0x0 /usr/lib/gcc/avr/4.8.2/../../../avr/lib/avr51/libm.a(fixunssfsi.o)
 .data          0x0000000000800100        0x0 /usr/lib/gcc/avr/4.8.2/../../../avr/lib/avr51/libm.a(floatsisf.o)
 .data          0x0000000000800100        0x0 /usr/lib/gcc/avr/4.8.2/../../../avr/lib/avr51/libm.a(fp_cmp.o)
 .data          0x0000000000800100        0x0 /usr/lib/gcc/avr/4.8.2/../../../avr/lib/avr51/libm.a(fp_inf.o)
 .data          0x0000000000800100        0x0 /usr/lib/gcc/avr/4.8.2/../../../avr/lib/avr51/libm.a(fp_nan.o)
 .data          0x0000000000800100        0x0 /usr/lib/gcc/avr/4.8.2/../../../avr/lib/avr51/libm.a(fp_pscA.o)
 .data          0x0000000000800100        0x0 /usr/lib/gcc/avr/4.8.2/../../../avr/lib/avr51/libm.a(fp_pscB.o)
 .data          0x0000000000800100        0x0 /usr/lib/gcc/avr/4.8.2/../../../avr/lib/avr51/libm.a(fp_round.o)
 .data          0x0000000000800100        0x0 /usr/lib/gcc/avr/4.8.2/../../../avr/lib/avr51/libm.a(fp_split3.o)
 .data          0x0000000000800100        0x0 /usr/lib/gcc/avr/4.8.2/../../../avr/lib/avr51/libm.a(fp_zero.o)
 .data          0x0000000000800100        0x0 /usr/lib/gcc/avr/4.8.2/../../../avr/lib/avr51/libm.a(gesf2.o)
 .data          0x0000000000800100        0x0 /usr/lib/gcc/avr/4.8.2/../../../avr/lib/avr51/libm.a(mulsf3.o)
 .data          0x0000000000800100        0x0 /usr/lib/gcc/avr/4.8.2/../../../avr/lib/avr51/libm.a(mulsf3x.o)
 .data          0x0000000000800100        0x0 /usr/lib/gcc/avr/4.8.2/../../../avr/lib/avr51/libm.a(pow.o)
 .data          0x0000000000800100        0x0 /usr/lib/gcc/avr/4.8.2/../../../avr/lib/avr51/libm.a(unordsf2.o)
 .data          0x0000000000800100        0x0 /usr/lib/gcc/avr/4.8.2/../../../avr/lib/avr51/libm.a(exp.o)
 .data          0x0000000000800100        0x0 /usr/lib/gcc/avr/4.8.2/../../../avr/lib/avr51/libm.a(fp_powser.o)
 .data          0x0000000000800100        0x0 /usr/lib/gcc/avr/4.8.2/../../../avr/lib/avr51/libm.a(inverse.o)
 .data          0x0000000000800100        0x0 /usr/lib/gcc/avr/4.8.2/../../../avr/lib/avr51/libm.a(ldexp.o)
 .data          0x0000000000800100        0x0 /usr/lib/gcc/avr/4.8.2/../../../avr/lib/avr51/libm.a(log.o)
 .data          0x0000000000800100        0x0 /usr/lib/gcc/avr/4.8.2/../../../avr/lib/avr51/libm.a(modf.o)
 .data          0x0000000000800100        0x0 /usr/lib/gcc/avr/4.8.2/../../../avr/lib/avr51/libm.a(fp_mpack.o)
 .data          0x0000000000800100        0x4 /usr/lib/gcc/avr/4.8.2/../../../avr/lib/avr51/libc.a(random.o)
 .data          0x0000000000800104        0x0 /usr/lib/gcc/avr/4.8.2/../../../avr/lib/avr51/libc.a(strtoul.o)
 .data          0x0000000000800104        0x0 /usr/lib/gcc/avr/4.8.2/../../../avr/lib/avr51/libc.a(atoi.o)
 .data          0x0000000000800104        0x0 /usr/lib/gcc/avr/4.8.2/../../../avr/lib/avr51/libc.a(atol.o)
 .data          0x0000000000800104        0x0 /usr/lib/gcc/avr/4.8.2/../../../avr/lib/avr51/libc.a(isspace.o)
 .data          0x0000000000800104        0x0 /usr/lib/gcc/avr/4.8.2/../../../avr/lib/avr51/libc.a(tolower.o)
 .data          0x0000000000800104        0x0 /usr/lib/gcc/avr/4.8.2/../../../avr/lib/avr51/libc.a(toupper.o)
 .data          0x0000000000800104        0x0 /usr/lib/gcc/avr/4.8.2/../../../avr/lib/avr51/libc.a(memcpy_P.o)
 .data          0x0000000000800104        0x0 /usr/lib/gcc/avr/4.8.2/../../../avr/lib/avr51/libc.a(strcat_P.o)
 .data          0x0000000000800104        0x0 /usr/lib/gcc/avr/4.8.2/../../../avr/lib/avr51/libc.a(strcpy_P.o)
 .data          0x0000000000800104        0x0 /usr/lib/gcc/avr/4.8.2/../../../avr/lib/avr51/libc.a(strlen_P.o)
 .data          0x0000000000800104        0x0 /usr/lib/gcc/avr/4.8.2/../../../avr/lib/avr51/libc.a(memcpy.o)
 .data          0x0000000000800104        0x0 /usr/lib/gcc/avr/4.8.2/../../../avr/lib/avr51/libc.a(memmove.o)
 .data          0x0000000000800104        0x0 /usr/lib/gcc/avr/4.8.2/../../../avr/lib/avr51/libc.a(memset.o)
 .data          0x0000000000800104        0x0 /usr/lib/gcc/avr/4.8.2/../../../avr/lib/avr51/libc.a(strcasecmp.o)
 .data          0x0000000000800104        0x0 /usr/lib/gcc/avr/4.8.2/../../../avr/lib/avr51/libc.a(strcat.o)
 .data          0x0000000000800104        0x0 /usr/lib/gcc/avr/4.8.2/../../../avr/lib/avr51/libc.a(strchr.o)
 .data          0x0000000000800104        0x0 /usr/lib/gcc/avr/4.8.2/../../../avr/lib/avr51/libc.a(strcmp.o)
 .data          0x0000000000800104        0x0 /usr/lib/gcc/avr/4.8.2/../../../avr/lib/avr51/libc.a(strcpy.o)
 .data          0x0000000000800104        0x0 /usr/lib/gcc/avr/4.8.2/../../../avr/lib/avr51/libc.a(strncmp.o)
 .data          0x0000000000800104        0x0 /usr/lib/gcc/avr/4.8.2/../../../avr/lib/avr51/libc.a(strncpy.o)
 .data          0x0000000000800104        0x0 /usr/lib/gcc/avr/4.8.2/../../../avr/lib/avr51/libc.a(strrchr.o)
 .data          0x0000000000800104        0x0 /usr/lib/gcc/avr/4.8.2/../../../avr/lib/avr51/libc.a(strstr.o)
 .data          0x0000000000800104        0x0 /usr/lib/gcc/avr/4.8.2/../../../avr/lib/avr51/libc.a(itoa.o)
 .data          0x0000000000800104        0x0 /usr/lib/gcc/avr/4.8.2/../../../avr/lib/avr51/libc.a(ltoa.o)
 .data          0x0000000000800104        0x0 /usr/lib/gcc/avr/4.8.2/../../../avr/lib/avr51/libc.a(mulsi10.o)
 .data          0x0000000000800104        0x0 /usr/lib/gcc/avr/4.8.2/../../../avr/lib/avr51/libc.a(mul10.o)
 .data          0x0000000000800104        0x0 /usr/lib/gcc/avr/4.8.2/../../../avr/lib/avr51/libc.a(ultoa.o)
 .data          0x0000000000800104        0x0 /usr/lib/gcc/avr/4.8.2/../../../avr/lib/avr51/libc.a(utoa.o)
 .data          0x0000000000800104        0x0 /usr/lib/gcc/avr/4.8.2/../../../avr/lib/avr51/libc.a(sprintf.o)
 .data          0x0000000000800104        0x0 /usr/lib/gcc/avr/4.8.2/../../../avr/lib/avr51/libc.a(vfprintf_std.o)
 .data          0x0000000000800104        0x0 /usr/lib/gcc/avr/4.8.2/../../../avr/lib/avr51/libc.a(eerd_block_atmega1284p.o)
 .data          0x0000000000800104        0x0 /usr/lib/gcc/avr/4.8.2/../../../avr/lib/avr51/libc.a(eerd_byte_atmega1284p.o)
 .data          0x0000000000800104        0x0 /usr/lib/gcc/avr/4.8.2/../../../avr/lib/avr51/libc.a(eewr_block_atmega1284p.o)
 .data          0x0000000000800104        0x0 /usr/lib/gcc/avr/4.8.2/../../../avr/lib/avr51/libc.a(eewr_byte_atmega1284p.o)
 .data          0x0000000000800104        0x0 /usr/lib/gcc/avr/4.8.2/../../../avr/lib/avr51/libc.a(errno.o)
 .data          0x0000000000800104        0x0 /usr/lib/gcc/avr/4.8.2/../../../avr/lib/avr51/libc.a(cty_isfalse.o)
 .data          0x0000000000800104        0x0 /usr/lib/gcc/avr/4.8.2/../../../avr/lib/avr51/libc.a(strnlen_P.o)
 .data          0x0000000000800104        0x0 /usr/lib/gcc/avr/4.8.2/../../../avr/lib/avr51/libc.a(strnlen.o)
 .data          0x0000000000800104        0x0 /usr/lib/gcc/avr/4.8.2/../../../avr/lib/avr51/libc.a(strrev.o)
 .data          0x0000000000800104        0x0 /usr/lib/gcc/avr/4.8.2/../../../avr/lib/avr51/libc.a(fputc.o)
 .data          0x0000000000800104        0x0 /usr/lib/gcc/avr/4.8.2/../../../avr/lib/avr51/libc.a(ultoa_invert.o)
 *(.data*)
 .data.hoptimes
                0x0000000000800104       0x16 CMakeFiles/BrewTroller-OT_DX1_STEAMPWM.elf.dir/BrewTroller.cpp.obj
                0x0000000000800104                hoptimes
 .data.logData  0x000000000080011a        0x1 CMakeFiles/BrewTroller-OT_DX1_STEAMPWM.elf.dir/BrewTroller.cpp.obj
                0x000000000080011a                logData
 .data.doInit   0x000000000080011b        0x1 CMakeFiles/BrewTroller-OT_DX1_STEAMPWM.elf.dir/UI.cpp.obj
                0x000000000080011b                doInit
 .data.__malloc_heap_end
                0x000000000080011c        0x2 ../lib/libBT-libs.a(malloc.c.obj)
                0x000000000080011c                __malloc_heap_end
 .data.__malloc_heap_start
                0x000000000080011e        0x2 ../lib/libBT-libs.a(malloc.c.obj)
                0x000000000080011e                __malloc_heap_start
 .data.__malloc_margin
                0x0000000000800120        0x2 ../lib/libBT-libs.a(malloc.c.obj)
                0x0000000000800120                __malloc_margin
 .data.analog_reference
                0x0000000000800122        0x1 ../lib/libBT-libs.a(wiring_analog.c.obj)
                0x0000000000800122                analog_reference
 *(.rodata)
 .rodata        0x0000000000800123       0x14 CMakeFiles/BrewTroller-OT_DX1_STEAMPWM.elf.dir/UI.cpp.obj
 *(.rodata*)
 .rodata.str1.1
                0x0000000000800137        0xf CMakeFiles/BrewTroller-OT_DX1_STEAMPWM.elf.dir/Com.cpp.obj
                                         0x11 (size before relaxing)
 .rodata.str1.1
                0x0000000000800146       0x11 CMakeFiles/BrewTroller-OT_DX1_STEAMPWM.elf.dir/Com_BTPD.cpp.obj
                                         0x13 (size before relaxing)
 .rodata._ZZ12brewStepFunchE19brewStepFunctionMap
                0x0000000000800157       0x1e CMakeFiles/BrewTroller-OT_DX1_STEAMPWM.elf.dir/StepLogic.cpp.obj
 .rodata.str1.1
                0x0000000000800175      0x157 CMakeFiles/BrewTroller-OT_DX1_STEAMPWM.elf.dir/UI.cpp.obj
                                        0x15c (size before relaxing)
 .rodata.str1.1
                0x00000000008002cc        0x2 CMakeFiles/BrewTroller-OT_DX1_STEAMPWM.elf.dir/Util.cpp.obj
 .rodata.CSWTCH.37
                0x00000000008002ce        0x3 CMakeFiles/BrewTroller-OT_DX1_STEAMPWM.elf.dir/Vessel.cpp.obj
 .rodata._ZTV14HardwareSerial
                0x00000000008002d1       0x10 ../lib/libBT-libs.a(HardwareSerial.cpp.obj)
                0x00000000008002d1                _ZTV14HardwareSerial
 .rodata._ZTV7TwoWire
                0x00000000008002e1       0x10 ../lib/libBT-libs.a(Wire.cpp.obj)
                0x00000000008002e1                _ZTV7TwoWire
 .rodata.str1.1
                0x0000000000000000        0x1 ../lib/libBT-libs.a(menu.cpp.obj)
 *(.gnu.linkonce.d*)
                0x00000000008002f2                . = ALIGN (0x2)
 *fill*         0x00000000008002f1        0x1 
                0x00000000008002f2                _edata = .
                0x00000000008002f2                PROVIDE (__data_end, .)

.bss            0x00000000008002f2      0xd1d
                0x00000000008002f2                PROVIDE (__bss_start, .)
 *(.bss)
 *(.bss*)
 .bss.hbStart   0x00000000008002f2        0x4 CMakeFiles/BrewTroller-OT_DX1_STEAMPWM.elf.dir/BrewCore.cpp.obj
                0x00000000008002f2                hbStart
 .bss.scheduler
                0x00000000008002f6        0x1 CMakeFiles/BrewTroller-OT_DX1_STEAMPWM.elf.dir/BrewCore.cpp.obj
                0x00000000008002f6                scheduler
 .bss.pitchTemp
                0x00000000008002f7        0x1 CMakeFiles/BrewTroller-OT_DX1_STEAMPWM.elf.dir/BrewTroller.cpp.obj
                0x00000000008002f7                pitchTemp
 .bss.boilControlState
                0x00000000008002f8        0x1 CMakeFiles/BrewTroller-OT_DX1_STEAMPWM.elf.dir/BrewTroller.cpp.obj
                0x00000000008002f8                boilControlState
 .bss.alarmStatus
                0x00000000008002f9        0x1 CMakeFiles/BrewTroller-OT_DX1_STEAMPWM.elf.dir/BrewTroller.cpp.obj
                0x00000000008002f9                alarmStatus
 .bss.timerStatus
                0x00000000008002fa        0x2 CMakeFiles/BrewTroller-OT_DX1_STEAMPWM.elf.dir/BrewTroller.cpp.obj
                0x00000000008002fa                timerStatus
 .bss.lastTime  0x00000000008002fc        0x8 CMakeFiles/BrewTroller-OT_DX1_STEAMPWM.elf.dir/BrewTroller.cpp.obj
                0x00000000008002fc                lastTime
 .bss.timerValue
                0x0000000000800304        0x8 CMakeFiles/BrewTroller-OT_DX1_STEAMPWM.elf.dir/BrewTroller.cpp.obj
                0x0000000000800304                timerValue
 .bss.pid       0x000000000080030c       0x4b CMakeFiles/BrewTroller-OT_DX1_STEAMPWM.elf.dir/BrewTroller.cpp.obj
                0x000000000080030c                pid
 .bss.boilPwr   0x0000000000800357        0x1 CMakeFiles/BrewTroller-OT_DX1_STEAMPWM.elf.dir/BrewTroller.cpp.obj
                0x0000000000800357                boilPwr
 .bss.cycleStart
                0x0000000000800358       0x10 CMakeFiles/BrewTroller-OT_DX1_STEAMPWM.elf.dir/BrewTroller.cpp.obj
                0x0000000000800358                cycleStart
 .bss.setpoint  0x0000000000800368        0x4 CMakeFiles/BrewTroller-OT_DX1_STEAMPWM.elf.dir/BrewTroller.cpp.obj
                0x0000000000800368                setpoint
 .bss.PIDOutput
                0x000000000080036c        0x4 CMakeFiles/BrewTroller-OT_DX1_STEAMPWM.elf.dir/BrewTroller.cpp.obj
                0x000000000080036c                PIDOutput
 .bss.PIDInput  0x0000000000800370        0x4 CMakeFiles/BrewTroller-OT_DX1_STEAMPWM.elf.dir/BrewTroller.cpp.obj
                0x0000000000800370                PIDInput
 .bss.buf       0x0000000000800374       0x14 CMakeFiles/BrewTroller-OT_DX1_STEAMPWM.elf.dir/BrewTroller.cpp.obj
                0x0000000000800374                buf
 .bss.ValvesMB  0x0000000000800388        0x8 CMakeFiles/BrewTroller-OT_DX1_STEAMPWM.elf.dir/BrewTroller.cpp.obj
                0x0000000000800388                ValvesMB
 .bss.Valves    0x0000000000800390        0x7 CMakeFiles/BrewTroller-OT_DX1_STEAMPWM.elf.dir/BrewTroller.cpp.obj
                0x0000000000800390                Valves
 .bss.autoValve
                0x0000000000800397        0x8 CMakeFiles/BrewTroller-OT_DX1_STEAMPWM.elf.dir/BrewTroller.cpp.obj
                0x0000000000800397                autoValve
 .bss.actProfiles
                0x000000000080039f        0x4 CMakeFiles/BrewTroller-OT_DX1_STEAMPWM.elf.dir/BrewTroller.cpp.obj
                0x000000000080039f                actProfiles
 .bss.vlvConfig
                0x00000000008003a3       0x50 CMakeFiles/BrewTroller-OT_DX1_STEAMPWM.elf.dir/BrewTroller.cpp.obj
                0x00000000008003a3                vlvConfig
 .bss.LCD       0x00000000008003f3       0x52 CMakeFiles/BrewTroller-OT_DX1_STEAMPWM.elf.dir/BrewTroller.cpp.obj
                0x00000000008003f3                LCD
 .bss.temp      0x0000000000800445       0x12 CMakeFiles/BrewTroller-OT_DX1_STEAMPWM.elf.dir/BrewTroller.cpp.obj
                0x0000000000800445                temp
 .bss.tSensor   0x0000000000800457       0x48 CMakeFiles/BrewTroller-OT_DX1_STEAMPWM.elf.dir/BrewTroller.cpp.obj
                0x0000000000800457                tSensor
 .bss.hbPin     0x000000000080049f        0x4 CMakeFiles/BrewTroller-OT_DX1_STEAMPWM.elf.dir/BrewTroller.cpp.obj
                0x000000000080049f                hbPin
 .bss.estop     0x00000000008004a3        0x1 CMakeFiles/BrewTroller-OT_DX1_STEAMPWM.elf.dir/BrewTroller.cpp.obj
                0x00000000008004a3                estop
 .bss.TriggerPin
                0x00000000008004a4        0xa CMakeFiles/BrewTroller-OT_DX1_STEAMPWM.elf.dir/BrewTroller.cpp.obj
                0x00000000008004a4                TriggerPin
 .bss.digInPin  0x00000000008004ae       0x18 CMakeFiles/BrewTroller-OT_DX1_STEAMPWM.elf.dir/BrewTroller.cpp.obj
                0x00000000008004ae                digInPin
 .bss.alarmPin  0x00000000008004c6        0x4 CMakeFiles/BrewTroller-OT_DX1_STEAMPWM.elf.dir/BrewTroller.cpp.obj
                0x00000000008004c6                alarmPin
 .bss.vessels   0x00000000008004ca        0x6 CMakeFiles/BrewTroller-OT_DX1_STEAMPWM.elf.dir/BrewTroller.cpp.obj
                0x00000000008004ca                vessels
 .bss.softReset
                0x00000000008004d0        0x2 CMakeFiles/BrewTroller-OT_DX1_STEAMPWM.elf.dir/BrewTroller.cpp.obj
                0x00000000008004d0                softReset
 .bss.btnicS0   0x00000000008004d2      0x405 CMakeFiles/BrewTroller-OT_DX1_STEAMPWM.elf.dir/Com.cpp.obj
                0x00000000008004d2                btnicS0
 .bss.btnicI2C  0x00000000008008d7      0x405 CMakeFiles/BrewTroller-OT_DX1_STEAMPWM.elf.dir/Com.cpp.obj
                0x00000000008008d7                btnicI2C
 .bss.lastBTPD  0x0000000000800cdc        0x4 CMakeFiles/BrewTroller-OT_DX1_STEAMPWM.elf.dir/Com_BTPD.cpp.obj
                0x0000000000800cdc                lastBTPD
 .bss._ZZ15brewStepPreheat10StepSignalP13ProgramThreadE13preheatVessel
                0x0000000000800ce0        0x1 CMakeFiles/BrewTroller-OT_DX1_STEAMPWM.elf.dir/StepLogic.cpp.obj
 .bss.programThread
                0x0000000000800ce1        0x4 CMakeFiles/BrewTroller-OT_DX1_STEAMPWM.elf.dir/StepLogic.cpp.obj
                0x0000000000800ce1                programThread
 .bss.triggered
                0x0000000000800ce5        0x2 CMakeFiles/BrewTroller-OT_DX1_STEAMPWM.elf.dir/StepLogic.cpp.obj
                0x0000000000800ce5                triggered
 .bss.boilAdds  0x0000000000800ce7        0x2 CMakeFiles/BrewTroller-OT_DX1_STEAMPWM.elf.dir/StepLogic.cpp.obj
                0x0000000000800ce7                boilAdds
 .bss.grainInStart
                0x0000000000800ce9        0x4 CMakeFiles/BrewTroller-OT_DX1_STEAMPWM.elf.dir/StepLogic.cpp.obj
                0x0000000000800ce9                grainInStart
 .bss.lastHop   0x0000000000800ced        0x4 CMakeFiles/BrewTroller-OT_DX1_STEAMPWM.elf.dir/StepLogic.cpp.obj
                0x0000000000800ced                lastHop
 .bss.convStart
                0x0000000000800cf1        0x4 CMakeFiles/BrewTroller-OT_DX1_STEAMPWM.elf.dir/Temp.cpp.obj
                0x0000000000800cf1                convStart
 .bss.masterIsConfigured
                0x0000000000800cf5        0x1 CMakeFiles/BrewTroller-OT_DX1_STEAMPWM.elf.dir/Temp.cpp.obj
                0x0000000000800cf5                masterIsConfigured
 .bss.ds        0x0000000000800cf6        0xc CMakeFiles/BrewTroller-OT_DX1_STEAMPWM.elf.dir/Temp.cpp.obj
                0x0000000000800cf6                ds
 .bss.lastEEPROMWrite
                0x0000000000800d02        0x2 CMakeFiles/BrewTroller-OT_DX1_STEAMPWM.elf.dir/Timer.cpp.obj
                0x0000000000800d02                lastEEPROMWrite
 .bss.buzzerCycleStart
                0x0000000000800d04        0x4 CMakeFiles/BrewTroller-OT_DX1_STEAMPWM.elf.dir/Timer.cpp.obj
                0x0000000000800d04                buzzerCycleStart
 .bss.timerLastPrint
                0x0000000000800d08        0x4 CMakeFiles/BrewTroller-OT_DX1_STEAMPWM.elf.dir/UI.cpp.obj
                0x0000000000800d08                timerLastPrint
 .bss.screenLock
                0x0000000000800d0c        0x1 CMakeFiles/BrewTroller-OT_DX1_STEAMPWM.elf.dir/UI.cpp.obj
                0x0000000000800d0c                screenLock
 .bss.activeScreen
                0x0000000000800d0d        0x1 CMakeFiles/BrewTroller-OT_DX1_STEAMPWM.elf.dir/UI.cpp.obj
                0x0000000000800d0d                activeScreen
 .bss.volCount  0x0000000000800d0e        0x1 CMakeFiles/BrewTroller-OT_DX1_STEAMPWM.elf.dir/Volume.cpp.obj
                0x0000000000800d0e                volCount
 .bss.lastVolChk
                0x0000000000800d0f        0x4 CMakeFiles/BrewTroller-OT_DX1_STEAMPWM.elf.dir/Volume.cpp.obj
                0x0000000000800d0f                lastVolChk
 .bss.Serial1   0x0000000000800d13       0x22 ../lib/libBT-libs.a(HardwareSerial.cpp.obj)
                0x0000000000800d13                Serial1
 .bss.Serial    0x0000000000800d35       0x22 ../lib/libBT-libs.a(HardwareSerial.cpp.obj)
                0x0000000000800d35                Serial
 .bss.tx_buffer1
                0x0000000000800d57       0x44 ../lib/libBT-libs.a(HardwareSerial.cpp.obj)
                0x0000000000800d57                tx_buffer1
 .bss.rx_buffer1
                0x0000000000800d9b       0x44 ../lib/libBT-libs.a(HardwareSerial.cpp.obj)
                0x0000000000800d9b                rx_buffer1
 .bss.tx_buffer
                0x0000000000800ddf       0x44 ../lib/libBT-libs.a(HardwareSerial.cpp.obj)
                0x0000000000800ddf                tx_buffer
 .bss.rx_buffer
                0x0000000000800e23       0x44 ../lib/libBT-libs.a(HardwareSerial.cpp.obj)
                0x0000000000800e23                rx_buffer
 .bss.timer0_fract
                0x0000000000800e67        0x1 ../lib/libBT-libs.a(wiring.c.obj)
 .bss.timer0_millis
                0x0000000000800e68        0x4 ../lib/libBT-libs.a(wiring.c.obj)
                0x0000000000800e68                timer0_millis
 .bss.timer0_overflow_count
                0x0000000000800e6c        0x4 ../lib/libBT-libs.a(wiring.c.obj)
                0x0000000000800e6c                timer0_overflow_count
 .bss.EEPROM    0x0000000000800e70        0x1 ../lib/libBT-libs.a(EEPROM.cpp.obj)
                0x0000000000800e70                EEPROM
 .bss.Wire      0x0000000000800e71        0xc ../lib/libBT-libs.a(Wire.cpp.obj)
                0x0000000000800e71                Wire
 .bss._ZN7TwoWire14user_onReceiveE
                0x0000000000800e7d        0x2 ../lib/libBT-libs.a(Wire.cpp.obj)
                0x0000000000800e7d                _ZN7TwoWire14user_onReceiveE
 .bss._ZN7TwoWire14user_onRequestE
                0x0000000000800e7f        0x2 ../lib/libBT-libs.a(Wire.cpp.obj)
                0x0000000000800e7f                _ZN7TwoWire14user_onRequestE
 .bss._ZN7TwoWire12transmittingE
                0x0000000000800e81        0x1 ../lib/libBT-libs.a(Wire.cpp.obj)
                0x0000000000800e81                _ZN7TwoWire12transmittingE
 .bss._ZN7TwoWire14txBufferLengthE
                0x0000000000800e82        0x1 ../lib/libBT-libs.a(Wire.cpp.obj)
                0x0000000000800e82                _ZN7TwoWire14txBufferLengthE
 .bss._ZN7TwoWire13txBufferIndexE
                0x0000000000800e83        0x1 ../lib/libBT-libs.a(Wire.cpp.obj)
                0x0000000000800e83                _ZN7TwoWire13txBufferIndexE
 .bss._ZN7TwoWire8txBufferE
                0x0000000000800e84       0x20 ../lib/libBT-libs.a(Wire.cpp.obj)
                0x0000000000800e84                _ZN7TwoWire8txBufferE
 .bss._ZN7TwoWire9txAddressE
                0x0000000000800ea4        0x1 ../lib/libBT-libs.a(Wire.cpp.obj)
                0x0000000000800ea4                _ZN7TwoWire9txAddressE
 .bss._ZN7TwoWire14rxBufferLengthE
                0x0000000000800ea5        0x1 ../lib/libBT-libs.a(Wire.cpp.obj)
                0x0000000000800ea5                _ZN7TwoWire14rxBufferLengthE
 .bss._ZN7TwoWire13rxBufferIndexE
                0x0000000000800ea6        0x1 ../lib/libBT-libs.a(Wire.cpp.obj)
                0x0000000000800ea6                _ZN7TwoWire13rxBufferIndexE
 .bss._ZN7TwoWire8rxBufferE
                0x0000000000800ea7       0x20 ../lib/libBT-libs.a(Wire.cpp.obj)
                0x0000000000800ea7                _ZN7TwoWire8rxBufferE
 .bss.twi_error
                0x0000000000800ec7        0x1 ../lib/libBT-libs.a(twi.c.obj)
 .bss.twi_rxBufferIndex
                0x0000000000800ec8        0x1 ../lib/libBT-libs.a(twi.c.obj)
 .bss.twi_rxBuffer
                0x0000000000800ec9       0x20 ../lib/libBT-libs.a(twi.c.obj)
 .bss.twi_txBufferLength
                0x0000000000800ee9        0x1 ../lib/libBT-libs.a(twi.c.obj)
 .bss.twi_txBufferIndex
                0x0000000000800eea        0x1 ../lib/libBT-libs.a(twi.c.obj)
 .bss.twi_txBuffer
                0x0000000000800eeb       0x20 ../lib/libBT-libs.a(twi.c.obj)
 .bss.twi_masterBufferLength
                0x0000000000800f0b        0x1 ../lib/libBT-libs.a(twi.c.obj)
 .bss.twi_masterBufferIndex
                0x0000000000800f0c        0x1 ../lib/libBT-libs.a(twi.c.obj)
 .bss.twi_masterBuffer
                0x0000000000800f0d       0x20 ../lib/libBT-libs.a(twi.c.obj)
 .bss.twi_onSlaveReceive
                0x0000000000800f2d        0x2 ../lib/libBT-libs.a(twi.c.obj)
 .bss.twi_onSlaveTransmit
                0x0000000000800f2f        0x2 ../lib/libBT-libs.a(twi.c.obj)
 .bss.twi_inRepStart
                0x0000000000800f31        0x1 ../lib/libBT-libs.a(twi.c.obj)
 .bss.twi_sendStop
                0x0000000000800f32        0x1 ../lib/libBT-libs.a(twi.c.obj)
 .bss.twi_slarw
                0x0000000000800f33        0x1 ../lib/libBT-libs.a(twi.c.obj)
 .bss.twi_state
                0x0000000000800f34        0x1 ../lib/libBT-libs.a(twi.c.obj)
 .bss.Encoder   0x0000000000800f35       0x20 ../lib/libBT-libs.a(encoder.cpp.obj)
                0x0000000000800f35                Encoder
 .bss._ZN8PCI_Port12s_pcIntPortsE
                0x0000000000800f55       0x64 ../lib/libBT-libs.a(pin.cpp.obj)
                0x0000000000800f55                _ZN8PCI_Port12s_pcIntPortsE
 .bss._ZN8PCI_Port7PCI_Pin11s_pcIntPinsE
                0x0000000000800fb9       0x28 ../lib/libBT-libs.a(pin.cpp.obj)
                0x0000000000800fb9                _ZN8PCI_Port7PCI_Pin11s_pcIntPinsE
 .bss.MBSerial  0x0000000000800fe1       0x22 ../lib/libBT-libs.a(ModbusMaster.cpp.obj)
                0x0000000000800fe1                MBSerial
 .bss.intFunc   0x0000000000801003        0x6 ../lib/libBT-libs.a(WInterrupts.c.obj)
 *(COMMON)
 COMMON         0x0000000000801009        0x4 ../lib/libBT-libs.a(malloc.c.obj)
                0x0000000000801009                __brkval
                0x000000000080100b                __flp
 COMMON         0x000000000080100d        0x2 /usr/lib/gcc/avr/4.8.2/../../../avr/lib/avr51/libc.a(errno.o)
                0x000000000080100d                errno
                0x000000000080100f                PROVIDE (__bss_end, .)
                0x0000000000011570                __data_load_start = LOADADDR (.data)
                0x0000000000011762                __data_load_end = (__data_load_start + SIZEOF (.data))

.noinit         0x000000000080100f        0x0
                0x000000000080100f                PROVIDE (__noinit_start, .)
 *(.noinit*)
                0x000000000080100f                PROVIDE (__noinit_end, .)
                0x000000000080100f                _end = .
                0x000000000080100f                PROVIDE (__heap_start, .)

.eeprom         0x0000000000810000        0x0
 *(.eeprom*)
                0x0000000000810000                __eeprom_end = .

.fuse
 *(.fuse)
 *(.lfuse)
 *(.hfuse)
 *(.efuse)

.lock
 *(.lock*)

.signature
 *(.signature*)

.user_signatures
 *(.user_signatures*)

.stab           0x0000000000000000     0x6a8c
 *(.stab)
 .stab          0x0000000000000000      0x6cc /usr/lib/gcc/avr/4.8.2/../../../avr/lib/avr51/crtm1284p.o
 .stab          0x00000000000006cc       0x78 /usr/lib/gcc/avr/4.8.2/../../../avr/lib/avr51/libm.a(addsf3.o)
                                         0x84 (size before relaxing)
 .stab          0x0000000000000744      0x4bc /usr/lib/gcc/avr/4.8.2/../../../avr/lib/avr51/libm.a(addsf3x.o)
                                        0x4c8 (size before relaxing)
 .stab          0x0000000000000c00       0x90 /usr/lib/gcc/avr/4.8.2/../../../avr/lib/avr51/libm.a(cmpsf2.o)
                                         0x9c (size before relaxing)
 .stab          0x0000000000000c90       0x48 /usr/lib/gcc/avr/4.8.2/../../../avr/lib/avr51/libm.a(divsf3.o)
                                         0x54 (size before relaxing)
 .stab          0x0000000000000cd8      0x510 /usr/lib/gcc/avr/4.8.2/../../../avr/lib/avr51/libm.a(divsf3x.o)
                                        0x51c (size before relaxing)
 .stab          0x00000000000011e8       0x6c /usr/lib/gcc/avr/4.8.2/../../../avr/lib/avr51/libm.a(fixsfsi.o)
                                         0x78 (size before relaxing)
 .stab          0x0000000000001254      0x240 /usr/lib/gcc/avr/4.8.2/../../../avr/lib/avr51/libm.a(fixunssfsi.o)
                                        0x24c (size before relaxing)
 .stab          0x0000000000001494      0x318 /usr/lib/gcc/avr/4.8.2/../../../avr/lib/avr51/libm.a(floatsisf.o)
                                        0x324 (size before relaxing)
 .stab          0x00000000000017ac      0x1e0 /usr/lib/gcc/avr/4.8.2/../../../avr/lib/avr51/libm.a(fp_cmp.o)
                                        0x1ec (size before relaxing)
 .stab          0x000000000000198c       0x78 /usr/lib/gcc/avr/4.8.2/../../../avr/lib/avr51/libm.a(fp_inf.o)
                                         0x84 (size before relaxing)
 .stab          0x0000000000001a04       0x54 /usr/lib/gcc/avr/4.8.2/../../../avr/lib/avr51/libm.a(fp_nan.o)
                                         0x60 (size before relaxing)
 .stab          0x0000000000001a58       0x84 /usr/lib/gcc/avr/4.8.2/../../../avr/lib/avr51/libm.a(fp_pscA.o)
                                         0x90 (size before relaxing)
 .stab          0x0000000000001adc       0x84 /usr/lib/gcc/avr/4.8.2/../../../avr/lib/avr51/libm.a(fp_pscB.o)
                                         0x90 (size before relaxing)
 .stab          0x0000000000001b60       0xfc /usr/lib/gcc/avr/4.8.2/../../../avr/lib/avr51/libm.a(fp_round.o)
                                        0x108 (size before relaxing)
 .stab          0x0000000000001c5c      0x1d4 /usr/lib/gcc/avr/4.8.2/../../../avr/lib/avr51/libm.a(fp_split3.o)
                                        0x1e0 (size before relaxing)
 .stab          0x0000000000001e30       0x90 /usr/lib/gcc/avr/4.8.2/../../../avr/lib/avr51/libm.a(fp_zero.o)
                                         0x9c (size before relaxing)
 .stab          0x0000000000001ec0       0x6c /usr/lib/gcc/avr/4.8.2/../../../avr/lib/avr51/libm.a(gesf2.o)
                                         0x78 (size before relaxing)
 .stab          0x0000000000001f2c       0x48 /usr/lib/gcc/avr/4.8.2/../../../avr/lib/avr51/libm.a(mulsf3.o)
                                         0x54 (size before relaxing)
 .stab          0x0000000000001f74      0x4d4 /usr/lib/gcc/avr/4.8.2/../../../avr/lib/avr51/libm.a(mulsf3x.o)
                                        0x4e0 (size before relaxing)
 .stab          0x0000000000002448      0x3c0 /usr/lib/gcc/avr/4.8.2/../../../avr/lib/avr51/libm.a(pow.o)
                                        0x3cc (size before relaxing)
 .stab          0x0000000000002808       0x60 /usr/lib/gcc/avr/4.8.2/../../../avr/lib/avr51/libm.a(unordsf2.o)
                                         0x6c (size before relaxing)
 .stab          0x0000000000002868      0x288 /usr/lib/gcc/avr/4.8.2/../../../avr/lib/avr51/libm.a(exp.o)
                                        0x294 (size before relaxing)
 .stab          0x0000000000002af0      0x1ec /usr/lib/gcc/avr/4.8.2/../../../avr/lib/avr51/libm.a(fp_powser.o)
                                        0x1f8 (size before relaxing)
 .stab          0x0000000000002cdc       0x84 /usr/lib/gcc/avr/4.8.2/../../../avr/lib/avr51/libm.a(inverse.o)
                                         0x90 (size before relaxing)
 .stab          0x0000000000002d60      0x2c4 /usr/lib/gcc/avr/4.8.2/../../../avr/lib/avr51/libm.a(ldexp.o)
                                        0x2d0 (size before relaxing)
 .stab          0x0000000000003024      0x378 /usr/lib/gcc/avr/4.8.2/../../../avr/lib/avr51/libm.a(log.o)
                                        0x384 (size before relaxing)
 .stab          0x000000000000339c      0x2a0 /usr/lib/gcc/avr/4.8.2/../../../avr/lib/avr51/libm.a(modf.o)
                                        0x2ac (size before relaxing)
 .stab          0x000000000000363c       0xe4 /usr/lib/gcc/avr/4.8.2/../../../avr/lib/avr51/libm.a(fp_mpack.o)
                                         0xf0 (size before relaxing)
 .stab          0x0000000000003720      0x30c /usr/lib/gcc/avr/4.8.2/../../../avr/lib/avr51/libc.a(random.o)
                                        0x48c (size before relaxing)
 .stab          0x0000000000003a2c      0x5a0 /usr/lib/gcc/avr/4.8.2/../../../avr/lib/avr51/libc.a(strtoul.o)
                                        0x600 (size before relaxing)
 .stab          0x0000000000003fcc      0x174 /usr/lib/gcc/avr/4.8.2/../../../avr/lib/avr51/libc.a(atoi.o)
                                        0x180 (size before relaxing)
 .stab          0x0000000000004140      0x1e0 /usr/lib/gcc/avr/4.8.2/../../../avr/lib/avr51/libc.a(atol.o)
                                        0x1ec (size before relaxing)
 .stab          0x0000000000004320       0x9c /usr/lib/gcc/avr/4.8.2/../../../avr/lib/avr51/libc.a(isspace.o)
                                         0xa8 (size before relaxing)
 .stab          0x00000000000043bc       0x18 /usr/lib/gcc/avr/4.8.2/../../../avr/lib/avr51/libc.a(tolower.o)
                                         0xa8 (size before relaxing)
 .stab          0x00000000000043d4       0x18 /usr/lib/gcc/avr/4.8.2/../../../avr/lib/avr51/libc.a(toupper.o)
                                         0xa8 (size before relaxing)
 .stab          0x00000000000043ec       0x84 /usr/lib/gcc/avr/4.8.2/../../../avr/lib/avr51/libc.a(memcpy_P.o)
                                         0x90 (size before relaxing)
 .stab          0x0000000000004470       0x9c /usr/lib/gcc/avr/4.8.2/../../../avr/lib/avr51/libc.a(strcat_P.o)
                                         0xa8 (size before relaxing)
 .stab          0x000000000000450c       0x6c /usr/lib/gcc/avr/4.8.2/../../../avr/lib/avr51/libc.a(strcpy_P.o)
                                         0x78 (size before relaxing)
 .stab          0x0000000000004578       0x84 /usr/lib/gcc/avr/4.8.2/../../../avr/lib/avr51/libc.a(strlen_P.o)
                                         0x90 (size before relaxing)
 .stab          0x00000000000045fc       0x84 /usr/lib/gcc/avr/4.8.2/../../../avr/lib/avr51/libc.a(memcpy.o)
                                         0x90 (size before relaxing)
 .stab          0x0000000000004680       0xe4 /usr/lib/gcc/avr/4.8.2/../../../avr/lib/avr51/libc.a(memmove.o)
                                         0xf0 (size before relaxing)
 .stab          0x0000000000004764       0x6c /usr/lib/gcc/avr/4.8.2/../../../avr/lib/avr51/libc.a(memset.o)
                                         0x78 (size before relaxing)
 .stab          0x00000000000047d0       0xfc /usr/lib/gcc/avr/4.8.2/../../../avr/lib/avr51/libc.a(strcasecmp.o)
                                        0x108 (size before relaxing)
 .stab          0x00000000000048cc       0x9c /usr/lib/gcc/avr/4.8.2/../../../avr/lib/avr51/libc.a(strcat.o)
                                         0xa8 (size before relaxing)
 .stab          0x0000000000004968       0x9c /usr/lib/gcc/avr/4.8.2/../../../avr/lib/avr51/libc.a(strchr.o)
                                         0xa8 (size before relaxing)
 .stab          0x0000000000004a04       0x84 /usr/lib/gcc/avr/4.8.2/../../../avr/lib/avr51/libc.a(strcmp.o)
                                         0x90 (size before relaxing)
 .stab          0x0000000000004a88       0x6c /usr/lib/gcc/avr/4.8.2/../../../avr/lib/avr51/libc.a(strcpy.o)
                                         0x78 (size before relaxing)
 .stab          0x0000000000004af4       0xc0 /usr/lib/gcc/avr/4.8.2/../../../avr/lib/avr51/libc.a(strncmp.o)
                                         0xcc (size before relaxing)
 .stab          0x0000000000004bb4       0xcc /usr/lib/gcc/avr/4.8.2/../../../avr/lib/avr51/libc.a(strncpy.o)
                                         0xd8 (size before relaxing)
 .stab          0x0000000000004c80       0x9c /usr/lib/gcc/avr/4.8.2/../../../avr/lib/avr51/libc.a(strrchr.o)
                                         0xa8 (size before relaxing)
 .stab          0x0000000000004d1c      0x150 /usr/lib/gcc/avr/4.8.2/../../../avr/lib/avr51/libc.a(strstr.o)
                                        0x15c (size before relaxing)
 .stab          0x0000000000004e6c      0x1b0 /usr/lib/gcc/avr/4.8.2/../../../avr/lib/avr51/libc.a(itoa.o)
                                        0x1bc (size before relaxing)
 .stab          0x000000000000501c       0x18 /usr/lib/gcc/avr/4.8.2/../../../avr/lib/avr51/libc.a(ltoa.o)
                                        0x2a0 (size before relaxing)
 .stab          0x0000000000005034      0x114 /usr/lib/gcc/avr/4.8.2/../../../avr/lib/avr51/libc.a(mulsi10.o)
                                        0x120 (size before relaxing)
 .stab          0x0000000000005148       0x78 /usr/lib/gcc/avr/4.8.2/../../../avr/lib/avr51/libc.a(mul10.o)
                                         0x84 (size before relaxing)
 .stab          0x00000000000051c0      0x1e0 /usr/lib/gcc/avr/4.8.2/../../../avr/lib/avr51/libc.a(ultoa.o)
                                        0x1ec (size before relaxing)
 .stab          0x00000000000053a0       0x18 /usr/lib/gcc/avr/4.8.2/../../../avr/lib/avr51/libc.a(utoa.o)
                                        0x138 (size before relaxing)
 .stab          0x00000000000053b8      0x480 /usr/lib/gcc/avr/4.8.2/../../../avr/lib/avr51/libc.a(sprintf.o)
                                        0x54c (size before relaxing)
 .stab          0x0000000000005838      0x330 /usr/lib/gcc/avr/4.8.2/../../../avr/lib/avr51/libc.a(vfprintf_std.o)
                                        0xd80 (size before relaxing)
 .stab          0x0000000000005b68      0x108 /usr/lib/gcc/avr/4.8.2/../../../avr/lib/avr51/libc.a(eerd_block_atmega1284p.o)
                                        0x114 (size before relaxing)
 .stab          0x0000000000005c70       0x90 /usr/lib/gcc/avr/4.8.2/../../../avr/lib/avr51/libc.a(eerd_byte_atmega1284p.o)
                                         0x9c (size before relaxing)
 .stab          0x0000000000005d00       0x9c /usr/lib/gcc/avr/4.8.2/../../../avr/lib/avr51/libc.a(eewr_block_atmega1284p.o)
                                         0xa8 (size before relaxing)
 .stab          0x0000000000005d9c       0xe4 /usr/lib/gcc/avr/4.8.2/../../../avr/lib/avr51/libc.a(eewr_byte_atmega1284p.o)
                                         0xf0 (size before relaxing)
 .stab          0x0000000000005e80      0x270 /usr/lib/gcc/avr/4.8.2/../../../avr/lib/avr51/libc.a(errno.o)
                                        0x27c (size before relaxing)
 .stab          0x00000000000060f0       0x60 /usr/lib/gcc/avr/4.8.2/../../../avr/lib/avr51/libc.a(cty_isfalse.o)
                                         0x6c (size before relaxing)
 .stab          0x0000000000006150       0x9c /usr/lib/gcc/avr/4.8.2/../../../avr/lib/avr51/libc.a(strnlen_P.o)
                                         0xa8 (size before relaxing)
 .stab          0x00000000000061ec       0x9c /usr/lib/gcc/avr/4.8.2/../../../avr/lib/avr51/libc.a(strnlen.o)
                                         0xa8 (size before relaxing)
 .stab          0x0000000000006288       0xd8 /usr/lib/gcc/avr/4.8.2/../../../avr/lib/avr51/libc.a(strrev.o)
                                         0xe4 (size before relaxing)
 .stab          0x0000000000006360      0x2ac /usr/lib/gcc/avr/4.8.2/../../../avr/lib/avr51/libc.a(fputc.o)
                                        0x534 (size before relaxing)
 .stab          0x000000000000660c      0x480 /usr/lib/gcc/avr/4.8.2/../../../avr/lib/avr51/libc.a(ultoa_invert.o)
                                        0x48c (size before relaxing)

.stabstr        0x0000000000000000     0x1c12
 *(.stabstr)
 .stabstr       0x0000000000000000     0x1c12 /usr/lib/gcc/avr/4.8.2/../../../avr/lib/avr51/crtm1284p.o

.stab.excl
 *(.stab.excl)

.stab.exclstr
 *(.stab.exclstr)

.stab.index
 *(.stab.index)

.stab.indexstr
 *(.stab.indexstr)

.comment        0x0000000000000000       0x11
 *(.comment)
 .comment       0x0000000000000000       0x11 CMakeFiles/BrewTroller-OT_DX1_STEAMPWM.elf.dir/BrewCore.cpp.obj
                                         0x12 (size before relaxing)
 .comment       0x0000000000000000       0x12 CMakeFiles/BrewTroller-OT_DX1_STEAMPWM.elf.dir/BrewTroller.cpp.obj
 .comment       0x0000000000000000       0x12 CMakeFiles/BrewTroller-OT_DX1_STEAMPWM.elf.dir/Com.cpp.obj
 .comment       0x0000000000000000       0x12 CMakeFiles/BrewTroller-OT_DX1_STEAMPWM.elf.dir/Com_BTPD.cpp.obj
 .comment       0x0000000000000000       0x12 CMakeFiles/BrewTroller-OT_DX1_STEAMPWM.elf.dir/Com_RGBIO8.cpp.obj
 .comment       0x0000000000000000       0x12 CMakeFiles/BrewTroller-OT_DX1_STEAMPWM.elf.dir/Com_S0ASC.cpp.obj
 .comment       0x0000000000000000       0x12 CMakeFiles/BrewTroller-OT_DX1_STEAMPWM.elf.dir/EEPROM.cpp.obj
 .comment       0x0000000000000000       0x12 CMakeFiles/BrewTroller-OT_DX1_STEAMPWM.elf.dir/Events.cpp.obj
 .comment       0x0000000000000000       0x12 CMakeFiles/BrewTroller-OT_DX1_STEAMPWM.elf.dir/Outputs.cpp.obj
 .comment       0x0000000000000000       0x12 CMakeFiles/BrewTroller-OT_DX1_STEAMPWM.elf.dir/PVOut.cpp.obj
 .comment       0x0000000000000000       0x12 CMakeFiles/BrewTroller-OT_DX1_STEAMPWM.elf.dir/StepLogic.cpp.obj
 .comment       0x0000000000000000       0x12 CMakeFiles/BrewTroller-OT_DX1_STEAMPWM.elf.dir/Temp.cpp.obj
 .comment       0x0000000000000000       0x12 CMakeFiles/BrewTroller-OT_DX1_STEAMPWM.elf.dir/Timer.cpp.obj
 .comment       0x0000000000000000       0x12 CMakeFiles/BrewTroller-OT_DX1_STEAMPWM.elf.dir/UI.cpp.obj
 .comment       0x0000000000000000       0x12 CMakeFiles/BrewTroller-OT_DX1_STEAMPWM.elf.dir/UIStrings.cpp.obj
 .comment       0x0000000000000000       0x12 CMakeFiles/BrewTroller-OT_DX1_STEAMPWM.elf.dir/Util.cpp.obj
 .comment       0x0000000000000000       0x12 CMakeFiles/BrewTroller-OT_DX1_STEAMPWM.elf.dir/Vessel.cpp.obj
 .comment       0x0000000000000000       0x12 CMakeFiles/BrewTroller-OT_DX1_STEAMPWM.elf.dir/Volume.cpp.obj
 .comment       0x0000000000000000       0x12 ../lib/libBT-libs.a(malloc.c.obj)
 .comment       0x0000000000000000       0x12 ../lib/libBT-libs.a(HardwareSerial.cpp.obj)
 .comment       0x0000000000000000       0x12 ../lib/libBT-libs.a(new.cpp.obj)
 .comment       0x0000000000000000       0x12 ../lib/libBT-libs.a(Print.cpp.obj)
 .comment       0x0000000000000000       0x12 ../lib/libBT-libs.a(wiring.c.obj)
 .comment       0x0000000000000000       0x12 ../lib/libBT-libs.a(wiring_analog.c.obj)
 .comment       0x0000000000000000       0x12 ../lib/libBT-libs.a(wiring_digital.c.obj)
 .comment       0x0000000000000000       0x12 ../lib/libBT-libs.a(WString.cpp.obj)
 .comment       0x0000000000000000       0x12 ../lib/libBT-libs.a(EEPROM.cpp.obj)
 .comment       0x0000000000000000       0x12 ../lib/libBT-libs.a(Wire.cpp.obj)
 .comment       0x0000000000000000       0x12 ../lib/libBT-libs.a(twi.c.obj)
 .comment       0x0000000000000000       0x12 ../lib/libBT-libs.a(encoder.cpp.obj)
 .comment       0x0000000000000000       0x12 ../lib/libBT-libs.a(pin.cpp.obj)
 .comment       0x0000000000000000       0x12 ../lib/libBT-libs.a(menu.cpp.obj)
 .comment       0x0000000000000000       0x12 ../lib/libBT-libs.a(ModbusMaster.cpp.obj)
 .comment       0x0000000000000000       0x12 ../lib/libBT-libs.a(PID_Beta6.cpp.obj)
 .comment       0x0000000000000000       0x12 ../lib/libBT-libs.a(DS2482.cpp.obj)
 .comment       0x0000000000000000       0x12 ../lib/libBT-libs.a(realloc.c.obj)
 .comment       0x0000000000000000       0x12 ../lib/libBT-libs.a(WInterrupts.c.obj)
 .comment       0x0000000000000000       0x12 ../lib/libBT-libs.a(WMath.cpp.obj)
 .comment       0x0000000000000000       0x12 /usr/lib/gcc/avr/4.8.2/../../../avr/lib/avr51/libc.a(random.o)
 .comment       0x0000000000000000       0x12 /usr/lib/gcc/avr/4.8.2/../../../avr/lib/avr51/libc.a(strtoul.o)
 .comment       0x0000000000000000       0x12 /usr/lib/gcc/avr/4.8.2/../../../avr/lib/avr51/libc.a(sprintf.o)
 .comment       0x0000000000000000       0x12 /usr/lib/gcc/avr/4.8.2/../../../avr/lib/avr51/libc.a(vfprintf_std.o)
 .comment       0x0000000000000000       0x12 /usr/lib/gcc/avr/4.8.2/../../../avr/lib/avr51/libc.a(errno.o)
 .comment       0x0000000000000000       0x12 /usr/lib/gcc/avr/4.8.2/../../../avr/lib/avr51/libc.a(fputc.o)

.debug
 *(.debug)

.line
 *(.line)

.debug_srcinfo
 *(.debug_srcinfo)

.debug_sfnames
 *(.debug_sfnames)

.debug_aranges
 *(.debug_aranges)

.debug_pubnames
 *(.debug_pubnames)

.debug_info
 *(.debug_info)
 *(.gnu.linkonce.wi.*)

.debug_abbrev
 *(.debug_abbrev)

.debug_line
 *(.debug_line)

.debug_frame
 *(.debug_frame)

.debug_str
 *(.debug_str)

.debug_loc
 *(.debug_loc)

.debug_macinfo
 *(.debug_macinfo)

.debug_pubtypes
 *(.debug_pubtypes)

.debug_ranges
 *(.debug_ranges)

.debug_macro
 *(.debug_macro)
OUTPUT(BrewTroller-OT_DX1_STEAMPWM.elf elf32-avr)
LOAD linker stubs
