Archive member included because of file (symbol)

../lib/libBT-libs.a(malloc.c.obj)
                              CMakeFiles/BrewTroller-OT_DX1_RIMSDF.elf.dir/PVOut.cpp.obj (malloc)
../lib/libBT-libs.a(HardwareSerial.cpp.obj)
                              CMakeFiles/BrewTroller-OT_DX1_RIMSDF.elf.dir/Com.cpp.obj (_ZN14HardwareSerial9availableEv)
../lib/libBT-libs.a(new.cpp.obj)
                              CMakeFiles/BrewTroller-OT_DX1_RIMSDF.elf.dir/EEPROM.cpp.obj (_Znwj)
../lib/libBT-libs.a(Print.cpp.obj)
                              ../lib/libBT-libs.a(HardwareSerial.cpp.obj) (_ZN5Print5writeEPKhj)
../lib/libBT-libs.a(wiring.c.obj)
                              CMakeFiles/BrewTroller-OT_DX1_RIMSDF.elf.dir/BrewCore.cpp.obj (millis)
../lib/libBT-libs.a(wiring_analog.c.obj)
                              CMakeFiles/BrewTroller-OT_DX1_RIMSDF.elf.dir/Vessel.cpp.obj (analogRead)
../lib/libBT-libs.a(wiring_digital.c.obj)
                              ../lib/libBT-libs.a(wiring_analog.c.obj) (pinMode)
../lib/libBT-libs.a(WString.cpp.obj)
                              ../lib/libBT-libs.a(Print.cpp.obj) (_ZNK6StringixEj)
../lib/libBT-libs.a(EEPROM.cpp.obj)
                              CMakeFiles/BrewTroller-OT_DX1_RIMSDF.elf.dir/EEPROM.cpp.obj (_ZN11EEPROMClass4readEi)
../lib/libBT-libs.a(Wire.cpp.obj)
                              CMakeFiles/BrewTroller-OT_DX1_RIMSDF.elf.dir/Com.cpp.obj (_ZN7TwoWire9availableEv)
../lib/libBT-libs.a(twi.c.obj)
                              ../lib/libBT-libs.a(Wire.cpp.obj) (twi_init)
../lib/libBT-libs.a(encoder.cpp.obj)
                              CMakeFiles/BrewTroller-OT_DX1_RIMSDF.elf.dir/UI.cpp.obj (_ZN7encoder5beginEh)
../lib/libBT-libs.a(pin.cpp.obj)
                              CMakeFiles/BrewTroller-OT_DX1_RIMSDF.elf.dir/BrewTroller.cpp.obj (_ZN3pinC1Ev)
../lib/libBT-libs.a(menu.cpp.obj)
                              CMakeFiles/BrewTroller-OT_DX1_RIMSDF.elf.dir/UI.cpp.obj (_ZN4menuC1Ehh)
../lib/libBT-libs.a(ModbusMaster.cpp.obj)
                              CMakeFiles/BrewTroller-OT_DX1_RIMSDF.elf.dir/PVOut.cpp.obj (_ZN12ModbusMasterC1Ev)
../lib/libBT-libs.a(PID_Beta6.cpp.obj)
                              CMakeFiles/BrewTroller-OT_DX1_RIMSDF.elf.dir/FlowController.cpp.obj (_ZN3PID14SetInputLimitsEdd)
../lib/libBT-libs.a(DS2482.cpp.obj)
                              CMakeFiles/BrewTroller-OT_DX1_RIMSDF.elf.dir/Temp.cpp.obj (_ZN6DS2482C1Eh)
../lib/libBT-libs.a(realloc.c.obj)
                              ../lib/libBT-libs.a(WString.cpp.obj) (realloc)
../lib/libBT-libs.a(WInterrupts.c.obj)
                              ../lib/libBT-libs.a(encoder.cpp.obj) (attachInterrupt)
../lib/libBT-libs.a(WMath.cpp.obj)
                              ../lib/libBT-libs.a(ModbusMaster.cpp.obj) (_Z8makeWordhh)
/usr/lib/gcc/avr/4.8.2/avr51/libgcc.a(_umulhisi3.o)
                              CMakeFiles/BrewTroller-OT_DX1_RIMSDF.elf.dir/UI.cpp.obj (__umulhisi3)
/usr/lib/gcc/avr/4.8.2/avr51/libgcc.a(_usmulhisi3.o)
                              CMakeFiles/BrewTroller-OT_DX1_RIMSDF.elf.dir/EEPROM.cpp.obj (__usmulhisi3)
/usr/lib/gcc/avr/4.8.2/avr51/libgcc.a(_muluhisi3.o)
                              CMakeFiles/BrewTroller-OT_DX1_RIMSDF.elf.dir/Com_BTPD.cpp.obj (__muluhisi3)
/usr/lib/gcc/avr/4.8.2/avr51/libgcc.a(_mulshisi3.o)
                              CMakeFiles/BrewTroller-OT_DX1_RIMSDF.elf.dir/UI.cpp.obj (__mulshisi3)
/usr/lib/gcc/avr/4.8.2/avr51/libgcc.a(_mulsi3.o)
                              CMakeFiles/BrewTroller-OT_DX1_RIMSDF.elf.dir/StepLogic.cpp.obj (__mulsi3)
/usr/lib/gcc/avr/4.8.2/avr51/libgcc.a(_udivmodhi4.o)
                              CMakeFiles/BrewTroller-OT_DX1_RIMSDF.elf.dir/UI.cpp.obj (__udivmodhi4)
/usr/lib/gcc/avr/4.8.2/avr51/libgcc.a(_divmodhi4.o)
                              CMakeFiles/BrewTroller-OT_DX1_RIMSDF.elf.dir/Com.cpp.obj (__divmodhi4)
/usr/lib/gcc/avr/4.8.2/avr51/libgcc.a(_udivmodsi4.o)
                              CMakeFiles/BrewTroller-OT_DX1_RIMSDF.elf.dir/Com_BTPD.cpp.obj (__udivmodsi4)
/usr/lib/gcc/avr/4.8.2/avr51/libgcc.a(_divmodsi4.o)
                              CMakeFiles/BrewTroller-OT_DX1_RIMSDF.elf.dir/Temp.cpp.obj (__divmodsi4)
/usr/lib/gcc/avr/4.8.2/avr51/libgcc.a(_negsi2.o)
                              /usr/lib/gcc/avr/4.8.2/avr51/libgcc.a(_divmodsi4.o) (__negsi2)
/usr/lib/gcc/avr/4.8.2/avr51/libgcc.a(_prologue.o)
                              CMakeFiles/BrewTroller-OT_DX1_RIMSDF.elf.dir/BrewCore.cpp.obj (__prologue_saves__)
/usr/lib/gcc/avr/4.8.2/avr51/libgcc.a(_epilogue.o)
                              CMakeFiles/BrewTroller-OT_DX1_RIMSDF.elf.dir/BrewCore.cpp.obj (__epilogue_restores__)
/usr/lib/gcc/avr/4.8.2/avr51/libgcc.a(_exit.o)
                              /usr/lib/gcc/avr/4.8.2/../../../avr/lib/avr51/crtm1284p.o (exit)
/usr/lib/gcc/avr/4.8.2/avr51/libgcc.a(_tablejump.o)
                              CMakeFiles/BrewTroller-OT_DX1_RIMSDF.elf.dir/BrewCore.cpp.obj (__tablejump2__)
/usr/lib/gcc/avr/4.8.2/avr51/libgcc.a(_copy_data.o)
                              CMakeFiles/BrewTroller-OT_DX1_RIMSDF.elf.dir/BrewTroller.cpp.obj (__do_copy_data)
/usr/lib/gcc/avr/4.8.2/avr51/libgcc.a(_clear_bss.o)
                              CMakeFiles/BrewTroller-OT_DX1_RIMSDF.elf.dir/BrewCore.cpp.obj (__do_clear_bss)
/usr/lib/gcc/avr/4.8.2/avr51/libgcc.a(_ctors.o)
                              CMakeFiles/BrewTroller-OT_DX1_RIMSDF.elf.dir/BrewTroller.cpp.obj (__do_global_ctors)
/usr/lib/gcc/avr/4.8.2/avr51/libgcc.a(_dtors.o)
                              CMakeFiles/BrewTroller-OT_DX1_RIMSDF.elf.dir/BrewTroller.cpp.obj (__do_global_dtors)
/usr/lib/gcc/avr/4.8.2/avr51/libgcc.a(_tablejump_elpm.o)
                              /usr/lib/gcc/avr/4.8.2/avr51/libgcc.a(_ctors.o) (__tablejump_elpm__)
/usr/lib/gcc/avr/4.8.2/../../../avr/lib/avr51/libm.a(addsf3.o)
                              CMakeFiles/BrewTroller-OT_DX1_RIMSDF.elf.dir/FlowController.cpp.obj (__subsf3)
/usr/lib/gcc/avr/4.8.2/../../../avr/lib/avr51/libm.a(addsf3x.o)
                              /usr/lib/gcc/avr/4.8.2/../../../avr/lib/avr51/libm.a(addsf3.o) (__addsf3x)
/usr/lib/gcc/avr/4.8.2/../../../avr/lib/avr51/libm.a(cmpsf2.o)
                              CMakeFiles/BrewTroller-OT_DX1_RIMSDF.elf.dir/Com_BTPD.cpp.obj (__eqsf2)
/usr/lib/gcc/avr/4.8.2/../../../avr/lib/avr51/libm.a(divsf3.o)
                              CMakeFiles/BrewTroller-OT_DX1_RIMSDF.elf.dir/Com.cpp.obj (__divsf3)
/usr/lib/gcc/avr/4.8.2/../../../avr/lib/avr51/libm.a(divsf3x.o)
                              /usr/lib/gcc/avr/4.8.2/../../../avr/lib/avr51/libm.a(divsf3.o) (__divsf3x)
/usr/lib/gcc/avr/4.8.2/../../../avr/lib/avr51/libm.a(fixsfsi.o)
                              CMakeFiles/BrewTroller-OT_DX1_RIMSDF.elf.dir/FlowController.cpp.obj (__fixsfsi)
/usr/lib/gcc/avr/4.8.2/../../../avr/lib/avr51/libm.a(fixunssfsi.o)
                              CMakeFiles/BrewTroller-OT_DX1_RIMSDF.elf.dir/Com.cpp.obj (__fixunssfsi)
/usr/lib/gcc/avr/4.8.2/../../../avr/lib/avr51/libm.a(floatsisf.o)
                              CMakeFiles/BrewTroller-OT_DX1_RIMSDF.elf.dir/Com.cpp.obj (__floatunsisf)
/usr/lib/gcc/avr/4.8.2/../../../avr/lib/avr51/libm.a(fp_cmp.o)
                              /usr/lib/gcc/avr/4.8.2/../../../avr/lib/avr51/libm.a(cmpsf2.o) (__fp_cmp)
/usr/lib/gcc/avr/4.8.2/../../../avr/lib/avr51/libm.a(fp_inf.o)
                              /usr/lib/gcc/avr/4.8.2/../../../avr/lib/avr51/libm.a(addsf3x.o) (__fp_inf)
/usr/lib/gcc/avr/4.8.2/../../../avr/lib/avr51/libm.a(fp_nan.o)
                              /usr/lib/gcc/avr/4.8.2/../../../avr/lib/avr51/libm.a(addsf3x.o) (__fp_nan)
/usr/lib/gcc/avr/4.8.2/../../../avr/lib/avr51/libm.a(fp_pscA.o)
                              /usr/lib/gcc/avr/4.8.2/../../../avr/lib/avr51/libm.a(addsf3x.o) (__fp_pscA)
/usr/lib/gcc/avr/4.8.2/../../../avr/lib/avr51/libm.a(fp_pscB.o)
                              /usr/lib/gcc/avr/4.8.2/../../../avr/lib/avr51/libm.a(addsf3x.o) (__fp_pscB)
/usr/lib/gcc/avr/4.8.2/../../../avr/lib/avr51/libm.a(fp_round.o)
                              /usr/lib/gcc/avr/4.8.2/../../../avr/lib/avr51/libm.a(addsf3.o) (__fp_round)
/usr/lib/gcc/avr/4.8.2/../../../avr/lib/avr51/libm.a(fp_split3.o)
                              /usr/lib/gcc/avr/4.8.2/../../../avr/lib/avr51/libm.a(addsf3x.o) (__fp_split3)
/usr/lib/gcc/avr/4.8.2/../../../avr/lib/avr51/libm.a(fp_zero.o)
                              /usr/lib/gcc/avr/4.8.2/../../../avr/lib/avr51/libm.a(addsf3x.o) (__fp_zero)
/usr/lib/gcc/avr/4.8.2/../../../avr/lib/avr51/libm.a(gesf2.o)
                              CMakeFiles/BrewTroller-OT_DX1_RIMSDF.elf.dir/FlowController.cpp.obj (__gesf2)
/usr/lib/gcc/avr/4.8.2/../../../avr/lib/avr51/libm.a(mulsf3.o)
                              CMakeFiles/BrewTroller-OT_DX1_RIMSDF.elf.dir/Com.cpp.obj (__mulsf3)
/usr/lib/gcc/avr/4.8.2/../../../avr/lib/avr51/libm.a(mulsf3x.o)
                              /usr/lib/gcc/avr/4.8.2/../../../avr/lib/avr51/libm.a(mulsf3.o) (__mulsf3x)
/usr/lib/gcc/avr/4.8.2/../../../avr/lib/avr51/libm.a(pow.o)
                              CMakeFiles/BrewTroller-OT_DX1_RIMSDF.elf.dir/Util.cpp.obj (pow)
/usr/lib/gcc/avr/4.8.2/../../../avr/lib/avr51/libm.a(unordsf2.o)
                              ../lib/libBT-libs.a(Print.cpp.obj) (__unordsf2)
/usr/lib/gcc/avr/4.8.2/../../../avr/lib/avr51/libm.a(exp.o)
                              /usr/lib/gcc/avr/4.8.2/../../../avr/lib/avr51/libm.a(pow.o) (exp)
/usr/lib/gcc/avr/4.8.2/../../../avr/lib/avr51/libm.a(fp_powser.o)
                              /usr/lib/gcc/avr/4.8.2/../../../avr/lib/avr51/libm.a(exp.o) (__fp_powser)
/usr/lib/gcc/avr/4.8.2/../../../avr/lib/avr51/libm.a(inverse.o)
                              /usr/lib/gcc/avr/4.8.2/../../../avr/lib/avr51/libm.a(exp.o) (inverse)
/usr/lib/gcc/avr/4.8.2/../../../avr/lib/avr51/libm.a(ldexp.o)
                              /usr/lib/gcc/avr/4.8.2/../../../avr/lib/avr51/libm.a(exp.o) (ldexp)
/usr/lib/gcc/avr/4.8.2/../../../avr/lib/avr51/libm.a(log.o)
                              /usr/lib/gcc/avr/4.8.2/../../../avr/lib/avr51/libm.a(pow.o) (log)
/usr/lib/gcc/avr/4.8.2/../../../avr/lib/avr51/libm.a(modf.o)
                              /usr/lib/gcc/avr/4.8.2/../../../avr/lib/avr51/libm.a(exp.o) (modf)
/usr/lib/gcc/avr/4.8.2/../../../avr/lib/avr51/libm.a(fp_mpack.o)
                              /usr/lib/gcc/avr/4.8.2/../../../avr/lib/avr51/libm.a(ldexp.o) (__fp_mpack)
/usr/lib/gcc/avr/4.8.2/../../../avr/lib/avr51/libc.a(random.o)
                              ../lib/libBT-libs.a(WMath.cpp.obj) (random)
/usr/lib/gcc/avr/4.8.2/../../../avr/lib/avr51/libc.a(strtoul.o)
                              CMakeFiles/BrewTroller-OT_DX1_RIMSDF.elf.dir/Com.cpp.obj (strtoul)
/usr/lib/gcc/avr/4.8.2/../../../avr/lib/avr51/libc.a(atoi.o)
                              CMakeFiles/BrewTroller-OT_DX1_RIMSDF.elf.dir/Com.cpp.obj (atoi)
/usr/lib/gcc/avr/4.8.2/../../../avr/lib/avr51/libc.a(atol.o)
                              ../lib/libBT-libs.a(WString.cpp.obj) (atol)
/usr/lib/gcc/avr/4.8.2/../../../avr/lib/avr51/libc.a(isspace.o)
                              ../lib/libBT-libs.a(WString.cpp.obj) (isspace)
/usr/lib/gcc/avr/4.8.2/../../../avr/lib/avr51/libc.a(tolower.o)
                              ../lib/libBT-libs.a(WString.cpp.obj) (tolower)
/usr/lib/gcc/avr/4.8.2/../../../avr/lib/avr51/libc.a(toupper.o)
                              ../lib/libBT-libs.a(WString.cpp.obj) (toupper)
/usr/lib/gcc/avr/4.8.2/../../../avr/lib/avr51/libc.a(memcpy_P.o)
                              CMakeFiles/BrewTroller-OT_DX1_RIMSDF.elf.dir/UI.cpp.obj (memcpy_P)
/usr/lib/gcc/avr/4.8.2/../../../avr/lib/avr51/libc.a(strcat_P.o)
                              CMakeFiles/BrewTroller-OT_DX1_RIMSDF.elf.dir/UI.cpp.obj (strcat_P)
/usr/lib/gcc/avr/4.8.2/../../../avr/lib/avr51/libc.a(strcpy_P.o)
                              CMakeFiles/BrewTroller-OT_DX1_RIMSDF.elf.dir/UI.cpp.obj (strcpy_P)
/usr/lib/gcc/avr/4.8.2/../../../avr/lib/avr51/libc.a(strlen_P.o)
                              CMakeFiles/BrewTroller-OT_DX1_RIMSDF.elf.dir/UI.cpp.obj (__strlen_P)
/usr/lib/gcc/avr/4.8.2/../../../avr/lib/avr51/libc.a(memcpy.o)
                              CMakeFiles/BrewTroller-OT_DX1_RIMSDF.elf.dir/UI.cpp.obj (memcpy)
/usr/lib/gcc/avr/4.8.2/../../../avr/lib/avr51/libc.a(memmove.o)
                              ../lib/libBT-libs.a(WString.cpp.obj) (memmove)
/usr/lib/gcc/avr/4.8.2/../../../avr/lib/avr51/libc.a(memset.o)
                              CMakeFiles/BrewTroller-OT_DX1_RIMSDF.elf.dir/UI.cpp.obj (memset)
/usr/lib/gcc/avr/4.8.2/../../../avr/lib/avr51/libc.a(strcasecmp.o)
                              CMakeFiles/BrewTroller-OT_DX1_RIMSDF.elf.dir/Com.cpp.obj (strcasecmp)
/usr/lib/gcc/avr/4.8.2/../../../avr/lib/avr51/libc.a(strcat.o)
                              CMakeFiles/BrewTroller-OT_DX1_RIMSDF.elf.dir/Com.cpp.obj (strcat)
/usr/lib/gcc/avr/4.8.2/../../../avr/lib/avr51/libc.a(strchr.o)
                              ../lib/libBT-libs.a(WString.cpp.obj) (strchr)
/usr/lib/gcc/avr/4.8.2/../../../avr/lib/avr51/libc.a(strcmp.o)
                              ../lib/libBT-libs.a(WString.cpp.obj) (strcmp)
/usr/lib/gcc/avr/4.8.2/../../../avr/lib/avr51/libc.a(strcpy.o)
                              CMakeFiles/BrewTroller-OT_DX1_RIMSDF.elf.dir/UI.cpp.obj (strcpy)
/usr/lib/gcc/avr/4.8.2/../../../avr/lib/avr51/libc.a(strncmp.o)
                              ../lib/libBT-libs.a(WString.cpp.obj) (strncmp)
/usr/lib/gcc/avr/4.8.2/../../../avr/lib/avr51/libc.a(strncpy.o)
                              ../lib/libBT-libs.a(WString.cpp.obj) (strncpy)
/usr/lib/gcc/avr/4.8.2/../../../avr/lib/avr51/libc.a(strrchr.o)
                              ../lib/libBT-libs.a(WString.cpp.obj) (strrchr)
/usr/lib/gcc/avr/4.8.2/../../../avr/lib/avr51/libc.a(strstr.o)
                              ../lib/libBT-libs.a(WString.cpp.obj) (strstr)
/usr/lib/gcc/avr/4.8.2/../../../avr/lib/avr51/libc.a(itoa.o)
                              CMakeFiles/BrewTroller-OT_DX1_RIMSDF.elf.dir/Com.cpp.obj (itoa)
/usr/lib/gcc/avr/4.8.2/../../../avr/lib/avr51/libc.a(ltoa.o)
                              ../lib/libBT-libs.a(WString.cpp.obj) (ltoa)
/usr/lib/gcc/avr/4.8.2/../../../avr/lib/avr51/libc.a(mulsi10.o)
                              /usr/lib/gcc/avr/4.8.2/../../../avr/lib/avr51/libc.a(atol.o) (__mulsi_const_10)
/usr/lib/gcc/avr/4.8.2/../../../avr/lib/avr51/libc.a(mul10.o)
                              /usr/lib/gcc/avr/4.8.2/../../../avr/lib/avr51/libc.a(atoi.o) (__mulhi_const_10)
/usr/lib/gcc/avr/4.8.2/../../../avr/lib/avr51/libc.a(ultoa.o)
                              CMakeFiles/BrewTroller-OT_DX1_RIMSDF.elf.dir/Com.cpp.obj (ultoa)
/usr/lib/gcc/avr/4.8.2/../../../avr/lib/avr51/libc.a(utoa.o)
                              ../lib/libBT-libs.a(WString.cpp.obj) (utoa)
/usr/lib/gcc/avr/4.8.2/../../../avr/lib/avr51/libc.a(sprintf.o)
                              CMakeFiles/BrewTroller-OT_DX1_RIMSDF.elf.dir/UI.cpp.obj (sprintf)
/usr/lib/gcc/avr/4.8.2/../../../avr/lib/avr51/libc.a(vfprintf_std.o)
                              /usr/lib/gcc/avr/4.8.2/../../../avr/lib/avr51/libc.a(sprintf.o) (vfprintf)
/usr/lib/gcc/avr/4.8.2/../../../avr/lib/avr51/libc.a(eerd_block_atmega1284p.o)
                              CMakeFiles/BrewTroller-OT_DX1_RIMSDF.elf.dir/EEPROM.cpp.obj (__eerd_block_m1284p)
/usr/lib/gcc/avr/4.8.2/../../../avr/lib/avr51/libc.a(eerd_byte_atmega1284p.o)
                              ../lib/libBT-libs.a(EEPROM.cpp.obj) (__eerd_byte_m1284p)
/usr/lib/gcc/avr/4.8.2/../../../avr/lib/avr51/libc.a(eewr_block_atmega1284p.o)
                              CMakeFiles/BrewTroller-OT_DX1_RIMSDF.elf.dir/EEPROM.cpp.obj (__eewr_block_m1284p)
/usr/lib/gcc/avr/4.8.2/../../../avr/lib/avr51/libc.a(eewr_byte_atmega1284p.o)
                              ../lib/libBT-libs.a(EEPROM.cpp.obj) (__eewr_byte_m1284p)
/usr/lib/gcc/avr/4.8.2/../../../avr/lib/avr51/libc.a(errno.o)
                              /usr/lib/gcc/avr/4.8.2/../../../avr/lib/avr51/libc.a(strtoul.o) (errno)
/usr/lib/gcc/avr/4.8.2/../../../avr/lib/avr51/libc.a(cty_isfalse.o)
                              /usr/lib/gcc/avr/4.8.2/../../../avr/lib/avr51/libc.a(isspace.o) (__ctype_isfalse)
/usr/lib/gcc/avr/4.8.2/../../../avr/lib/avr51/libc.a(strnlen_P.o)
                              /usr/lib/gcc/avr/4.8.2/../../../avr/lib/avr51/libc.a(vfprintf_std.o) (strnlen_P)
/usr/lib/gcc/avr/4.8.2/../../../avr/lib/avr51/libc.a(strnlen.o)
                              /usr/lib/gcc/avr/4.8.2/../../../avr/lib/avr51/libc.a(vfprintf_std.o) (strnlen)
/usr/lib/gcc/avr/4.8.2/../../../avr/lib/avr51/libc.a(strrev.o)
                              /usr/lib/gcc/avr/4.8.2/../../../avr/lib/avr51/libc.a(itoa.o) (strrev)
/usr/lib/gcc/avr/4.8.2/../../../avr/lib/avr51/libc.a(fputc.o)
                              /usr/lib/gcc/avr/4.8.2/../../../avr/lib/avr51/libc.a(vfprintf_std.o) (fputc)
/usr/lib/gcc/avr/4.8.2/../../../avr/lib/avr51/libc.a(ultoa_invert.o)
                              /usr/lib/gcc/avr/4.8.2/../../../avr/lib/avr51/libc.a(vfprintf_std.o) (__ultoa_invert)

Allocating common symbols
Common symbol       size              file

errno               0x2               /usr/lib/gcc/avr/4.8.2/../../../avr/lib/avr51/libc.a(errno.o)
__brkval            0x2               ../lib/libBT-libs.a(malloc.c.obj)
__flp               0x2               ../lib/libBT-libs.a(malloc.c.obj)

Discarded input sections

 .bss           0x0000000000000000        0x0 /usr/lib/gcc/avr/4.8.2/../../../avr/lib/avr51/crtm1284p.o
 .group         0x0000000000000000        0x8 CMakeFiles/BrewTroller-OT_DX1_RIMSDF.elf.dir/BrewCore.cpp.obj
 .group         0x0000000000000000        0x8 CMakeFiles/BrewTroller-OT_DX1_RIMSDF.elf.dir/BrewCore.cpp.obj
 .text          0x0000000000000000        0x0 CMakeFiles/BrewTroller-OT_DX1_RIMSDF.elf.dir/BrewCore.cpp.obj
 .bss           0x0000000000000000        0x0 CMakeFiles/BrewTroller-OT_DX1_RIMSDF.elf.dir/BrewCore.cpp.obj
 .text          0x0000000000000000        0x0 CMakeFiles/BrewTroller-OT_DX1_RIMSDF.elf.dir/BrewTroller.cpp.obj
 .bss           0x0000000000000000        0x0 CMakeFiles/BrewTroller-OT_DX1_RIMSDF.elf.dir/BrewTroller.cpp.obj
 .progmem.data.LOGDATA
                0x0000000000000000        0x5 CMakeFiles/BrewTroller-OT_DX1_RIMSDF.elf.dir/BrewTroller.cpp.obj
 .progmem.data.LOGCFG
                0x0000000000000000        0x4 CMakeFiles/BrewTroller-OT_DX1_RIMSDF.elf.dir/BrewTroller.cpp.obj
 .progmem.data.LOGDEBUG
                0x0000000000000000        0x6 CMakeFiles/BrewTroller-OT_DX1_RIMSDF.elf.dir/BrewTroller.cpp.obj
 .progmem.data.LOGCMD
                0x0000000000000000        0x4 CMakeFiles/BrewTroller-OT_DX1_RIMSDF.elf.dir/BrewTroller.cpp.obj
 .bss.PIDEnabled
                0x0000000000000000        0x1 CMakeFiles/BrewTroller-OT_DX1_RIMSDF.elf.dir/BrewTroller.cpp.obj
 .bss.heatStatus
                0x0000000000000000        0x1 CMakeFiles/BrewTroller-OT_DX1_RIMSDF.elf.dir/BrewTroller.cpp.obj
 .bss.hysteresis
                0x0000000000000000        0x1 CMakeFiles/BrewTroller-OT_DX1_RIMSDF.elf.dir/BrewTroller.cpp.obj
 .bss.PIDCycle  0x0000000000000000        0x1 CMakeFiles/BrewTroller-OT_DX1_RIMSDF.elf.dir/BrewTroller.cpp.obj
 .bss.setpoint  0x0000000000000000        0x4 CMakeFiles/BrewTroller-OT_DX1_RIMSDF.elf.dir/BrewTroller.cpp.obj
 .bss.PIDOutput
                0x0000000000000000        0x4 CMakeFiles/BrewTroller-OT_DX1_RIMSDF.elf.dir/BrewTroller.cpp.obj
 .bss.PIDInput  0x0000000000000000        0x4 CMakeFiles/BrewTroller-OT_DX1_RIMSDF.elf.dir/BrewTroller.cpp.obj
 .bss.pumpPID   0x0000000000000000        0x2 CMakeFiles/BrewTroller-OT_DX1_RIMSDF.elf.dir/BrewTroller.cpp.obj
 .group         0x0000000000000000        0x8 CMakeFiles/BrewTroller-OT_DX1_RIMSDF.elf.dir/Com.cpp.obj
 .text          0x0000000000000000        0x0 CMakeFiles/BrewTroller-OT_DX1_RIMSDF.elf.dir/Com.cpp.obj
 .bss           0x0000000000000000        0x0 CMakeFiles/BrewTroller-OT_DX1_RIMSDF.elf.dir/Com.cpp.obj
 .text._ZN5BTnic5resetEv
                0x0000000000000000       0x14 CMakeFiles/BrewTroller-OT_DX1_RIMSDF.elf.dir/Com.cpp.obj
 .text._ZN5BTnic12eventHandlerEhi
                0x0000000000000000        0x2 CMakeFiles/BrewTroller-OT_DX1_RIMSDF.elf.dir/Com.cpp.obj
 .text._ZN5BTnic8setStateE10BTNICState
                0x0000000000000000        0x6 CMakeFiles/BrewTroller-OT_DX1_RIMSDF.elf.dir/Com.cpp.obj
 .group         0x0000000000000000        0x8 CMakeFiles/BrewTroller-OT_DX1_RIMSDF.elf.dir/Com_BTPD.cpp.obj
 .group         0x0000000000000000        0x8 CMakeFiles/BrewTroller-OT_DX1_RIMSDF.elf.dir/Com_BTPD.cpp.obj
 .text          0x0000000000000000        0x0 CMakeFiles/BrewTroller-OT_DX1_RIMSDF.elf.dir/Com_BTPD.cpp.obj
 .bss           0x0000000000000000        0x0 CMakeFiles/BrewTroller-OT_DX1_RIMSDF.elf.dir/Com_BTPD.cpp.obj
 .text._ZN7TwoWire5writeEi
                0x0000000000000000       0x10 CMakeFiles/BrewTroller-OT_DX1_RIMSDF.elf.dir/Com_BTPD.cpp.obj
 .text._Z14sendFloat1BTPDhf
                0x0000000000000000       0x58 CMakeFiles/BrewTroller-OT_DX1_RIMSDF.elf.dir/Com_BTPD.cpp.obj
 .text._Z14sendFloat2BTPDhf
                0x0000000000000000       0x58 CMakeFiles/BrewTroller-OT_DX1_RIMSDF.elf.dir/Com_BTPD.cpp.obj
 .text._Z9sendVsVolhh
                0x0000000000000000       0x5a CMakeFiles/BrewTroller-OT_DX1_RIMSDF.elf.dir/Com_BTPD.cpp.obj
 .text._Z13sendVesselVolhP6Vessel
                0x0000000000000000       0x4c CMakeFiles/BrewTroller-OT_DX1_RIMSDF.elf.dir/Com_BTPD.cpp.obj
 .text          0x0000000000000000        0x0 CMakeFiles/BrewTroller-OT_DX1_RIMSDF.elf.dir/Com_RGBIO8.cpp.obj
 .bss           0x0000000000000000        0x0 CMakeFiles/BrewTroller-OT_DX1_RIMSDF.elf.dir/Com_RGBIO8.cpp.obj
 .text          0x0000000000000000        0x0 CMakeFiles/BrewTroller-OT_DX1_RIMSDF.elf.dir/Com_S0ASC.cpp.obj
 .bss           0x0000000000000000        0x0 CMakeFiles/BrewTroller-OT_DX1_RIMSDF.elf.dir/Com_S0ASC.cpp.obj
 .text          0x0000000000000000        0x0 CMakeFiles/BrewTroller-OT_DX1_RIMSDF.elf.dir/EEPROM.cpp.obj
 .bss           0x0000000000000000        0x0 CMakeFiles/BrewTroller-OT_DX1_RIMSDF.elf.dir/EEPROM.cpp.obj
 .text._Z12setSteamZeroj
                0x0000000000000000        0x2 CMakeFiles/BrewTroller-OT_DX1_RIMSDF.elf.dir/EEPROM.cpp.obj
 .text._Z11setSteamTgth
                0x0000000000000000       0x10 CMakeFiles/BrewTroller-OT_DX1_RIMSDF.elf.dir/EEPROM.cpp.obj
 .text._Z11getSteamTgtv
                0x0000000000000000        0xe CMakeFiles/BrewTroller-OT_DX1_RIMSDF.elf.dir/EEPROM.cpp.obj
 .text          0x0000000000000000        0x0 CMakeFiles/BrewTroller-OT_DX1_RIMSDF.elf.dir/FlowController.cpp.obj
 .bss           0x0000000000000000        0x0 CMakeFiles/BrewTroller-OT_DX1_RIMSDF.elf.dir/FlowController.cpp.obj
 .text._ZN14FlowControllerD2Ev
                0x0000000000000000       0x10 CMakeFiles/BrewTroller-OT_DX1_RIMSDF.elf.dir/FlowController.cpp.obj
 .text._ZN14FlowController9matchFlowEPS_
                0x0000000000000000       0x4c CMakeFiles/BrewTroller-OT_DX1_RIMSDF.elf.dir/FlowController.cpp.obj
 .text._ZN14FlowController6setPIDEdddd
                0x0000000000000000       0x4e CMakeFiles/BrewTroller-OT_DX1_RIMSDF.elf.dir/FlowController.cpp.obj
 .text          0x0000000000000000        0x0 CMakeFiles/BrewTroller-OT_DX1_RIMSDF.elf.dir/Events.cpp.obj
 .bss           0x0000000000000000        0x0 CMakeFiles/BrewTroller-OT_DX1_RIMSDF.elf.dir/Events.cpp.obj
 .text          0x0000000000000000        0x0 CMakeFiles/BrewTroller-OT_DX1_RIMSDF.elf.dir/Outputs.cpp.obj
 .bss           0x0000000000000000        0x0 CMakeFiles/BrewTroller-OT_DX1_RIMSDF.elf.dir/Outputs.cpp.obj
 .text._Z16processAutoValvev
                0x0000000000000000        0x2 CMakeFiles/BrewTroller-OT_DX1_RIMSDF.elf.dir/Outputs.cpp.obj
 .text          0x0000000000000000        0x0 CMakeFiles/BrewTroller-OT_DX1_RIMSDF.elf.dir/PVOut.cpp.obj
 .bss           0x0000000000000000        0x0 CMakeFiles/BrewTroller-OT_DX1_RIMSDF.elf.dir/PVOut.cpp.obj
 .text._ZN8PVOutMUXC2Ehhhhh
                0x0000000000000000       0xa4 CMakeFiles/BrewTroller-OT_DX1_RIMSDF.elf.dir/PVOut.cpp.obj
 .text._ZN8PVOutMUX3setEm
                0x0000000000000000       0xf4 CMakeFiles/BrewTroller-OT_DX1_RIMSDF.elf.dir/PVOut.cpp.obj
 .text._ZN8PVOutMUX4initEv
                0x0000000000000000       0x5a CMakeFiles/BrewTroller-OT_DX1_RIMSDF.elf.dir/PVOut.cpp.obj
 .text._ZN8PVOutMUX3getEv
                0x0000000000000000        0xc CMakeFiles/BrewTroller-OT_DX1_RIMSDF.elf.dir/PVOut.cpp.obj
 .text._ZN11PVOutMODBUS4initEv
                0x0000000000000000        0xc CMakeFiles/BrewTroller-OT_DX1_RIMSDF.elf.dir/PVOut.cpp.obj
 .text._ZN11PVOutMODBUS3getEv
                0x0000000000000000        0xc CMakeFiles/BrewTroller-OT_DX1_RIMSDF.elf.dir/PVOut.cpp.obj
 .group         0x0000000000000000        0x8 CMakeFiles/BrewTroller-OT_DX1_RIMSDF.elf.dir/StepLogic.cpp.obj
 .text          0x0000000000000000        0x0 CMakeFiles/BrewTroller-OT_DX1_RIMSDF.elf.dir/StepLogic.cpp.obj
 .bss           0x0000000000000000        0x0 CMakeFiles/BrewTroller-OT_DX1_RIMSDF.elf.dir/StepLogic.cpp.obj
 .text._Z12brewStepFunch
                0x0000000000000000       0x1c CMakeFiles/BrewTroller-OT_DX1_RIMSDF.elf.dir/StepLogic.cpp.obj
 .text._Z15autoSpargeStartv
                0x0000000000000000       0x6e CMakeFiles/BrewTroller-OT_DX1_RIMSDF.elf.dir/StepLogic.cpp.obj
 .text          0x0000000000000000        0x0 CMakeFiles/BrewTroller-OT_DX1_RIMSDF.elf.dir/Temp.cpp.obj
 .bss           0x0000000000000000        0x0 CMakeFiles/BrewTroller-OT_DX1_RIMSDF.elf.dir/Temp.cpp.obj
 .text          0x0000000000000000        0x0 CMakeFiles/BrewTroller-OT_DX1_RIMSDF.elf.dir/Timer.cpp.obj
 .bss           0x0000000000000000        0x0 CMakeFiles/BrewTroller-OT_DX1_RIMSDF.elf.dir/Timer.cpp.obj
 .group         0x0000000000000000        0x8 CMakeFiles/BrewTroller-OT_DX1_RIMSDF.elf.dir/UI.cpp.obj
 .group         0x0000000000000000        0x8 CMakeFiles/BrewTroller-OT_DX1_RIMSDF.elf.dir/UI.cpp.obj
 .group         0x0000000000000000        0x8 CMakeFiles/BrewTroller-OT_DX1_RIMSDF.elf.dir/UI.cpp.obj
 .group         0x0000000000000000        0x8 CMakeFiles/BrewTroller-OT_DX1_RIMSDF.elf.dir/UI.cpp.obj
 .group         0x0000000000000000        0x8 CMakeFiles/BrewTroller-OT_DX1_RIMSDF.elf.dir/UI.cpp.obj
 .group         0x0000000000000000        0x8 CMakeFiles/BrewTroller-OT_DX1_RIMSDF.elf.dir/UI.cpp.obj
 .group         0x0000000000000000        0x8 CMakeFiles/BrewTroller-OT_DX1_RIMSDF.elf.dir/UI.cpp.obj
 .group         0x0000000000000000        0x8 CMakeFiles/BrewTroller-OT_DX1_RIMSDF.elf.dir/UI.cpp.obj
 .group         0x0000000000000000        0x8 CMakeFiles/BrewTroller-OT_DX1_RIMSDF.elf.dir/UI.cpp.obj
 .group         0x0000000000000000        0x8 CMakeFiles/BrewTroller-OT_DX1_RIMSDF.elf.dir/UI.cpp.obj
 .group         0x0000000000000000        0x8 CMakeFiles/BrewTroller-OT_DX1_RIMSDF.elf.dir/UI.cpp.obj
 .group         0x0000000000000000        0x8 CMakeFiles/BrewTroller-OT_DX1_RIMSDF.elf.dir/UI.cpp.obj
 .group         0x0000000000000000        0x8 CMakeFiles/BrewTroller-OT_DX1_RIMSDF.elf.dir/UI.cpp.obj
 .text          0x0000000000000000        0x0 CMakeFiles/BrewTroller-OT_DX1_RIMSDF.elf.dir/UI.cpp.obj
 .bss           0x0000000000000000        0x0 CMakeFiles/BrewTroller-OT_DX1_RIMSDF.elf.dir/UI.cpp.obj
 .text._ZN7TwoWire5writeEi
                0x0000000000000000       0x10 CMakeFiles/BrewTroller-OT_DX1_RIMSDF.elf.dir/UI.cpp.obj
 .text._ZN14FlowController9startAutoEv
                0x0000000000000000        0xc CMakeFiles/BrewTroller-OT_DX1_RIMSDF.elf.dir/UI.cpp.obj
 .text._Z9setActiveh
                0x0000000000000000        0xc CMakeFiles/BrewTroller-OT_DX1_RIMSDF.elf.dir/UI.cpp.obj
 .text._Z5ulpowmm
                0x0000000000000000       0x6a CMakeFiles/BrewTroller-OT_DX1_RIMSDF.elf.dir/UI.cpp.obj
 .text._Z10setPIDGainPch
                0x0000000000000000      0x340 CMakeFiles/BrewTroller-OT_DX1_RIMSDF.elf.dir/UI.cpp.obj
 .text._Z11getHexValuePcm
                0x0000000000000000      0x2ae CMakeFiles/BrewTroller-OT_DX1_RIMSDF.elf.dir/UI.cpp.obj
 .text._ZN6LCDI2C6updateEv
                0x0000000000000000       0xee CMakeFiles/BrewTroller-OT_DX1_RIMSDF.elf.dir/UI.cpp.obj
 .text          0x0000000000000000        0x0 CMakeFiles/BrewTroller-OT_DX1_RIMSDF.elf.dir/UIStrings.cpp.obj
 .bss           0x0000000000000000        0x0 CMakeFiles/BrewTroller-OT_DX1_RIMSDF.elf.dir/UIStrings.cpp.obj
 .progmem.data._ZN9UIStrings11SystemSetup9PIDConfig7PID_SEPE
                0x0000000000000000       0x15 CMakeFiles/BrewTroller-OT_DX1_RIMSDF.elf.dir/UIStrings.cpp.obj
 .progmem.data._ZN9UIStrings9AUXScreen3AUXE
                0x0000000000000000        0x4 CMakeFiles/BrewTroller-OT_DX1_RIMSDF.elf.dir/UIStrings.cpp.obj
 .text          0x0000000000000000        0x0 CMakeFiles/BrewTroller-OT_DX1_RIMSDF.elf.dir/Util.cpp.obj
 .bss           0x0000000000000000        0x0 CMakeFiles/BrewTroller-OT_DX1_RIMSDF.elf.dir/Util.cpp.obj
 .text._Z16tempConvertUnitsj
                0x0000000000000000        0x2 CMakeFiles/BrewTroller-OT_DX1_RIMSDF.elf.dir/Util.cpp.obj
 .text          0x0000000000000000        0x0 CMakeFiles/BrewTroller-OT_DX1_RIMSDF.elf.dir/Vessel.cpp.obj
 .bss           0x0000000000000000        0x0 CMakeFiles/BrewTroller-OT_DX1_RIMSDF.elf.dir/Vessel.cpp.obj
 .text          0x0000000000000000        0x0 CMakeFiles/BrewTroller-OT_DX1_RIMSDF.elf.dir/Volume.cpp.obj
 .bss           0x0000000000000000        0x0 CMakeFiles/BrewTroller-OT_DX1_RIMSDF.elf.dir/Volume.cpp.obj
 .text._Z12readPressurehjj
                0x0000000000000000       0x70 CMakeFiles/BrewTroller-OT_DX1_RIMSDF.elf.dir/Volume.cpp.obj
 .bss.lastFlowChk
                0x0000000000000000        0x4 CMakeFiles/BrewTroller-OT_DX1_RIMSDF.elf.dir/Volume.cpp.obj
 .bss.prevFlowVol
                0x0000000000000000        0xc CMakeFiles/BrewTroller-OT_DX1_RIMSDF.elf.dir/Volume.cpp.obj
 .bss.volReadings
                0x0000000000000000       0x3c CMakeFiles/BrewTroller-OT_DX1_RIMSDF.elf.dir/Volume.cpp.obj
 .text          0x0000000000000000        0x0 ../lib/libBT-libs.a(malloc.c.obj)
 .bss           0x0000000000000000        0x0 ../lib/libBT-libs.a(malloc.c.obj)
 .group         0x0000000000000000        0x8 ../lib/libBT-libs.a(HardwareSerial.cpp.obj)
 .group         0x0000000000000000        0x8 ../lib/libBT-libs.a(HardwareSerial.cpp.obj)
 .text          0x0000000000000000        0x0 ../lib/libBT-libs.a(HardwareSerial.cpp.obj)
 .bss           0x0000000000000000        0x0 ../lib/libBT-libs.a(HardwareSerial.cpp.obj)
 .text._ZN14HardwareSerial3endEv
                0x0000000000000000       0xae ../lib/libBT-libs.a(HardwareSerial.cpp.obj)
 .text._ZN14HardwareSerialcvbEv
                0x0000000000000000        0x4 ../lib/libBT-libs.a(HardwareSerial.cpp.obj)
 .rodata._ZTV6Stream
                0x0000000000000000       0x10 ../lib/libBT-libs.a(HardwareSerial.cpp.obj)
 .text          0x0000000000000000        0x0 ../lib/libBT-libs.a(new.cpp.obj)
 .bss           0x0000000000000000        0x0 ../lib/libBT-libs.a(new.cpp.obj)
 .text._Znaj    0x0000000000000000        0x6 ../lib/libBT-libs.a(new.cpp.obj)
 .text._ZdaPv   0x0000000000000000        0x6 ../lib/libBT-libs.a(new.cpp.obj)
 .text.__cxa_guard_acquire
                0x0000000000000000       0x12 ../lib/libBT-libs.a(new.cpp.obj)
 .text.__cxa_guard_release
                0x0000000000000000        0x8 ../lib/libBT-libs.a(new.cpp.obj)
 .text.__cxa_guard_abort
                0x0000000000000000        0x2 ../lib/libBT-libs.a(new.cpp.obj)
 .text.__cxa_pure_virtual
                0x0000000000000000        0x2 ../lib/libBT-libs.a(new.cpp.obj)
 .group         0x0000000000000000        0x8 ../lib/libBT-libs.a(Print.cpp.obj)
 .group         0x0000000000000000        0x8 ../lib/libBT-libs.a(Print.cpp.obj)
 .text          0x0000000000000000        0x0 ../lib/libBT-libs.a(Print.cpp.obj)
 .bss           0x0000000000000000        0x0 ../lib/libBT-libs.a(Print.cpp.obj)
 .text._ZN5Print5writeEPKc
                0x0000000000000000       0x2e ../lib/libBT-libs.a(Print.cpp.obj)
 .text._ZN5Print5printEPK19__FlashStringHelper
                0x0000000000000000       0x46 ../lib/libBT-libs.a(Print.cpp.obj)
 .text._ZN5Print5printERK6String
                0x0000000000000000       0x56 ../lib/libBT-libs.a(Print.cpp.obj)
 .text._ZN5Print5printERK9Printable
                0x0000000000000000       0x16 ../lib/libBT-libs.a(Print.cpp.obj)
 .text._ZN5Print7printlnEPK19__FlashStringHelper
                0x0000000000000000       0x24 ../lib/libBT-libs.a(Print.cpp.obj)
 .text._ZN5Print7printlnERK6String
                0x0000000000000000       0x24 ../lib/libBT-libs.a(Print.cpp.obj)
 .text._ZN5Print7printlnEc
                0x0000000000000000       0x24 ../lib/libBT-libs.a(Print.cpp.obj)
 .text._ZN5Print7printlnERK9Printable
                0x0000000000000000       0x24 ../lib/libBT-libs.a(Print.cpp.obj)
 .text._ZN5Print5printEli
                0x0000000000000000       0x6c ../lib/libBT-libs.a(Print.cpp.obj)
 .text._ZN5Print5printEii
                0x0000000000000000       0x12 ../lib/libBT-libs.a(Print.cpp.obj)
 .text._ZN5Print7printlnEli
                0x0000000000000000       0x24 ../lib/libBT-libs.a(Print.cpp.obj)
 .text._ZN5Print7printlnEii
                0x0000000000000000       0x30 ../lib/libBT-libs.a(Print.cpp.obj)
 .text._ZN5Print5printEhi
                0x0000000000000000       0x10 ../lib/libBT-libs.a(Print.cpp.obj)
 .text._ZN5Print5printEji
                0x0000000000000000        0xe ../lib/libBT-libs.a(Print.cpp.obj)
 .text._ZN5Print7printlnEmi
                0x0000000000000000       0x24 ../lib/libBT-libs.a(Print.cpp.obj)
 .text._ZN5Print7printlnEji
                0x0000000000000000       0x2c ../lib/libBT-libs.a(Print.cpp.obj)
 .text._ZN5Print7printlnEhi
                0x0000000000000000       0x2e ../lib/libBT-libs.a(Print.cpp.obj)
 .rodata.str1.1
                0x0000000000000000        0xe ../lib/libBT-libs.a(Print.cpp.obj)
 .text._ZN5Print10printFloatEdh
                0x0000000000000000      0x18e ../lib/libBT-libs.a(Print.cpp.obj)
 .text._ZN5Print5printEdi
                0x0000000000000000        0x6 ../lib/libBT-libs.a(Print.cpp.obj)
 .text._ZN5Print7printlnEdi
                0x0000000000000000       0x24 ../lib/libBT-libs.a(Print.cpp.obj)
 .rodata._ZTV5Print
                0x0000000000000000        0x8 ../lib/libBT-libs.a(Print.cpp.obj)
 .text          0x0000000000000000        0x0 ../lib/libBT-libs.a(wiring.c.obj)
 .bss           0x0000000000000000        0x0 ../lib/libBT-libs.a(wiring.c.obj)
 .text          0x0000000000000000        0x0 ../lib/libBT-libs.a(wiring_analog.c.obj)
 .bss           0x0000000000000000        0x0 ../lib/libBT-libs.a(wiring_analog.c.obj)
 .text.analogReference
                0x0000000000000000        0x6 ../lib/libBT-libs.a(wiring_analog.c.obj)
 .text.analogWrite
                0x0000000000000000       0xde ../lib/libBT-libs.a(wiring_analog.c.obj)
 .progmem.gcc_sw_table.analogWrite
                0x0000000000000000       0x12 ../lib/libBT-libs.a(wiring_analog.c.obj)
 .text          0x0000000000000000        0x0 ../lib/libBT-libs.a(wiring_digital.c.obj)
 .bss           0x0000000000000000        0x0 ../lib/libBT-libs.a(wiring_digital.c.obj)
 .text.pinMode  0x0000000000000000       0x72 ../lib/libBT-libs.a(wiring_digital.c.obj)
 .text.digitalRead
                0x0000000000000000       0x4e ../lib/libBT-libs.a(wiring_digital.c.obj)
 .text          0x0000000000000000        0x0 ../lib/libBT-libs.a(WString.cpp.obj)
 .bss           0x0000000000000000        0x0 ../lib/libBT-libs.a(WString.cpp.obj)
 .text._ZN6StringD2Ev
                0x0000000000000000        0xc ../lib/libBT-libs.a(WString.cpp.obj)
 .text._ZN6String10invalidateEv
                0x0000000000000000       0x24 ../lib/libBT-libs.a(WString.cpp.obj)
 .text._ZN6String12changeBufferEj
                0x0000000000000000       0x34 ../lib/libBT-libs.a(WString.cpp.obj)
 .text._ZN6String7reserveEj
                0x0000000000000000       0x38 ../lib/libBT-libs.a(WString.cpp.obj)
 .text._ZN6String4copyEPKcj
                0x0000000000000000       0x3e ../lib/libBT-libs.a(WString.cpp.obj)
 .text._ZN6StringC2EPKc
                0x0000000000000000       0x2e ../lib/libBT-libs.a(WString.cpp.obj)
 .text._ZN6String4moveERS_
                0x0000000000000000       0x6c ../lib/libBT-libs.a(WString.cpp.obj)
 .text._ZN6StringC2EOS_
                0x0000000000000000       0x16 ../lib/libBT-libs.a(WString.cpp.obj)
 .text._ZN6StringC2EO15StringSumHelper
                0x0000000000000000       0x16 ../lib/libBT-libs.a(WString.cpp.obj)
 .text._ZN6StringaSERKS_
                0x0000000000000000       0x2e ../lib/libBT-libs.a(WString.cpp.obj)
 .text._ZN6StringC2ERKS_
                0x0000000000000000       0x16 ../lib/libBT-libs.a(WString.cpp.obj)
 .text._ZN6StringaSEOS_
                0x0000000000000000       0x18 ../lib/libBT-libs.a(WString.cpp.obj)
 .text._ZN6StringaSEO15StringSumHelper
                0x0000000000000000       0x18 ../lib/libBT-libs.a(WString.cpp.obj)
 .text._ZN6StringaSEPKc
                0x0000000000000000       0x30 ../lib/libBT-libs.a(WString.cpp.obj)
 .text._ZN6StringC2Ec
                0x0000000000000000       0x32 ../lib/libBT-libs.a(WString.cpp.obj)
 .text._ZN6StringC2Ehh
                0x0000000000000000       0x42 ../lib/libBT-libs.a(WString.cpp.obj)
 .text._ZN6StringC2Eih
                0x0000000000000000       0x40 ../lib/libBT-libs.a(WString.cpp.obj)
 .text._ZN6StringC2Ejh
                0x0000000000000000       0x40 ../lib/libBT-libs.a(WString.cpp.obj)
 .text._ZN6StringC2Elh
                0x0000000000000000       0x42 ../lib/libBT-libs.a(WString.cpp.obj)
 .text._ZN6StringC2Emh
                0x0000000000000000       0x42 ../lib/libBT-libs.a(WString.cpp.obj)
 .text._ZN6String6concatEPKcj
                0x0000000000000000       0x54 ../lib/libBT-libs.a(WString.cpp.obj)
 .text._ZN6String6concatERKS_
                0x0000000000000000       0x10 ../lib/libBT-libs.a(WString.cpp.obj)
 .text._ZN6String6concatEPKc
                0x0000000000000000       0x22 ../lib/libBT-libs.a(WString.cpp.obj)
 .text._ZN6String6concatEc
                0x0000000000000000       0x26 ../lib/libBT-libs.a(WString.cpp.obj)
 .text._ZN6String6concatEh
                0x0000000000000000       0x44 ../lib/libBT-libs.a(WString.cpp.obj)
 .text._ZN6String6concatEi
                0x0000000000000000       0x42 ../lib/libBT-libs.a(WString.cpp.obj)
 .text._ZN6String6concatEj
                0x0000000000000000       0x42 ../lib/libBT-libs.a(WString.cpp.obj)
 .text._ZN6String6concatEl
                0x0000000000000000       0x44 ../lib/libBT-libs.a(WString.cpp.obj)
 .text._ZN6String6concatEm
                0x0000000000000000       0x44 ../lib/libBT-libs.a(WString.cpp.obj)
 .text._ZplRK15StringSumHelperRK6String
                0x0000000000000000       0x26 ../lib/libBT-libs.a(WString.cpp.obj)
 .text._ZplRK15StringSumHelperPKc
                0x0000000000000000       0x34 ../lib/libBT-libs.a(WString.cpp.obj)
 .text._ZplRK15StringSumHelperc
                0x0000000000000000       0x1c ../lib/libBT-libs.a(WString.cpp.obj)
 .text._ZplRK15StringSumHelperh
                0x0000000000000000       0x1c ../lib/libBT-libs.a(WString.cpp.obj)
 .text._ZplRK15StringSumHelperi
                0x0000000000000000       0x1c ../lib/libBT-libs.a(WString.cpp.obj)
 .text._ZplRK15StringSumHelperj
                0x0000000000000000       0x1c ../lib/libBT-libs.a(WString.cpp.obj)
 .text._ZplRK15StringSumHelperl
                0x0000000000000000       0x1c ../lib/libBT-libs.a(WString.cpp.obj)
 .text._ZplRK15StringSumHelperm
                0x0000000000000000       0x1c ../lib/libBT-libs.a(WString.cpp.obj)
 .text._ZNK6String9compareToERKS_
                0x0000000000000000       0x5e ../lib/libBT-libs.a(WString.cpp.obj)
 .text._ZNK6String6equalsERKS_
                0x0000000000000000       0x26 ../lib/libBT-libs.a(WString.cpp.obj)
 .text._ZNK6String6equalsEPKc
                0x0000000000000000       0x3e ../lib/libBT-libs.a(WString.cpp.obj)
 .text._ZNK6StringltERKS_
                0x0000000000000000        0xe ../lib/libBT-libs.a(WString.cpp.obj)
 .text._ZNK6StringgtERKS_
                0x0000000000000000       0x12 ../lib/libBT-libs.a(WString.cpp.obj)
 .text._ZNK6StringleERKS_
                0x0000000000000000       0x12 ../lib/libBT-libs.a(WString.cpp.obj)
 .text._ZNK6StringgeERKS_
                0x0000000000000000       0x10 ../lib/libBT-libs.a(WString.cpp.obj)
 .text._ZNK6String16equalsIgnoreCaseERKS_
                0x0000000000000000       0x66 ../lib/libBT-libs.a(WString.cpp.obj)
 .text._ZNK6String10startsWithERKS_j
                0x0000000000000000       0x48 ../lib/libBT-libs.a(WString.cpp.obj)
 .text._ZNK6String10startsWithERKS_
                0x0000000000000000       0x20 ../lib/libBT-libs.a(WString.cpp.obj)
 .text._ZNK6String8endsWithERKS_
                0x0000000000000000       0x42 ../lib/libBT-libs.a(WString.cpp.obj)
 .text._ZN6String9setCharAtEjc
                0x0000000000000000       0x1c ../lib/libBT-libs.a(WString.cpp.obj)
 .text._ZN6StringixEj
                0x0000000000000000       0x24 ../lib/libBT-libs.a(WString.cpp.obj)
 .text._ZNK6StringixEj
                0x0000000000000000       0x22 ../lib/libBT-libs.a(WString.cpp.obj)
 .text._ZNK6String6charAtEj
                0x0000000000000000        0x6 ../lib/libBT-libs.a(WString.cpp.obj)
 .text._ZNK6String8getBytesEPhjj
                0x0000000000000000       0x54 ../lib/libBT-libs.a(WString.cpp.obj)
 .text._ZNK6String7indexOfEcj
                0x0000000000000000       0x34 ../lib/libBT-libs.a(WString.cpp.obj)
 .text._ZNK6String7indexOfEc
                0x0000000000000000        0xa ../lib/libBT-libs.a(WString.cpp.obj)
 .text._ZNK6String7indexOfERKS_j
                0x0000000000000000       0x38 ../lib/libBT-libs.a(WString.cpp.obj)
 .text._ZNK6String7indexOfERKS_
                0x0000000000000000        0xa ../lib/libBT-libs.a(WString.cpp.obj)
 .text._ZNK6String11lastIndexOfEcj
                0x0000000000000000       0x5a ../lib/libBT-libs.a(WString.cpp.obj)
 .text._ZNK6String11lastIndexOfEc
                0x0000000000000000       0x10 ../lib/libBT-libs.a(WString.cpp.obj)
 .text._ZNK6String11lastIndexOfERKS_j
                0x0000000000000000       0x86 ../lib/libBT-libs.a(WString.cpp.obj)
 .text._ZNK6String11lastIndexOfERKS_
                0x0000000000000000       0x16 ../lib/libBT-libs.a(WString.cpp.obj)
 .rodata.str1.1
                0x0000000000000000        0x1 ../lib/libBT-libs.a(WString.cpp.obj)
 .text._ZNK6String9substringEjj
                0x0000000000000000       0x76 ../lib/libBT-libs.a(WString.cpp.obj)
 .text._ZNK6String9substringEj
                0x0000000000000000       0x18 ../lib/libBT-libs.a(WString.cpp.obj)
 .text._ZN6String7replaceEcc
                0x0000000000000000       0x1c ../lib/libBT-libs.a(WString.cpp.obj)
 .text._ZN6String7replaceERKS_S1_
                0x0000000000000000      0x190 ../lib/libBT-libs.a(WString.cpp.obj)
 .text._ZN6String11toLowerCaseEv
                0x0000000000000000       0x24 ../lib/libBT-libs.a(WString.cpp.obj)
 .text._ZN6String11toUpperCaseEv
                0x0000000000000000       0x24 ../lib/libBT-libs.a(WString.cpp.obj)
 .text._ZN6String4trimEv
                0x0000000000000000       0xa0 ../lib/libBT-libs.a(WString.cpp.obj)
 .text._ZNK6String5toIntEv
                0x0000000000000000       0x18 ../lib/libBT-libs.a(WString.cpp.obj)
 .bss._ZZN6StringixEjE19dummy_writable_char
                0x0000000000000000        0x1 ../lib/libBT-libs.a(WString.cpp.obj)
 .text          0x0000000000000000        0x0 ../lib/libBT-libs.a(EEPROM.cpp.obj)
 .bss           0x0000000000000000        0x0 ../lib/libBT-libs.a(EEPROM.cpp.obj)
 .group         0x0000000000000000        0x8 ../lib/libBT-libs.a(Wire.cpp.obj)
 .group         0x0000000000000000        0x8 ../lib/libBT-libs.a(Wire.cpp.obj)
 .text          0x0000000000000000        0x0 ../lib/libBT-libs.a(Wire.cpp.obj)
 .bss           0x0000000000000000        0x0 ../lib/libBT-libs.a(Wire.cpp.obj)
 .text._ZN7TwoWire11requestFromEiii
                0x0000000000000000        0x6 ../lib/libBT-libs.a(Wire.cpp.obj)
 .text._ZN7TwoWire9onReceiveEPFviE
                0x0000000000000000        0xa ../lib/libBT-libs.a(Wire.cpp.obj)
 .text._ZN7TwoWire9onRequestEPFvvE
                0x0000000000000000        0xa ../lib/libBT-libs.a(Wire.cpp.obj)
 .rodata._ZTV6Stream
                0x0000000000000000       0x10 ../lib/libBT-libs.a(Wire.cpp.obj)
 .text          0x0000000000000000        0x0 ../lib/libBT-libs.a(twi.c.obj)
 .bss           0x0000000000000000        0x0 ../lib/libBT-libs.a(twi.c.obj)
 .text.twi_reply
                0x0000000000000000       0x10 ../lib/libBT-libs.a(twi.c.obj)
 .group         0x0000000000000000        0x8 ../lib/libBT-libs.a(encoder.cpp.obj)
 .group         0x0000000000000000        0x8 ../lib/libBT-libs.a(encoder.cpp.obj)
 .group         0x0000000000000000        0x8 ../lib/libBT-libs.a(encoder.cpp.obj)
 .group         0x0000000000000000        0x8 ../lib/libBT-libs.a(encoder.cpp.obj)
 .text          0x0000000000000000        0x0 ../lib/libBT-libs.a(encoder.cpp.obj)
 .bss           0x0000000000000000        0x0 ../lib/libBT-libs.a(encoder.cpp.obj)
 .text._ZN7encoder8incCountEv
                0x0000000000000000       0x2a ../lib/libBT-libs.a(encoder.cpp.obj)
 .text._ZN7encoder8decCountEv
                0x0000000000000000       0x2a ../lib/libBT-libs.a(encoder.cpp.obj)
 .text._ZN7TwoWire5writeEi
                0x0000000000000000       0x10 ../lib/libBT-libs.a(encoder.cpp.obj)
 .text._ZN7encoder5beginEhhhhhh
                0x0000000000000000       0x9c ../lib/libBT-libs.a(encoder.cpp.obj)
 .text._ZN7encoder5beginEhhhh
                0x0000000000000000       0x84 ../lib/libBT-libs.a(encoder.cpp.obj)
 .text._ZN7encoder5beginEhhhhh
                0x0000000000000000       0x22 ../lib/libBT-libs.a(encoder.cpp.obj)
 .text._ZN7encoder3endEv
                0x0000000000000000       0x22 ../lib/libBT-libs.a(encoder.cpp.obj)
 .text._ZN7encoder12setActiveLowEb
                0x0000000000000000       0x46 ../lib/libBT-libs.a(encoder.cpp.obj)
 .text._ZN7encoder11alpsHandlerEv
                0x0000000000000000       0x30 ../lib/libBT-libs.a(encoder.cpp.obj)
 .text._Z7alpsISRv
                0x0000000000000000        0xa ../lib/libBT-libs.a(encoder.cpp.obj)
 .text._ZN7encoder10cuiHandlerEv
                0x0000000000000000       0x24 ../lib/libBT-libs.a(encoder.cpp.obj)
 .text._Z6cuiISRv
                0x0000000000000000        0xa ../lib/libBT-libs.a(encoder.cpp.obj)
 .text._ZN7encoder12enterHandlerEv
                0x0000000000000000       0x9e ../lib/libBT-libs.a(encoder.cpp.obj)
 .text._Z8enterISRv
                0x0000000000000000        0xa ../lib/libBT-libs.a(encoder.cpp.obj)
 .text._ZN7encoder10i2cSetWrapEb
                0x0000000000000000       0x34 ../lib/libBT-libs.a(encoder.cpp.obj)
 .text._ZN7encoder7setWrapEb
                0x0000000000000000       0x14 ../lib/libBT-libs.a(encoder.cpp.obj)
 .text._ZN7encoder13i2cClearCountEv
                0x0000000000000000       0x22 ../lib/libBT-libs.a(encoder.cpp.obj)
 .text._ZN7encoder10clearCountEv
                0x0000000000000000       0x1a ../lib/libBT-libs.a(encoder.cpp.obj)
 .text._ZN7encoder18i2cClearEnterStateEv
                0x0000000000000000       0x22 ../lib/libBT-libs.a(encoder.cpp.obj)
 .text._ZN7encoder15clearEnterStateEv
                0x0000000000000000       0x14 ../lib/libBT-libs.a(encoder.cpp.obj)
 .text._ZN7encoder16i2cGetEnterStateEv
                0x0000000000000000       0x4c ../lib/libBT-libs.a(encoder.cpp.obj)
 .text._ZN7encoder13getEnterStateEv
                0x0000000000000000       0x14 ../lib/libBT-libs.a(encoder.cpp.obj)
 .text._ZN7encoder15getEncoderStateEv
                0x0000000000000000       0x56 ../lib/libBT-libs.a(encoder.cpp.obj)
 .group         0x0000000000000000        0x8 ../lib/libBT-libs.a(pin.cpp.obj)
 .text          0x0000000000000000        0x0 ../lib/libBT-libs.a(pin.cpp.obj)
 .bss           0x0000000000000000        0x0 ../lib/libBT-libs.a(pin.cpp.obj)
 .text._ZN3pinC2Eh
                0x0000000000000000        0xc ../lib/libBT-libs.a(pin.cpp.obj)
 .text._ZN3pinC2Ehh
                0x0000000000000000        0x6 ../lib/libBT-libs.a(pin.cpp.obj)
 .text._ZN3pin6setPinEh
                0x0000000000000000        0xc ../lib/libBT-libs.a(pin.cpp.obj)
 .text._ZN3pin6setDirEh
                0x0000000000000000        0xe ../lib/libBT-libs.a(pin.cpp.obj)
 .text          0x0000000000000000        0x0 ../lib/libBT-libs.a(menu.cpp.obj)
 .bss           0x0000000000000000        0x0 ../lib/libBT-libs.a(menu.cpp.obj)
 .text          0x0000000000000000        0x0 ../lib/libBT-libs.a(ModbusMaster.cpp.obj)
 .bss           0x0000000000000000        0x0 ../lib/libBT-libs.a(ModbusMaster.cpp.obj)
 .text._ZN12ModbusMasterC2Eh
                0x0000000000000000        0x8 ../lib/libBT-libs.a(ModbusMaster.cpp.obj)
 .text._ZN12ModbusMaster5beginEv
                0x0000000000000000       0x10 ../lib/libBT-libs.a(ModbusMaster.cpp.obj)
 .text._ZN12ModbusMaster5beginEm
                0x0000000000000000        0x8 ../lib/libBT-libs.a(ModbusMaster.cpp.obj)
 .text._ZN12ModbusMaster19clearResponseBufferEv
                0x0000000000000000       0x1a ../lib/libBT-libs.a(ModbusMaster.cpp.obj)
 .text._ZN12ModbusMaster19clearTransmitBufferEv
                0x0000000000000000       0x1e ../lib/libBT-libs.a(ModbusMaster.cpp.obj)
 .text._ZN12ModbusMaster18readDiscreteInputsEjj
                0x0000000000000000       0x12 ../lib/libBT-libs.a(ModbusMaster.cpp.obj)
 .text._ZN12ModbusMaster18readInputRegistersEjh
                0x0000000000000000       0x14 ../lib/libBT-libs.a(ModbusMaster.cpp.obj)
 .text._ZN12ModbusMaster15writeSingleCoilEjh
                0x0000000000000000       0x2a ../lib/libBT-libs.a(ModbusMaster.cpp.obj)
 .text._ZN12ModbusMaster22writeMultipleRegistersEjj
                0x0000000000000000       0x1c ../lib/libBT-libs.a(ModbusMaster.cpp.obj)
 .text._ZN12ModbusMaster17maskWriteRegisterEjjj
                0x0000000000000000       0x26 ../lib/libBT-libs.a(ModbusMaster.cpp.obj)
 .text._ZN12ModbusMaster26readWriteMultipleRegistersEjjjj
                0x0000000000000000       0x2c ../lib/libBT-libs.a(ModbusMaster.cpp.obj)
 .text          0x0000000000000000        0x0 ../lib/libBT-libs.a(PID_Beta6.cpp.obj)
 .bss           0x0000000000000000        0x0 ../lib/libBT-libs.a(PID_Beta6.cpp.obj)
 .text._ZN3PID14JustCalculatedEv
                0x0000000000000000        0xa ../lib/libBT-libs.a(PID_Beta6.cpp.obj)
 .text._ZN3PID7GetModeEv
                0x0000000000000000        0x8 ../lib/libBT-libs.a(PID_Beta6.cpp.obj)
 .text._ZN3PID8GetINMinEv
                0x0000000000000000        0xc ../lib/libBT-libs.a(PID_Beta6.cpp.obj)
 .text._ZN3PID8GetINMaxEv
                0x0000000000000000       0x1c ../lib/libBT-libs.a(PID_Beta6.cpp.obj)
 .text._ZN3PID9GetOUTMinEv
                0x0000000000000000       0x10 ../lib/libBT-libs.a(PID_Beta6.cpp.obj)
 .text._ZN3PID9GetOUTMaxEv
                0x0000000000000000       0x22 ../lib/libBT-libs.a(PID_Beta6.cpp.obj)
 .group         0x0000000000000000        0x8 ../lib/libBT-libs.a(DS2482.cpp.obj)
 .text          0x0000000000000000        0x0 ../lib/libBT-libs.a(DS2482.cpp.obj)
 .bss           0x0000000000000000        0x0 ../lib/libBT-libs.a(DS2482.cpp.obj)
 .text._ZN7TwoWire5writeEi
                0x0000000000000000       0x10 ../lib/libBT-libs.a(DS2482.cpp.obj)
 .text._ZN6DS248211resetMasterEv
                0x0000000000000000       0x24 ../lib/libBT-libs.a(DS2482.cpp.obj)
 .text._ZN6DS24824crc8EPhh
                0x0000000000000000       0x34 ../lib/libBT-libs.a(DS2482.cpp.obj)
 .text._ZN6DS24829write_bitEh
                0x0000000000000000       0x4c ../lib/libBT-libs.a(DS2482.cpp.obj)
 .text._ZN6DS24828read_bitEv
                0x0000000000000000       0x20 ../lib/libBT-libs.a(DS2482.cpp.obj)
 .text._ZN6DS248213selectChannelEh
                0x0000000000000000       0x7a ../lib/libBT-libs.a(DS2482.cpp.obj)
 .rodata.CSWTCH.32
                0x0000000000000000        0x7 ../lib/libBT-libs.a(DS2482.cpp.obj)
 .rodata.CSWTCH.31
                0x0000000000000000        0x7 ../lib/libBT-libs.a(DS2482.cpp.obj)
 .text          0x0000000000000000        0x0 ../lib/libBT-libs.a(realloc.c.obj)
 .bss           0x0000000000000000        0x0 ../lib/libBT-libs.a(realloc.c.obj)
 .text.avr-libc
                0x0000000000000000      0x190 ../lib/libBT-libs.a(realloc.c.obj)
 .text          0x0000000000000000        0x0 ../lib/libBT-libs.a(WInterrupts.c.obj)
 .bss           0x0000000000000000        0x0 ../lib/libBT-libs.a(WInterrupts.c.obj)
 .text.attachInterrupt
                0x0000000000000000       0x5e ../lib/libBT-libs.a(WInterrupts.c.obj)
 .text.detachInterrupt
                0x0000000000000000       0x24 ../lib/libBT-libs.a(WInterrupts.c.obj)
 .text          0x0000000000000000        0x0 ../lib/libBT-libs.a(WMath.cpp.obj)
 .bss           0x0000000000000000        0x0 ../lib/libBT-libs.a(WMath.cpp.obj)
 .text._Z10randomSeedj
                0x0000000000000000       0x10 ../lib/libBT-libs.a(WMath.cpp.obj)
 .text._Z6randoml
                0x0000000000000000       0x42 ../lib/libBT-libs.a(WMath.cpp.obj)
 .text._Z6randomll
                0x0000000000000000       0x38 ../lib/libBT-libs.a(WMath.cpp.obj)
 .text._Z3maplllll
                0x0000000000000000       0x8e ../lib/libBT-libs.a(WMath.cpp.obj)
 .text._Z8makeWordj
                0x0000000000000000        0x2 ../lib/libBT-libs.a(WMath.cpp.obj)
 .text          0x0000000000000000        0x0 /usr/lib/gcc/avr/4.8.2/avr51/libgcc.a(_umulhisi3.o)
 .bss           0x0000000000000000        0x0 /usr/lib/gcc/avr/4.8.2/avr51/libgcc.a(_umulhisi3.o)
 .text.libgcc.div
                0x0000000000000000        0x0 /usr/lib/gcc/avr/4.8.2/avr51/libgcc.a(_umulhisi3.o)
 .text.libgcc   0x0000000000000000        0x0 /usr/lib/gcc/avr/4.8.2/avr51/libgcc.a(_umulhisi3.o)
 .text.libgcc.prologue
                0x0000000000000000        0x0 /usr/lib/gcc/avr/4.8.2/avr51/libgcc.a(_umulhisi3.o)
 .text.libgcc.builtins
                0x0000000000000000        0x0 /usr/lib/gcc/avr/4.8.2/avr51/libgcc.a(_umulhisi3.o)
 .text.libgcc.fmul
                0x0000000000000000        0x0 /usr/lib/gcc/avr/4.8.2/avr51/libgcc.a(_umulhisi3.o)
 .text.libgcc.fixed
                0x0000000000000000        0x0 /usr/lib/gcc/avr/4.8.2/avr51/libgcc.a(_umulhisi3.o)
 .text          0x0000000000000000        0x0 /usr/lib/gcc/avr/4.8.2/avr51/libgcc.a(_usmulhisi3.o)
 .bss           0x0000000000000000        0x0 /usr/lib/gcc/avr/4.8.2/avr51/libgcc.a(_usmulhisi3.o)
 .text.libgcc.div
                0x0000000000000000        0x0 /usr/lib/gcc/avr/4.8.2/avr51/libgcc.a(_usmulhisi3.o)
 .text.libgcc   0x0000000000000000        0x0 /usr/lib/gcc/avr/4.8.2/avr51/libgcc.a(_usmulhisi3.o)
 .text.libgcc.prologue
                0x0000000000000000        0x0 /usr/lib/gcc/avr/4.8.2/avr51/libgcc.a(_usmulhisi3.o)
 .text.libgcc.builtins
                0x0000000000000000        0x0 /usr/lib/gcc/avr/4.8.2/avr51/libgcc.a(_usmulhisi3.o)
 .text.libgcc.fmul
                0x0000000000000000        0x0 /usr/lib/gcc/avr/4.8.2/avr51/libgcc.a(_usmulhisi3.o)
 .text.libgcc.fixed
                0x0000000000000000        0x0 /usr/lib/gcc/avr/4.8.2/avr51/libgcc.a(_usmulhisi3.o)
 .text          0x0000000000000000        0x0 /usr/lib/gcc/avr/4.8.2/avr51/libgcc.a(_muluhisi3.o)
 .bss           0x0000000000000000        0x0 /usr/lib/gcc/avr/4.8.2/avr51/libgcc.a(_muluhisi3.o)
 .text.libgcc.div
                0x0000000000000000        0x0 /usr/lib/gcc/avr/4.8.2/avr51/libgcc.a(_muluhisi3.o)
 .text.libgcc   0x0000000000000000        0x0 /usr/lib/gcc/avr/4.8.2/avr51/libgcc.a(_muluhisi3.o)
 .text.libgcc.prologue
                0x0000000000000000        0x0 /usr/lib/gcc/avr/4.8.2/avr51/libgcc.a(_muluhisi3.o)
 .text.libgcc.builtins
                0x0000000000000000        0x0 /usr/lib/gcc/avr/4.8.2/avr51/libgcc.a(_muluhisi3.o)
 .text.libgcc.fmul
                0x0000000000000000        0x0 /usr/lib/gcc/avr/4.8.2/avr51/libgcc.a(_muluhisi3.o)
 .text.libgcc.fixed
                0x0000000000000000        0x0 /usr/lib/gcc/avr/4.8.2/avr51/libgcc.a(_muluhisi3.o)
 .text          0x0000000000000000        0x0 /usr/lib/gcc/avr/4.8.2/avr51/libgcc.a(_mulshisi3.o)
 .bss           0x0000000000000000        0x0 /usr/lib/gcc/avr/4.8.2/avr51/libgcc.a(_mulshisi3.o)
 .text.libgcc.mul
                0x0000000000000000       0x10 /usr/lib/gcc/avr/4.8.2/avr51/libgcc.a(_mulshisi3.o)
 .text.libgcc.div
                0x0000000000000000        0x0 /usr/lib/gcc/avr/4.8.2/avr51/libgcc.a(_mulshisi3.o)
 .text.libgcc   0x0000000000000000        0x0 /usr/lib/gcc/avr/4.8.2/avr51/libgcc.a(_mulshisi3.o)
 .text.libgcc.prologue
                0x0000000000000000        0x0 /usr/lib/gcc/avr/4.8.2/avr51/libgcc.a(_mulshisi3.o)
 .text.libgcc.builtins
                0x0000000000000000        0x0 /usr/lib/gcc/avr/4.8.2/avr51/libgcc.a(_mulshisi3.o)
 .text.libgcc.fmul
                0x0000000000000000        0x0 /usr/lib/gcc/avr/4.8.2/avr51/libgcc.a(_mulshisi3.o)
 .text.libgcc.fixed
                0x0000000000000000        0x0 /usr/lib/gcc/avr/4.8.2/avr51/libgcc.a(_mulshisi3.o)
 .text          0x0000000000000000        0x0 /usr/lib/gcc/avr/4.8.2/avr51/libgcc.a(_mulsi3.o)
 .bss           0x0000000000000000        0x0 /usr/lib/gcc/avr/4.8.2/avr51/libgcc.a(_mulsi3.o)
 .text.libgcc.div
                0x0000000000000000        0x0 /usr/lib/gcc/avr/4.8.2/avr51/libgcc.a(_mulsi3.o)
 .text.libgcc   0x0000000000000000        0x0 /usr/lib/gcc/avr/4.8.2/avr51/libgcc.a(_mulsi3.o)
 .text.libgcc.prologue
                0x0000000000000000        0x0 /usr/lib/gcc/avr/4.8.2/avr51/libgcc.a(_mulsi3.o)
 .text.libgcc.builtins
                0x0000000000000000        0x0 /usr/lib/gcc/avr/4.8.2/avr51/libgcc.a(_mulsi3.o)
 .text.libgcc.fmul
                0x0000000000000000        0x0 /usr/lib/gcc/avr/4.8.2/avr51/libgcc.a(_mulsi3.o)
 .text.libgcc.fixed
                0x0000000000000000        0x0 /usr/lib/gcc/avr/4.8.2/avr51/libgcc.a(_mulsi3.o)
 .text          0x0000000000000000        0x0 /usr/lib/gcc/avr/4.8.2/avr51/libgcc.a(_udivmodhi4.o)
 .bss           0x0000000000000000        0x0 /usr/lib/gcc/avr/4.8.2/avr51/libgcc.a(_udivmodhi4.o)
 .text.libgcc.mul
                0x0000000000000000        0x0 /usr/lib/gcc/avr/4.8.2/avr51/libgcc.a(_udivmodhi4.o)
 .text.libgcc   0x0000000000000000        0x0 /usr/lib/gcc/avr/4.8.2/avr51/libgcc.a(_udivmodhi4.o)
 .text.libgcc.prologue
                0x0000000000000000        0x0 /usr/lib/gcc/avr/4.8.2/avr51/libgcc.a(_udivmodhi4.o)
 .text.libgcc.builtins
                0x0000000000000000        0x0 /usr/lib/gcc/avr/4.8.2/avr51/libgcc.a(_udivmodhi4.o)
 .text.libgcc.fmul
                0x0000000000000000        0x0 /usr/lib/gcc/avr/4.8.2/avr51/libgcc.a(_udivmodhi4.o)
 .text.libgcc.fixed
                0x0000000000000000        0x0 /usr/lib/gcc/avr/4.8.2/avr51/libgcc.a(_udivmodhi4.o)
 .text          0x0000000000000000        0x0 /usr/lib/gcc/avr/4.8.2/avr51/libgcc.a(_divmodhi4.o)
 .bss           0x0000000000000000        0x0 /usr/lib/gcc/avr/4.8.2/avr51/libgcc.a(_divmodhi4.o)
 .text.libgcc.mul
                0x0000000000000000        0x0 /usr/lib/gcc/avr/4.8.2/avr51/libgcc.a(_divmodhi4.o)
 .text.libgcc   0x0000000000000000        0x0 /usr/lib/gcc/avr/4.8.2/avr51/libgcc.a(_divmodhi4.o)
 .text.libgcc.prologue
                0x0000000000000000        0x0 /usr/lib/gcc/avr/4.8.2/avr51/libgcc.a(_divmodhi4.o)
 .text.libgcc.builtins
                0x0000000000000000        0x0 /usr/lib/gcc/avr/4.8.2/avr51/libgcc.a(_divmodhi4.o)
 .text.libgcc.fmul
                0x0000000000000000        0x0 /usr/lib/gcc/avr/4.8.2/avr51/libgcc.a(_divmodhi4.o)
 .text.libgcc.fixed
                0x0000000000000000        0x0 /usr/lib/gcc/avr/4.8.2/avr51/libgcc.a(_divmodhi4.o)
 .text          0x0000000000000000        0x0 /usr/lib/gcc/avr/4.8.2/avr51/libgcc.a(_udivmodsi4.o)
 .bss           0x0000000000000000        0x0 /usr/lib/gcc/avr/4.8.2/avr51/libgcc.a(_udivmodsi4.o)
 .text.libgcc.mul
                0x0000000000000000        0x0 /usr/lib/gcc/avr/4.8.2/avr51/libgcc.a(_udivmodsi4.o)
 .text.libgcc   0x0000000000000000        0x0 /usr/lib/gcc/avr/4.8.2/avr51/libgcc.a(_udivmodsi4.o)
 .text.libgcc.prologue
                0x0000000000000000        0x0 /usr/lib/gcc/avr/4.8.2/avr51/libgcc.a(_udivmodsi4.o)
 .text.libgcc.builtins
                0x0000000000000000        0x0 /usr/lib/gcc/avr/4.8.2/avr51/libgcc.a(_udivmodsi4.o)
 .text.libgcc.fmul
                0x0000000000000000        0x0 /usr/lib/gcc/avr/4.8.2/avr51/libgcc.a(_udivmodsi4.o)
 .text.libgcc.fixed
                0x0000000000000000        0x0 /usr/lib/gcc/avr/4.8.2/avr51/libgcc.a(_udivmodsi4.o)
 .text          0x0000000000000000        0x0 /usr/lib/gcc/avr/4.8.2/avr51/libgcc.a(_divmodsi4.o)
 .bss           0x0000000000000000        0x0 /usr/lib/gcc/avr/4.8.2/avr51/libgcc.a(_divmodsi4.o)
 .text.libgcc.mul
                0x0000000000000000        0x0 /usr/lib/gcc/avr/4.8.2/avr51/libgcc.a(_divmodsi4.o)
 .text.libgcc   0x0000000000000000        0x0 /usr/lib/gcc/avr/4.8.2/avr51/libgcc.a(_divmodsi4.o)
 .text.libgcc.prologue
                0x0000000000000000        0x0 /usr/lib/gcc/avr/4.8.2/avr51/libgcc.a(_divmodsi4.o)
 .text.libgcc.builtins
                0x0000000000000000        0x0 /usr/lib/gcc/avr/4.8.2/avr51/libgcc.a(_divmodsi4.o)
 .text.libgcc.fmul
                0x0000000000000000        0x0 /usr/lib/gcc/avr/4.8.2/avr51/libgcc.a(_divmodsi4.o)
 .text.libgcc.fixed
                0x0000000000000000        0x0 /usr/lib/gcc/avr/4.8.2/avr51/libgcc.a(_divmodsi4.o)
 .text          0x0000000000000000        0x0 /usr/lib/gcc/avr/4.8.2/avr51/libgcc.a(_negsi2.o)
 .bss           0x0000000000000000        0x0 /usr/lib/gcc/avr/4.8.2/avr51/libgcc.a(_negsi2.o)
 .text.libgcc.mul
                0x0000000000000000        0x0 /usr/lib/gcc/avr/4.8.2/avr51/libgcc.a(_negsi2.o)
 .text.libgcc   0x0000000000000000        0x0 /usr/lib/gcc/avr/4.8.2/avr51/libgcc.a(_negsi2.o)
 .text.libgcc.prologue
                0x0000000000000000        0x0 /usr/lib/gcc/avr/4.8.2/avr51/libgcc.a(_negsi2.o)
 .text.libgcc.builtins
                0x0000000000000000        0x0 /usr/lib/gcc/avr/4.8.2/avr51/libgcc.a(_negsi2.o)
 .text.libgcc.fmul
                0x0000000000000000        0x0 /usr/lib/gcc/avr/4.8.2/avr51/libgcc.a(_negsi2.o)
 .text.libgcc.fixed
                0x0000000000000000        0x0 /usr/lib/gcc/avr/4.8.2/avr51/libgcc.a(_negsi2.o)
 .text          0x0000000000000000        0x0 /usr/lib/gcc/avr/4.8.2/avr51/libgcc.a(_prologue.o)
 .bss           0x0000000000000000        0x0 /usr/lib/gcc/avr/4.8.2/avr51/libgcc.a(_prologue.o)
 .text.libgcc.mul
                0x0000000000000000        0x0 /usr/lib/gcc/avr/4.8.2/avr51/libgcc.a(_prologue.o)
 .text.libgcc.div
                0x0000000000000000        0x0 /usr/lib/gcc/avr/4.8.2/avr51/libgcc.a(_prologue.o)
 .text.libgcc   0x0000000000000000        0x0 /usr/lib/gcc/avr/4.8.2/avr51/libgcc.a(_prologue.o)
 .text.libgcc.builtins
                0x0000000000000000        0x0 /usr/lib/gcc/avr/4.8.2/avr51/libgcc.a(_prologue.o)
 .text.libgcc.fmul
                0x0000000000000000        0x0 /usr/lib/gcc/avr/4.8.2/avr51/libgcc.a(_prologue.o)
 .text.libgcc.fixed
                0x0000000000000000        0x0 /usr/lib/gcc/avr/4.8.2/avr51/libgcc.a(_prologue.o)
 .text          0x0000000000000000        0x0 /usr/lib/gcc/avr/4.8.2/avr51/libgcc.a(_epilogue.o)
 .bss           0x0000000000000000        0x0 /usr/lib/gcc/avr/4.8.2/avr51/libgcc.a(_epilogue.o)
 .text.libgcc.mul
                0x0000000000000000        0x0 /usr/lib/gcc/avr/4.8.2/avr51/libgcc.a(_epilogue.o)
 .text.libgcc.div
                0x0000000000000000        0x0 /usr/lib/gcc/avr/4.8.2/avr51/libgcc.a(_epilogue.o)
 .text.libgcc   0x0000000000000000        0x0 /usr/lib/gcc/avr/4.8.2/avr51/libgcc.a(_epilogue.o)
 .text.libgcc.builtins
                0x0000000000000000        0x0 /usr/lib/gcc/avr/4.8.2/avr51/libgcc.a(_epilogue.o)
 .text.libgcc.fmul
                0x0000000000000000        0x0 /usr/lib/gcc/avr/4.8.2/avr51/libgcc.a(_epilogue.o)
 .text.libgcc.fixed
                0x0000000000000000        0x0 /usr/lib/gcc/avr/4.8.2/avr51/libgcc.a(_epilogue.o)
 .text          0x0000000000000000        0x0 /usr/lib/gcc/avr/4.8.2/avr51/libgcc.a(_exit.o)
 .bss           0x0000000000000000        0x0 /usr/lib/gcc/avr/4.8.2/avr51/libgcc.a(_exit.o)
 .text.libgcc.mul
                0x0000000000000000        0x0 /usr/lib/gcc/avr/4.8.2/avr51/libgcc.a(_exit.o)
 .text.libgcc.div
                0x0000000000000000        0x0 /usr/lib/gcc/avr/4.8.2/avr51/libgcc.a(_exit.o)
 .text.libgcc   0x0000000000000000        0x0 /usr/lib/gcc/avr/4.8.2/avr51/libgcc.a(_exit.o)
 .text.libgcc.prologue
                0x0000000000000000        0x0 /usr/lib/gcc/avr/4.8.2/avr51/libgcc.a(_exit.o)
 .text.libgcc.builtins
                0x0000000000000000        0x0 /usr/lib/gcc/avr/4.8.2/avr51/libgcc.a(_exit.o)
 .text.libgcc.fmul
                0x0000000000000000        0x0 /usr/lib/gcc/avr/4.8.2/avr51/libgcc.a(_exit.o)
 .text.libgcc.fixed
                0x0000000000000000        0x0 /usr/lib/gcc/avr/4.8.2/avr51/libgcc.a(_exit.o)
 .text          0x0000000000000000        0x0 /usr/lib/gcc/avr/4.8.2/avr51/libgcc.a(_tablejump.o)
 .bss           0x0000000000000000        0x0 /usr/lib/gcc/avr/4.8.2/avr51/libgcc.a(_tablejump.o)
 .text.libgcc.mul
                0x0000000000000000        0x0 /usr/lib/gcc/avr/4.8.2/avr51/libgcc.a(_tablejump.o)
 .text.libgcc.div
                0x0000000000000000        0x0 /usr/lib/gcc/avr/4.8.2/avr51/libgcc.a(_tablejump.o)
 .text.libgcc.prologue
                0x0000000000000000        0x0 /usr/lib/gcc/avr/4.8.2/avr51/libgcc.a(_tablejump.o)
 .text.libgcc.builtins
                0x0000000000000000        0x0 /usr/lib/gcc/avr/4.8.2/avr51/libgcc.a(_tablejump.o)
 .text.libgcc.fmul
                0x0000000000000000        0x0 /usr/lib/gcc/avr/4.8.2/avr51/libgcc.a(_tablejump.o)
 .text.libgcc.fixed
                0x0000000000000000        0x0 /usr/lib/gcc/avr/4.8.2/avr51/libgcc.a(_tablejump.o)
 .text          0x0000000000000000        0x0 /usr/lib/gcc/avr/4.8.2/avr51/libgcc.a(_copy_data.o)
 .bss           0x0000000000000000        0x0 /usr/lib/gcc/avr/4.8.2/avr51/libgcc.a(_copy_data.o)
 .text.libgcc.mul
                0x0000000000000000        0x0 /usr/lib/gcc/avr/4.8.2/avr51/libgcc.a(_copy_data.o)
 .text.libgcc.div
                0x0000000000000000        0x0 /usr/lib/gcc/avr/4.8.2/avr51/libgcc.a(_copy_data.o)
 .text.libgcc   0x0000000000000000        0x0 /usr/lib/gcc/avr/4.8.2/avr51/libgcc.a(_copy_data.o)
 .text.libgcc.prologue
                0x0000000000000000        0x0 /usr/lib/gcc/avr/4.8.2/avr51/libgcc.a(_copy_data.o)
 .text.libgcc.builtins
                0x0000000000000000        0x0 /usr/lib/gcc/avr/4.8.2/avr51/libgcc.a(_copy_data.o)
 .text.libgcc.fmul
                0x0000000000000000        0x0 /usr/lib/gcc/avr/4.8.2/avr51/libgcc.a(_copy_data.o)
 .text.libgcc.fixed
                0x0000000000000000        0x0 /usr/lib/gcc/avr/4.8.2/avr51/libgcc.a(_copy_data.o)
 .text          0x0000000000000000        0x0 /usr/lib/gcc/avr/4.8.2/avr51/libgcc.a(_clear_bss.o)
 .bss           0x0000000000000000        0x0 /usr/lib/gcc/avr/4.8.2/avr51/libgcc.a(_clear_bss.o)
 .text.libgcc.mul
                0x0000000000000000        0x0 /usr/lib/gcc/avr/4.8.2/avr51/libgcc.a(_clear_bss.o)
 .text.libgcc.div
                0x0000000000000000        0x0 /usr/lib/gcc/avr/4.8.2/avr51/libgcc.a(_clear_bss.o)
 .text.libgcc   0x0000000000000000        0x0 /usr/lib/gcc/avr/4.8.2/avr51/libgcc.a(_clear_bss.o)
 .text.libgcc.prologue
                0x0000000000000000        0x0 /usr/lib/gcc/avr/4.8.2/avr51/libgcc.a(_clear_bss.o)
 .text.libgcc.builtins
                0x0000000000000000        0x0 /usr/lib/gcc/avr/4.8.2/avr51/libgcc.a(_clear_bss.o)
 .text.libgcc.fmul
                0x0000000000000000        0x0 /usr/lib/gcc/avr/4.8.2/avr51/libgcc.a(_clear_bss.o)
 .text.libgcc.fixed
                0x0000000000000000        0x0 /usr/lib/gcc/avr/4.8.2/avr51/libgcc.a(_clear_bss.o)
 .text          0x0000000000000000        0x0 /usr/lib/gcc/avr/4.8.2/avr51/libgcc.a(_ctors.o)
 .bss           0x0000000000000000        0x0 /usr/lib/gcc/avr/4.8.2/avr51/libgcc.a(_ctors.o)
 .text.libgcc.mul
                0x0000000000000000        0x0 /usr/lib/gcc/avr/4.8.2/avr51/libgcc.a(_ctors.o)
 .text.libgcc.div
                0x0000000000000000        0x0 /usr/lib/gcc/avr/4.8.2/avr51/libgcc.a(_ctors.o)
 .text.libgcc   0x0000000000000000        0x0 /usr/lib/gcc/avr/4.8.2/avr51/libgcc.a(_ctors.o)
 .text.libgcc.prologue
                0x0000000000000000        0x0 /usr/lib/gcc/avr/4.8.2/avr51/libgcc.a(_ctors.o)
 .text.libgcc.builtins
                0x0000000000000000        0x0 /usr/lib/gcc/avr/4.8.2/avr51/libgcc.a(_ctors.o)
 .text.libgcc.fmul
                0x0000000000000000        0x0 /usr/lib/gcc/avr/4.8.2/avr51/libgcc.a(_ctors.o)
 .text.libgcc.fixed
                0x0000000000000000        0x0 /usr/lib/gcc/avr/4.8.2/avr51/libgcc.a(_ctors.o)
 .text          0x0000000000000000        0x0 /usr/lib/gcc/avr/4.8.2/avr51/libgcc.a(_dtors.o)
 .bss           0x0000000000000000        0x0 /usr/lib/gcc/avr/4.8.2/avr51/libgcc.a(_dtors.o)
 .text.libgcc.mul
                0x0000000000000000        0x0 /usr/lib/gcc/avr/4.8.2/avr51/libgcc.a(_dtors.o)
 .text.libgcc.div
                0x0000000000000000        0x0 /usr/lib/gcc/avr/4.8.2/avr51/libgcc.a(_dtors.o)
 .text.libgcc   0x0000000000000000        0x0 /usr/lib/gcc/avr/4.8.2/avr51/libgcc.a(_dtors.o)
 .text.libgcc.prologue
                0x0000000000000000        0x0 /usr/lib/gcc/avr/4.8.2/avr51/libgcc.a(_dtors.o)
 .text.libgcc.builtins
                0x0000000000000000        0x0 /usr/lib/gcc/avr/4.8.2/avr51/libgcc.a(_dtors.o)
 .text.libgcc.fmul
                0x0000000000000000        0x0 /usr/lib/gcc/avr/4.8.2/avr51/libgcc.a(_dtors.o)
 .text.libgcc.fixed
                0x0000000000000000        0x0 /usr/lib/gcc/avr/4.8.2/avr51/libgcc.a(_dtors.o)
 .text          0x0000000000000000        0x0 /usr/lib/gcc/avr/4.8.2/avr51/libgcc.a(_tablejump_elpm.o)
 .bss           0x0000000000000000        0x0 /usr/lib/gcc/avr/4.8.2/avr51/libgcc.a(_tablejump_elpm.o)
 .text.libgcc.mul
                0x0000000000000000        0x0 /usr/lib/gcc/avr/4.8.2/avr51/libgcc.a(_tablejump_elpm.o)
 .text.libgcc.div
                0x0000000000000000        0x0 /usr/lib/gcc/avr/4.8.2/avr51/libgcc.a(_tablejump_elpm.o)
 .text.libgcc.prologue
                0x0000000000000000        0x0 /usr/lib/gcc/avr/4.8.2/avr51/libgcc.a(_tablejump_elpm.o)
 .text.libgcc.builtins
                0x0000000000000000        0x0 /usr/lib/gcc/avr/4.8.2/avr51/libgcc.a(_tablejump_elpm.o)
 .text.libgcc.fmul
                0x0000000000000000        0x0 /usr/lib/gcc/avr/4.8.2/avr51/libgcc.a(_tablejump_elpm.o)
 .text.libgcc.fixed
                0x0000000000000000        0x0 /usr/lib/gcc/avr/4.8.2/avr51/libgcc.a(_tablejump_elpm.o)
 .text          0x0000000000000000        0x0 /usr/lib/gcc/avr/4.8.2/../../../avr/lib/avr51/libm.a(addsf3.o)
 .bss           0x0000000000000000        0x0 /usr/lib/gcc/avr/4.8.2/../../../avr/lib/avr51/libm.a(addsf3.o)
 .text          0x0000000000000000        0x0 /usr/lib/gcc/avr/4.8.2/../../../avr/lib/avr51/libm.a(addsf3x.o)
 .bss           0x0000000000000000        0x0 /usr/lib/gcc/avr/4.8.2/../../../avr/lib/avr51/libm.a(addsf3x.o)
 .text          0x0000000000000000        0x0 /usr/lib/gcc/avr/4.8.2/../../../avr/lib/avr51/libm.a(cmpsf2.o)
 .bss           0x0000000000000000        0x0 /usr/lib/gcc/avr/4.8.2/../../../avr/lib/avr51/libm.a(cmpsf2.o)
 .text          0x0000000000000000        0x0 /usr/lib/gcc/avr/4.8.2/../../../avr/lib/avr51/libm.a(divsf3.o)
 .bss           0x0000000000000000        0x0 /usr/lib/gcc/avr/4.8.2/../../../avr/lib/avr51/libm.a(divsf3.o)
 .text          0x0000000000000000        0x0 /usr/lib/gcc/avr/4.8.2/../../../avr/lib/avr51/libm.a(divsf3x.o)
 .bss           0x0000000000000000        0x0 /usr/lib/gcc/avr/4.8.2/../../../avr/lib/avr51/libm.a(divsf3x.o)
 .text          0x0000000000000000        0x0 /usr/lib/gcc/avr/4.8.2/../../../avr/lib/avr51/libm.a(fixsfsi.o)
 .bss           0x0000000000000000        0x0 /usr/lib/gcc/avr/4.8.2/../../../avr/lib/avr51/libm.a(fixsfsi.o)
 .text          0x0000000000000000        0x0 /usr/lib/gcc/avr/4.8.2/../../../avr/lib/avr51/libm.a(fixunssfsi.o)
 .bss           0x0000000000000000        0x0 /usr/lib/gcc/avr/4.8.2/../../../avr/lib/avr51/libm.a(fixunssfsi.o)
 .text          0x0000000000000000        0x0 /usr/lib/gcc/avr/4.8.2/../../../avr/lib/avr51/libm.a(floatsisf.o)
 .bss           0x0000000000000000        0x0 /usr/lib/gcc/avr/4.8.2/../../../avr/lib/avr51/libm.a(floatsisf.o)
 .text          0x0000000000000000        0x0 /usr/lib/gcc/avr/4.8.2/../../../avr/lib/avr51/libm.a(fp_cmp.o)
 .bss           0x0000000000000000        0x0 /usr/lib/gcc/avr/4.8.2/../../../avr/lib/avr51/libm.a(fp_cmp.o)
 .text          0x0000000000000000        0x0 /usr/lib/gcc/avr/4.8.2/../../../avr/lib/avr51/libm.a(fp_inf.o)
 .bss           0x0000000000000000        0x0 /usr/lib/gcc/avr/4.8.2/../../../avr/lib/avr51/libm.a(fp_inf.o)
 .text          0x0000000000000000        0x0 /usr/lib/gcc/avr/4.8.2/../../../avr/lib/avr51/libm.a(fp_nan.o)
 .bss           0x0000000000000000        0x0 /usr/lib/gcc/avr/4.8.2/../../../avr/lib/avr51/libm.a(fp_nan.o)
 .text          0x0000000000000000        0x0 /usr/lib/gcc/avr/4.8.2/../../../avr/lib/avr51/libm.a(fp_pscA.o)
 .bss           0x0000000000000000        0x0 /usr/lib/gcc/avr/4.8.2/../../../avr/lib/avr51/libm.a(fp_pscA.o)
 .text          0x0000000000000000        0x0 /usr/lib/gcc/avr/4.8.2/../../../avr/lib/avr51/libm.a(fp_pscB.o)
 .bss           0x0000000000000000        0x0 /usr/lib/gcc/avr/4.8.2/../../../avr/lib/avr51/libm.a(fp_pscB.o)
 .text          0x0000000000000000        0x0 /usr/lib/gcc/avr/4.8.2/../../../avr/lib/avr51/libm.a(fp_round.o)
 .bss           0x0000000000000000        0x0 /usr/lib/gcc/avr/4.8.2/../../../avr/lib/avr51/libm.a(fp_round.o)
 .text          0x0000000000000000        0x0 /usr/lib/gcc/avr/4.8.2/../../../avr/lib/avr51/libm.a(fp_split3.o)
 .bss           0x0000000000000000        0x0 /usr/lib/gcc/avr/4.8.2/../../../avr/lib/avr51/libm.a(fp_split3.o)
 .text          0x0000000000000000        0x0 /usr/lib/gcc/avr/4.8.2/../../../avr/lib/avr51/libm.a(fp_zero.o)
 .bss           0x0000000000000000        0x0 /usr/lib/gcc/avr/4.8.2/../../../avr/lib/avr51/libm.a(fp_zero.o)
 .text          0x0000000000000000        0x0 /usr/lib/gcc/avr/4.8.2/../../../avr/lib/avr51/libm.a(gesf2.o)
 .bss           0x0000000000000000        0x0 /usr/lib/gcc/avr/4.8.2/../../../avr/lib/avr51/libm.a(gesf2.o)
 .text          0x0000000000000000        0x0 /usr/lib/gcc/avr/4.8.2/../../../avr/lib/avr51/libm.a(mulsf3.o)
 .bss           0x0000000000000000        0x0 /usr/lib/gcc/avr/4.8.2/../../../avr/lib/avr51/libm.a(mulsf3.o)
 .text          0x0000000000000000        0x0 /usr/lib/gcc/avr/4.8.2/../../../avr/lib/avr51/libm.a(mulsf3x.o)
 .bss           0x0000000000000000        0x0 /usr/lib/gcc/avr/4.8.2/../../../avr/lib/avr51/libm.a(mulsf3x.o)
 .text          0x0000000000000000        0x0 /usr/lib/gcc/avr/4.8.2/../../../avr/lib/avr51/libm.a(pow.o)
 .bss           0x0000000000000000        0x0 /usr/lib/gcc/avr/4.8.2/../../../avr/lib/avr51/libm.a(pow.o)
 .text          0x0000000000000000        0x0 /usr/lib/gcc/avr/4.8.2/../../../avr/lib/avr51/libm.a(unordsf2.o)
 .bss           0x0000000000000000        0x0 /usr/lib/gcc/avr/4.8.2/../../../avr/lib/avr51/libm.a(unordsf2.o)
 .text.avr-libc.fplib
                0x0000000000000000        0x8 /usr/lib/gcc/avr/4.8.2/../../../avr/lib/avr51/libm.a(unordsf2.o)
 .text          0x0000000000000000        0x0 /usr/lib/gcc/avr/4.8.2/../../../avr/lib/avr51/libm.a(exp.o)
 .bss           0x0000000000000000        0x0 /usr/lib/gcc/avr/4.8.2/../../../avr/lib/avr51/libm.a(exp.o)
 .text          0x0000000000000000        0x0 /usr/lib/gcc/avr/4.8.2/../../../avr/lib/avr51/libm.a(fp_powser.o)
 .bss           0x0000000000000000        0x0 /usr/lib/gcc/avr/4.8.2/../../../avr/lib/avr51/libm.a(fp_powser.o)
 .text          0x0000000000000000        0x0 /usr/lib/gcc/avr/4.8.2/../../../avr/lib/avr51/libm.a(inverse.o)
 .bss           0x0000000000000000        0x0 /usr/lib/gcc/avr/4.8.2/../../../avr/lib/avr51/libm.a(inverse.o)
 .text          0x0000000000000000        0x0 /usr/lib/gcc/avr/4.8.2/../../../avr/lib/avr51/libm.a(ldexp.o)
 .bss           0x0000000000000000        0x0 /usr/lib/gcc/avr/4.8.2/../../../avr/lib/avr51/libm.a(ldexp.o)
 .text          0x0000000000000000        0x0 /usr/lib/gcc/avr/4.8.2/../../../avr/lib/avr51/libm.a(log.o)
 .bss           0x0000000000000000        0x0 /usr/lib/gcc/avr/4.8.2/../../../avr/lib/avr51/libm.a(log.o)
 .text          0x0000000000000000        0x0 /usr/lib/gcc/avr/4.8.2/../../../avr/lib/avr51/libm.a(modf.o)
 .bss           0x0000000000000000        0x0 /usr/lib/gcc/avr/4.8.2/../../../avr/lib/avr51/libm.a(modf.o)
 .text          0x0000000000000000        0x0 /usr/lib/gcc/avr/4.8.2/../../../avr/lib/avr51/libm.a(fp_mpack.o)
 .bss           0x0000000000000000        0x0 /usr/lib/gcc/avr/4.8.2/../../../avr/lib/avr51/libm.a(fp_mpack.o)
 .text          0x0000000000000000        0x0 /usr/lib/gcc/avr/4.8.2/../../../avr/lib/avr51/libc.a(random.o)
 .bss           0x0000000000000000        0x0 /usr/lib/gcc/avr/4.8.2/../../../avr/lib/avr51/libc.a(random.o)
 .text.avr-libc
                0x0000000000000000       0xb6 /usr/lib/gcc/avr/4.8.2/../../../avr/lib/avr51/libc.a(random.o)
 .text          0x0000000000000000        0x0 /usr/lib/gcc/avr/4.8.2/../../../avr/lib/avr51/libc.a(strtoul.o)
 .bss           0x0000000000000000        0x0 /usr/lib/gcc/avr/4.8.2/../../../avr/lib/avr51/libc.a(strtoul.o)
 .text          0x0000000000000000        0x0 /usr/lib/gcc/avr/4.8.2/../../../avr/lib/avr51/libc.a(atoi.o)
 .bss           0x0000000000000000        0x0 /usr/lib/gcc/avr/4.8.2/../../../avr/lib/avr51/libc.a(atoi.o)
 .text          0x0000000000000000        0x0 /usr/lib/gcc/avr/4.8.2/../../../avr/lib/avr51/libc.a(atol.o)
 .bss           0x0000000000000000        0x0 /usr/lib/gcc/avr/4.8.2/../../../avr/lib/avr51/libc.a(atol.o)
 .text.avr-libc
                0x0000000000000000       0x4e /usr/lib/gcc/avr/4.8.2/../../../avr/lib/avr51/libc.a(atol.o)
 .text          0x0000000000000000        0x0 /usr/lib/gcc/avr/4.8.2/../../../avr/lib/avr51/libc.a(isspace.o)
 .bss           0x0000000000000000        0x0 /usr/lib/gcc/avr/4.8.2/../../../avr/lib/avr51/libc.a(isspace.o)
 .text          0x0000000000000000        0x0 /usr/lib/gcc/avr/4.8.2/../../../avr/lib/avr51/libc.a(tolower.o)
 .bss           0x0000000000000000        0x0 /usr/lib/gcc/avr/4.8.2/../../../avr/lib/avr51/libc.a(tolower.o)
 .text.avr-libc
                0x0000000000000000       0x10 /usr/lib/gcc/avr/4.8.2/../../../avr/lib/avr51/libc.a(tolower.o)
 .text          0x0000000000000000        0x0 /usr/lib/gcc/avr/4.8.2/../../../avr/lib/avr51/libc.a(toupper.o)
 .bss           0x0000000000000000        0x0 /usr/lib/gcc/avr/4.8.2/../../../avr/lib/avr51/libc.a(toupper.o)
 .text.avr-libc
                0x0000000000000000       0x10 /usr/lib/gcc/avr/4.8.2/../../../avr/lib/avr51/libc.a(toupper.o)
 .text          0x0000000000000000        0x0 /usr/lib/gcc/avr/4.8.2/../../../avr/lib/avr51/libc.a(memcpy_P.o)
 .bss           0x0000000000000000        0x0 /usr/lib/gcc/avr/4.8.2/../../../avr/lib/avr51/libc.a(memcpy_P.o)
 .text          0x0000000000000000        0x0 /usr/lib/gcc/avr/4.8.2/../../../avr/lib/avr51/libc.a(strcat_P.o)
 .bss           0x0000000000000000        0x0 /usr/lib/gcc/avr/4.8.2/../../../avr/lib/avr51/libc.a(strcat_P.o)
 .text          0x0000000000000000        0x0 /usr/lib/gcc/avr/4.8.2/../../../avr/lib/avr51/libc.a(strcpy_P.o)
 .bss           0x0000000000000000        0x0 /usr/lib/gcc/avr/4.8.2/../../../avr/lib/avr51/libc.a(strcpy_P.o)
 .text          0x0000000000000000        0x0 /usr/lib/gcc/avr/4.8.2/../../../avr/lib/avr51/libc.a(strlen_P.o)
 .bss           0x0000000000000000        0x0 /usr/lib/gcc/avr/4.8.2/../../../avr/lib/avr51/libc.a(strlen_P.o)
 .text          0x0000000000000000        0x0 /usr/lib/gcc/avr/4.8.2/../../../avr/lib/avr51/libc.a(memcpy.o)
 .bss           0x0000000000000000        0x0 /usr/lib/gcc/avr/4.8.2/../../../avr/lib/avr51/libc.a(memcpy.o)
 .text          0x0000000000000000        0x0 /usr/lib/gcc/avr/4.8.2/../../../avr/lib/avr51/libc.a(memmove.o)
 .bss           0x0000000000000000        0x0 /usr/lib/gcc/avr/4.8.2/../../../avr/lib/avr51/libc.a(memmove.o)
 .text.avr-libc
                0x0000000000000000       0x24 /usr/lib/gcc/avr/4.8.2/../../../avr/lib/avr51/libc.a(memmove.o)
 .text          0x0000000000000000        0x0 /usr/lib/gcc/avr/4.8.2/../../../avr/lib/avr51/libc.a(memset.o)
 .bss           0x0000000000000000        0x0 /usr/lib/gcc/avr/4.8.2/../../../avr/lib/avr51/libc.a(memset.o)
 .text          0x0000000000000000        0x0 /usr/lib/gcc/avr/4.8.2/../../../avr/lib/avr51/libc.a(strcasecmp.o)
 .bss           0x0000000000000000        0x0 /usr/lib/gcc/avr/4.8.2/../../../avr/lib/avr51/libc.a(strcasecmp.o)
 .text          0x0000000000000000        0x0 /usr/lib/gcc/avr/4.8.2/../../../avr/lib/avr51/libc.a(strcat.o)
 .bss           0x0000000000000000        0x0 /usr/lib/gcc/avr/4.8.2/../../../avr/lib/avr51/libc.a(strcat.o)
 .text          0x0000000000000000        0x0 /usr/lib/gcc/avr/4.8.2/../../../avr/lib/avr51/libc.a(strchr.o)
 .bss           0x0000000000000000        0x0 /usr/lib/gcc/avr/4.8.2/../../../avr/lib/avr51/libc.a(strchr.o)
 .text.avr-libc
                0x0000000000000000       0x16 /usr/lib/gcc/avr/4.8.2/../../../avr/lib/avr51/libc.a(strchr.o)
 .text          0x0000000000000000        0x0 /usr/lib/gcc/avr/4.8.2/../../../avr/lib/avr51/libc.a(strcmp.o)
 .bss           0x0000000000000000        0x0 /usr/lib/gcc/avr/4.8.2/../../../avr/lib/avr51/libc.a(strcmp.o)
 .text.avr-libc
                0x0000000000000000       0x12 /usr/lib/gcc/avr/4.8.2/../../../avr/lib/avr51/libc.a(strcmp.o)
 .text          0x0000000000000000        0x0 /usr/lib/gcc/avr/4.8.2/../../../avr/lib/avr51/libc.a(strcpy.o)
 .bss           0x0000000000000000        0x0 /usr/lib/gcc/avr/4.8.2/../../../avr/lib/avr51/libc.a(strcpy.o)
 .text          0x0000000000000000        0x0 /usr/lib/gcc/avr/4.8.2/../../../avr/lib/avr51/libc.a(strncmp.o)
 .bss           0x0000000000000000        0x0 /usr/lib/gcc/avr/4.8.2/../../../avr/lib/avr51/libc.a(strncmp.o)
 .text.avr-libc
                0x0000000000000000       0x1c /usr/lib/gcc/avr/4.8.2/../../../avr/lib/avr51/libc.a(strncmp.o)
 .text          0x0000000000000000        0x0 /usr/lib/gcc/avr/4.8.2/../../../avr/lib/avr51/libc.a(strncpy.o)
 .bss           0x0000000000000000        0x0 /usr/lib/gcc/avr/4.8.2/../../../avr/lib/avr51/libc.a(strncpy.o)
 .text.avr-libc
                0x0000000000000000       0x1e /usr/lib/gcc/avr/4.8.2/../../../avr/lib/avr51/libc.a(strncpy.o)
 .text          0x0000000000000000        0x0 /usr/lib/gcc/avr/4.8.2/../../../avr/lib/avr51/libc.a(strrchr.o)
 .bss           0x0000000000000000        0x0 /usr/lib/gcc/avr/4.8.2/../../../avr/lib/avr51/libc.a(strrchr.o)
 .text.avr-libc
                0x0000000000000000       0x16 /usr/lib/gcc/avr/4.8.2/../../../avr/lib/avr51/libc.a(strrchr.o)
 .text          0x0000000000000000        0x0 /usr/lib/gcc/avr/4.8.2/../../../avr/lib/avr51/libc.a(strstr.o)
 .bss           0x0000000000000000        0x0 /usr/lib/gcc/avr/4.8.2/../../../avr/lib/avr51/libc.a(strstr.o)
 .text.avr-libc
                0x0000000000000000       0x34 /usr/lib/gcc/avr/4.8.2/../../../avr/lib/avr51/libc.a(strstr.o)
 .text          0x0000000000000000        0x0 /usr/lib/gcc/avr/4.8.2/../../../avr/lib/avr51/libc.a(itoa.o)
 .bss           0x0000000000000000        0x0 /usr/lib/gcc/avr/4.8.2/../../../avr/lib/avr51/libc.a(itoa.o)
 .text          0x0000000000000000        0x0 /usr/lib/gcc/avr/4.8.2/../../../avr/lib/avr51/libc.a(ltoa.o)
 .bss           0x0000000000000000        0x0 /usr/lib/gcc/avr/4.8.2/../../../avr/lib/avr51/libc.a(ltoa.o)
 .text.avr-libc
                0x0000000000000000       0x68 /usr/lib/gcc/avr/4.8.2/../../../avr/lib/avr51/libc.a(ltoa.o)
 .text          0x0000000000000000        0x0 /usr/lib/gcc/avr/4.8.2/../../../avr/lib/avr51/libc.a(mulsi10.o)
 .bss           0x0000000000000000        0x0 /usr/lib/gcc/avr/4.8.2/../../../avr/lib/avr51/libc.a(mulsi10.o)
 .text.avr-libc
                0x0000000000000000       0x2a /usr/lib/gcc/avr/4.8.2/../../../avr/lib/avr51/libc.a(mulsi10.o)
 .text          0x0000000000000000        0x0 /usr/lib/gcc/avr/4.8.2/../../../avr/lib/avr51/libc.a(mul10.o)
 .bss           0x0000000000000000        0x0 /usr/lib/gcc/avr/4.8.2/../../../avr/lib/avr51/libc.a(mul10.o)
 .text          0x0000000000000000        0x0 /usr/lib/gcc/avr/4.8.2/../../../avr/lib/avr51/libc.a(ultoa.o)
 .bss           0x0000000000000000        0x0 /usr/lib/gcc/avr/4.8.2/../../../avr/lib/avr51/libc.a(ultoa.o)
 .text          0x0000000000000000        0x0 /usr/lib/gcc/avr/4.8.2/../../../avr/lib/avr51/libc.a(utoa.o)
 .bss           0x0000000000000000        0x0 /usr/lib/gcc/avr/4.8.2/../../../avr/lib/avr51/libc.a(utoa.o)
 .text.avr-libc
                0x0000000000000000       0x2c /usr/lib/gcc/avr/4.8.2/../../../avr/lib/avr51/libc.a(utoa.o)
 .text          0x0000000000000000        0x0 /usr/lib/gcc/avr/4.8.2/../../../avr/lib/avr51/libc.a(sprintf.o)
 .bss           0x0000000000000000        0x0 /usr/lib/gcc/avr/4.8.2/../../../avr/lib/avr51/libc.a(sprintf.o)
 .text.avr-libc
                0x0000000000000000       0x5e /usr/lib/gcc/avr/4.8.2/../../../avr/lib/avr51/libc.a(sprintf.o)
 .text          0x0000000000000000        0x0 /usr/lib/gcc/avr/4.8.2/../../../avr/lib/avr51/libc.a(vfprintf_std.o)
 .bss           0x0000000000000000        0x0 /usr/lib/gcc/avr/4.8.2/../../../avr/lib/avr51/libc.a(vfprintf_std.o)
 .text.avr-libc
                0x0000000000000000      0x3f6 /usr/lib/gcc/avr/4.8.2/../../../avr/lib/avr51/libc.a(vfprintf_std.o)
 .text          0x0000000000000000        0x0 /usr/lib/gcc/avr/4.8.2/../../../avr/lib/avr51/libc.a(eerd_block_atmega1284p.o)
 .bss           0x0000000000000000        0x0 /usr/lib/gcc/avr/4.8.2/../../../avr/lib/avr51/libc.a(eerd_block_atmega1284p.o)
 .text          0x0000000000000000        0x0 /usr/lib/gcc/avr/4.8.2/../../../avr/lib/avr51/libc.a(eerd_byte_atmega1284p.o)
 .bss           0x0000000000000000        0x0 /usr/lib/gcc/avr/4.8.2/../../../avr/lib/avr51/libc.a(eerd_byte_atmega1284p.o)
 .text          0x0000000000000000        0x0 /usr/lib/gcc/avr/4.8.2/../../../avr/lib/avr51/libc.a(eewr_block_atmega1284p.o)
 .bss           0x0000000000000000        0x0 /usr/lib/gcc/avr/4.8.2/../../../avr/lib/avr51/libc.a(eewr_block_atmega1284p.o)
 .text          0x0000000000000000        0x0 /usr/lib/gcc/avr/4.8.2/../../../avr/lib/avr51/libc.a(eewr_byte_atmega1284p.o)
 .bss           0x0000000000000000        0x0 /usr/lib/gcc/avr/4.8.2/../../../avr/lib/avr51/libc.a(eewr_byte_atmega1284p.o)
 .text          0x0000000000000000        0x0 /usr/lib/gcc/avr/4.8.2/../../../avr/lib/avr51/libc.a(errno.o)
 .bss           0x0000000000000000        0x0 /usr/lib/gcc/avr/4.8.2/../../../avr/lib/avr51/libc.a(errno.o)
 .text          0x0000000000000000        0x0 /usr/lib/gcc/avr/4.8.2/../../../avr/lib/avr51/libc.a(cty_isfalse.o)
 .bss           0x0000000000000000        0x0 /usr/lib/gcc/avr/4.8.2/../../../avr/lib/avr51/libc.a(cty_isfalse.o)
 .text          0x0000000000000000        0x0 /usr/lib/gcc/avr/4.8.2/../../../avr/lib/avr51/libc.a(strnlen_P.o)
 .bss           0x0000000000000000        0x0 /usr/lib/gcc/avr/4.8.2/../../../avr/lib/avr51/libc.a(strnlen_P.o)
 .text.avr-libc
                0x0000000000000000       0x16 /usr/lib/gcc/avr/4.8.2/../../../avr/lib/avr51/libc.a(strnlen_P.o)
 .text          0x0000000000000000        0x0 /usr/lib/gcc/avr/4.8.2/../../../avr/lib/avr51/libc.a(strnlen.o)
 .bss           0x0000000000000000        0x0 /usr/lib/gcc/avr/4.8.2/../../../avr/lib/avr51/libc.a(strnlen.o)
 .text.avr-libc
                0x0000000000000000       0x16 /usr/lib/gcc/avr/4.8.2/../../../avr/lib/avr51/libc.a(strnlen.o)
 .text          0x0000000000000000        0x0 /usr/lib/gcc/avr/4.8.2/../../../avr/lib/avr51/libc.a(strrev.o)
 .bss           0x0000000000000000        0x0 /usr/lib/gcc/avr/4.8.2/../../../avr/lib/avr51/libc.a(strrev.o)
 .text          0x0000000000000000        0x0 /usr/lib/gcc/avr/4.8.2/../../../avr/lib/avr51/libc.a(fputc.o)
 .bss           0x0000000000000000        0x0 /usr/lib/gcc/avr/4.8.2/../../../avr/lib/avr51/libc.a(fputc.o)
 .text.avr-libc
                0x0000000000000000       0x64 /usr/lib/gcc/avr/4.8.2/../../../avr/lib/avr51/libc.a(fputc.o)
 .text          0x0000000000000000        0x0 /usr/lib/gcc/avr/4.8.2/../../../avr/lib/avr51/libc.a(ultoa_invert.o)
 .bss           0x0000000000000000        0x0 /usr/lib/gcc/avr/4.8.2/../../../avr/lib/avr51/libc.a(ultoa_invert.o)
 .text.avr-libc
                0x0000000000000000       0xbc /usr/lib/gcc/avr/4.8.2/../../../avr/lib/avr51/libc.a(ultoa_invert.o)

Memory Configuration

Name             Origin             Length             Attributes
text             0x0000000000000000 0x0000000000020000 xr
data             0x0000000000800100 0x000000000000ff00 rw !x
eeprom           0x0000000000810000 0x0000000000010000 rw !x
fuse             0x0000000000820000 0x0000000000000400 rw !x
lock             0x0000000000830000 0x0000000000000400 rw !x
signature        0x0000000000840000 0x0000000000000400 rw !x
user_signatures  0x0000000000850000 0x0000000000000400 rw !x
*default*        0x0000000000000000 0xffffffffffffffff

Linker script and memory map

Address of section .data set to 0x800100
LOAD /usr/lib/gcc/avr/4.8.2/../../../avr/lib/avr51/crtm1284p.o
LOAD /usr/lib/gcc/avr/4.8.2/../../../avr/lib/avr51/libm.a
LOAD CMakeFiles/BrewTroller-OT_DX1_RIMSDF.elf.dir/BrewCore.cpp.obj
LOAD CMakeFiles/BrewTroller-OT_DX1_RIMSDF.elf.dir/BrewTroller.cpp.obj
LOAD CMakeFiles/BrewTroller-OT_DX1_RIMSDF.elf.dir/Com.cpp.obj
LOAD CMakeFiles/BrewTroller-OT_DX1_RIMSDF.elf.dir/Com_BTPD.cpp.obj
LOAD CMakeFiles/BrewTroller-OT_DX1_RIMSDF.elf.dir/Com_RGBIO8.cpp.obj
LOAD CMakeFiles/BrewTroller-OT_DX1_RIMSDF.elf.dir/Com_S0ASC.cpp.obj
LOAD CMakeFiles/BrewTroller-OT_DX1_RIMSDF.elf.dir/EEPROM.cpp.obj
LOAD CMakeFiles/BrewTroller-OT_DX1_RIMSDF.elf.dir/FlowController.cpp.obj
LOAD CMakeFiles/BrewTroller-OT_DX1_RIMSDF.elf.dir/Events.cpp.obj
LOAD CMakeFiles/BrewTroller-OT_DX1_RIMSDF.elf.dir/Outputs.cpp.obj
LOAD CMakeFiles/BrewTroller-OT_DX1_RIMSDF.elf.dir/PVOut.cpp.obj
LOAD CMakeFiles/BrewTroller-OT_DX1_RIMSDF.elf.dir/StepLogic.cpp.obj
LOAD CMakeFiles/BrewTroller-OT_DX1_RIMSDF.elf.dir/Temp.cpp.obj
LOAD CMakeFiles/BrewTroller-OT_DX1_RIMSDF.elf.dir/Timer.cpp.obj
LOAD CMakeFiles/BrewTroller-OT_DX1_RIMSDF.elf.dir/UI.cpp.obj
LOAD CMakeFiles/BrewTroller-OT_DX1_RIMSDF.elf.dir/UIStrings.cpp.obj
LOAD CMakeFiles/BrewTroller-OT_DX1_RIMSDF.elf.dir/Util.cpp.obj
LOAD CMakeFiles/BrewTroller-OT_DX1_RIMSDF.elf.dir/Vessel.cpp.obj
LOAD CMakeFiles/BrewTroller-OT_DX1_RIMSDF.elf.dir/Volume.cpp.obj
LOAD ../lib/libBT-libs.a
LOAD /usr/lib/gcc/avr/4.8.2/avr51/libgcc.a
LOAD /usr/lib/gcc/avr/4.8.2/../../../avr/lib/avr51/libm.a
START GROUP
LOAD /usr/lib/gcc/avr/4.8.2/avr51/libgcc.a
LOAD /usr/lib/gcc/avr/4.8.2/../../../avr/lib/avr51/libm.a
LOAD /usr/lib/gcc/avr/4.8.2/../../../avr/lib/avr51/libc.a
END GROUP

.hash
 *(.hash)

.dynsym
 *(.dynsym)

.dynstr
 *(.dynstr)

.gnu.version
 *(.gnu.version)

.gnu.version_d
 *(.gnu.version_d)

.gnu.version_r
 *(.gnu.version_r)

.rel.init
 *(.rel.init)

.rela.init
 *(.rela.init)

.rel.text
 *(.rel.text)
 *(.rel.text.*)
 *(.rel.gnu.linkonce.t*)

.rela.text
 *(.rela.text)
 *(.rela.text.*)
 *(.rela.gnu.linkonce.t*)

.rel.fini
 *(.rel.fini)

.rela.fini
 *(.rela.fini)

.rel.rodata
 *(.rel.rodata)
 *(.rel.rodata.*)
 *(.rel.gnu.linkonce.r*)

.rela.rodata
 *(.rela.rodata)
 *(.rela.rodata.*)
 *(.rela.gnu.linkonce.r*)

.rel.data
 *(.rel.data)
 *(.rel.data.*)
 *(.rel.gnu.linkonce.d*)

.rela.data
 *(.rela.data)
 *(.rela.data.*)
 *(.rela.gnu.linkonce.d*)

.rel.ctors
 *(.rel.ctors)

.rela.ctors
 *(.rela.ctors)

.rel.dtors
 *(.rel.dtors)

.rela.dtors
 *(.rela.dtors)

.rel.got
 *(.rel.got)

.rela.got
 *(.rela.got)

.rel.bss
 *(.rel.bss)

.rela.bss
 *(.rela.bss)

.rel.plt
 *(.rel.plt)

.rela.plt
 *(.rela.plt)

.text           0x0000000000000000    0x12504
 *(.vectors)
 .vectors       0x0000000000000000       0x8c /usr/lib/gcc/avr/4.8.2/../../../avr/lib/avr51/crtm1284p.o
                0x0000000000000000                __vectors
                0x0000000000000000                __vector_default
 *(.vectors)
 *(.progmem.gcc*)
 .progmem.gcc_sw_table._Z8brewCorev
                0x000000000000008c       0x10 CMakeFiles/BrewTroller-OT_DX1_RIMSDF.elf.dir/BrewCore.cpp.obj
 .progmem.gcc_sw_table._ZN5BTnic7execCmdEv
                0x000000000000009c       0xa0 CMakeFiles/BrewTroller-OT_DX1_RIMSDF.elf.dir/Com.cpp.obj
 .progmem.gcc_sw_table.turnOffPWM
                0x000000000000013c       0x12 ../lib/libBT-libs.a(wiring_digital.c.obj)
 .progmem.gcc_fplib
                0x000000000000014e       0x28 /usr/lib/gcc/avr/4.8.2/../../../avr/lib/avr51/libm.a(exp.o)
 .progmem.gcc_fplib
                0x0000000000000176       0x5a /usr/lib/gcc/avr/4.8.2/../../../avr/lib/avr51/libm.a(log.o)
 *(.progmem*)
 .progmem.data.LOGSYS
                0x00000000000001d0        0x4 CMakeFiles/BrewTroller-OT_DX1_RIMSDF.elf.dir/BrewTroller.cpp.obj
                0x00000000000001d0                LOGSYS
 .progmem.data._ZL18CMD_INDEX_MAXVALUE
                0x00000000000001d4       0x41 CMakeFiles/BrewTroller-OT_DX1_RIMSDF.elf.dir/Com.cpp.obj
 .progmem.data._ZL16CMD_PARAM_COUNTS
                0x0000000000000215       0x41 CMakeFiles/BrewTroller-OT_DX1_RIMSDF.elf.dir/Com.cpp.obj
 .progmem.data._ZL4BELL
                0x0000000000000256        0x8 CMakeFiles/BrewTroller-OT_DX1_RIMSDF.elf.dir/UI.cpp.obj
 .progmem.data._ZL9PROG_ICON
                0x000000000000025e        0x8 CMakeFiles/BrewTroller-OT_DX1_RIMSDF.elf.dir/UI.cpp.obj
 .progmem.data._ZL11UNLOCK_ICON
                0x0000000000000266        0x8 CMakeFiles/BrewTroller-OT_DX1_RIMSDF.elf.dir/UI.cpp.obj
 .progmem.data._ZL4BMP4
                0x000000000000026e        0x8 CMakeFiles/BrewTroller-OT_DX1_RIMSDF.elf.dir/UI.cpp.obj
 .progmem.data._ZL4BMP3
                0x0000000000000276        0x8 CMakeFiles/BrewTroller-OT_DX1_RIMSDF.elf.dir/UI.cpp.obj
 .progmem.data._ZL4BMP2
                0x000000000000027e        0x8 CMakeFiles/BrewTroller-OT_DX1_RIMSDF.elf.dir/UI.cpp.obj
 .progmem.data._ZL4BMP1
                0x0000000000000286        0x8 CMakeFiles/BrewTroller-OT_DX1_RIMSDF.elf.dir/UI.cpp.obj
 .progmem.data._ZL4BMP0
                0x000000000000028e        0x8 CMakeFiles/BrewTroller-OT_DX1_RIMSDF.elf.dir/UI.cpp.obj
 .progmem.data._ZL7CHARSEL
                0x0000000000000296        0x8 CMakeFiles/BrewTroller-OT_DX1_RIMSDF.elf.dir/UI.cpp.obj
 .progmem.data._ZL10CHARCURSOR
                0x000000000000029e        0x8 CMakeFiles/BrewTroller-OT_DX1_RIMSDF.elf.dir/UI.cpp.obj
 .progmem.data._ZL9CHARFIELD
                0x00000000000002a6        0x8 CMakeFiles/BrewTroller-OT_DX1_RIMSDF.elf.dir/UI.cpp.obj
 .progmem.data._ZL9TITLE_VLV
                0x00000000000002ae       0x28 CMakeFiles/BrewTroller-OT_DX1_RIMSDF.elf.dir/UI.cpp.obj
 .progmem.data._ZL14TITLE_MASHSTEP
                0x00000000000002d6        0xc CMakeFiles/BrewTroller-OT_DX1_RIMSDF.elf.dir/UI.cpp.obj
 .progmem.data._ZN9UIStrings5Units5PUNITE
                0x00000000000002e2        0x8 CMakeFiles/BrewTroller-OT_DX1_RIMSDF.elf.dir/UIStrings.cpp.obj
                0x00000000000002e2                _ZN9UIStrings5Units5PUNITE
 .progmem.data._ZN9UIStrings5Units5TUNITE
                0x00000000000002ea        0x2 CMakeFiles/BrewTroller-OT_DX1_RIMSDF.elf.dir/UIStrings.cpp.obj
                0x00000000000002ea                _ZN9UIStrings5Units5TUNITE
 .progmem.data._ZN9UIStrings5Units6WTUNITE
                0x00000000000002ec        0x3 CMakeFiles/BrewTroller-OT_DX1_RIMSDF.elf.dir/UIStrings.cpp.obj
                0x00000000000002ec                _ZN9UIStrings5Units6WTUNITE
 .progmem.data._ZN9UIStrings5Units7VOLUNITE
                0x00000000000002ef        0x4 CMakeFiles/BrewTroller-OT_DX1_RIMSDF.elf.dir/UIStrings.cpp.obj
                0x00000000000002ef                _ZN9UIStrings5Units7VOLUNITE
 .progmem.data._ZN9UIStrings11SystemSetup14TriggersConfig14INPUT_PIN_NONEE
                0x00000000000002f3       0x14 CMakeFiles/BrewTroller-OT_DX1_RIMSDF.elf.dir/UIStrings.cpp.obj
                0x00000000000002f3                _ZN9UIStrings11SystemSetup14TriggersConfig14INPUT_PIN_NONEE
 .progmem.data._ZN9UIStrings11SystemSetup14TriggersConfig4NONEE
                0x0000000000000307        0x5 CMakeFiles/BrewTroller-OT_DX1_RIMSDF.elf.dir/UIStrings.cpp.obj
                0x0000000000000307                _ZN9UIStrings11SystemSetup14TriggersConfig4NONEE
 .progmem.data._ZN9UIStrings11SystemSetup14TriggersConfig10KETTLE_MINE
                0x000000000000030c        0xd CMakeFiles/BrewTroller-OT_DX1_RIMSDF.elf.dir/UIStrings.cpp.obj
                0x000000000000030c                _ZN9UIStrings11SystemSetup14TriggersConfig10KETTLE_MINE
 .progmem.data._ZN9UIStrings11SystemSetup14TriggersConfig8MASH_MINE
                0x0000000000000319        0xb CMakeFiles/BrewTroller-OT_DX1_RIMSDF.elf.dir/UIStrings.cpp.obj
                0x0000000000000319                _ZN9UIStrings11SystemSetup14TriggersConfig8MASH_MINE
 .progmem.data._ZN9UIStrings11SystemSetup14TriggersConfig7HLT_MINE
                0x0000000000000324        0xa CMakeFiles/BrewTroller-OT_DX1_RIMSDF.elf.dir/UIStrings.cpp.obj
                0x0000000000000324                _ZN9UIStrings11SystemSetup14TriggersConfig7HLT_MINE
 .progmem.data._ZN9UIStrings11SystemSetup14TriggersConfig10SPARGE_MAXE
                0x000000000000032e        0xd CMakeFiles/BrewTroller-OT_DX1_RIMSDF.elf.dir/UIStrings.cpp.obj
                0x000000000000032e                _ZN9UIStrings11SystemSetup14TriggersConfig10SPARGE_MAXE
 .progmem.data._ZN9UIStrings11SystemSetup14TriggersConfig5ESTOPE
                0x000000000000033b        0x9 CMakeFiles/BrewTroller-OT_DX1_RIMSDF.elf.dir/UIStrings.cpp.obj
                0x000000000000033b                _ZN9UIStrings11SystemSetup14TriggersConfig5ESTOPE
 .progmem.data._ZN9UIStrings11SystemSetup9LCDConfig8CONTRASTE
                0x0000000000000344        0xa CMakeFiles/BrewTroller-OT_DX1_RIMSDF.elf.dir/UIStrings.cpp.obj
                0x0000000000000344                _ZN9UIStrings11SystemSetup9LCDConfig8CONTRASTE
 .progmem.data._ZN9UIStrings11SystemSetup9LCDConfig10BRIGHTNESSE
                0x000000000000034e        0xc CMakeFiles/BrewTroller-OT_DX1_RIMSDF.elf.dir/UIStrings.cpp.obj
                0x000000000000034e                _ZN9UIStrings11SystemSetup9LCDConfig10BRIGHTNESSE
 .progmem.data._ZN9UIStrings11SystemSetup9LCDConfig10ADJUST_LCDE
                0x000000000000035a        0xb CMakeFiles/BrewTroller-OT_DX1_RIMSDF.elf.dir/UIStrings.cpp.obj
                0x000000000000035a                _ZN9UIStrings11SystemSetup9LCDConfig10ADJUST_LCDE
 .progmem.data._ZN9UIStrings11SystemSetup10InitEEPROM12RESET_CONFIGE
                0x0000000000000365       0x15 CMakeFiles/BrewTroller-OT_DX1_RIMSDF.elf.dir/UIStrings.cpp.obj
                0x0000000000000365                _ZN9UIStrings11SystemSetup10InitEEPROM12RESET_CONFIGE
 .progmem.data._ZN9UIStrings11SystemSetup18MODBUSOutputConfig20UPDATE_FAIL_CONTINUEE
                0x000000000000037a        0xd CMakeFiles/BrewTroller-OT_DX1_RIMSDF.elf.dir/UIStrings.cpp.obj
                0x000000000000037a                _ZN9UIStrings11SystemSetup18MODBUSOutputConfig20UPDATE_FAIL_CONTINUEE
 .progmem.data._ZN9UIStrings11SystemSetup18MODBUSOutputConfig11UPDATE_FAILE
                0x0000000000000387        0xe CMakeFiles/BrewTroller-OT_DX1_RIMSDF.elf.dir/UIStrings.cpp.obj
                0x0000000000000387                _ZN9UIStrings11SystemSetup18MODBUSOutputConfig11UPDATE_FAILE
 .progmem.data._ZN9UIStrings11SystemSetup18MODBUSOutputConfig11NEW_ADDRESSE
                0x0000000000000395        0xc CMakeFiles/BrewTroller-OT_DX1_RIMSDF.elf.dir/UIStrings.cpp.obj
                0x0000000000000395                _ZN9UIStrings11SystemSetup18MODBUSOutputConfig11NEW_ADDRESSE
 .progmem.data._ZN9UIStrings11SystemSetup18MODBUSOutputConfig12ASSIGN_RETRYE
                0x00000000000003a1        0x9 CMakeFiles/BrewTroller-OT_DX1_RIMSDF.elf.dir/UIStrings.cpp.obj
                0x00000000000003a1                _ZN9UIStrings11SystemSetup18MODBUSOutputConfig12ASSIGN_RETRYE
 .progmem.data._ZN9UIStrings11SystemSetup18MODBUSOutputConfig12ASSIGN_ERRORE
                0x00000000000003aa        0x7 CMakeFiles/BrewTroller-OT_DX1_RIMSDF.elf.dir/UIStrings.cpp.obj
                0x00000000000003aa                _ZN9UIStrings11SystemSetup18MODBUSOutputConfig12ASSIGN_ERRORE
 .progmem.data._ZN9UIStrings11SystemSetup18MODBUSOutputConfig14ASSIGN_TIMEOUTE
                0x00000000000003b1        0x8 CMakeFiles/BrewTroller-OT_DX1_RIMSDF.elf.dir/UIStrings.cpp.obj
                0x00000000000003b1                _ZN9UIStrings11SystemSetup18MODBUSOutputConfig14ASSIGN_TIMEOUTE
 .progmem.data._ZN9UIStrings11SystemSetup18MODBUSOutputConfig17CLICK_TO_ACTIVATEE
                0x00000000000003b9       0x13 CMakeFiles/BrewTroller-OT_DX1_RIMSDF.elf.dir/UIStrings.cpp.obj
                0x00000000000003b9                _ZN9UIStrings11SystemSetup18MODBUSOutputConfig17CLICK_TO_ACTIVATEE
 .progmem.data._ZN9UIStrings11SystemSetup18MODBUSOutputConfig12OUTPUT_BOARDE
                0x00000000000003cc       0x12 CMakeFiles/BrewTroller-OT_DX1_RIMSDF.elf.dir/UIStrings.cpp.obj
                0x00000000000003cc                _ZN9UIStrings11SystemSetup18MODBUSOutputConfig12OUTPUT_BOARDE
 .progmem.data._ZN9UIStrings11SystemSetup18MODBUSOutputConfig11CLICK_RESETE
                0x00000000000003de       0x14 CMakeFiles/BrewTroller-OT_DX1_RIMSDF.elf.dir/UIStrings.cpp.obj
                0x00000000000003de                _ZN9UIStrings11SystemSetup18MODBUSOutputConfig11CLICK_RESETE
 .progmem.data._ZN9UIStrings11SystemSetup18MODBUSOutputConfig13OUTPUT_OFFSETE
                0x00000000000003f2        0xe CMakeFiles/BrewTroller-OT_DX1_RIMSDF.elf.dir/UIStrings.cpp.obj
                0x00000000000003f2                _ZN9UIStrings11SystemSetup18MODBUSOutputConfig13OUTPUT_OFFSETE
 .progmem.data._ZN9UIStrings11SystemSetup18MODBUSOutputConfig10COIL_COUNTE
                0x0000000000000400        0xb CMakeFiles/BrewTroller-OT_DX1_RIMSDF.elf.dir/UIStrings.cpp.obj
                0x0000000000000400                _ZN9UIStrings11SystemSetup18MODBUSOutputConfig10COIL_COUNTE
 .progmem.data._ZN9UIStrings11SystemSetup18MODBUSOutputConfig13COIL_REGISTERE
                0x000000000000040b        0xe CMakeFiles/BrewTroller-OT_DX1_RIMSDF.elf.dir/UIStrings.cpp.obj
                0x000000000000040b                _ZN9UIStrings11SystemSetup18MODBUSOutputConfig13COIL_REGISTERE
 .progmem.data._ZN9UIStrings11SystemSetup18MODBUSOutputConfig13RELAY_ADDRESSE
                0x0000000000000419       0x14 CMakeFiles/BrewTroller-OT_DX1_RIMSDF.elf.dir/UIStrings.cpp.obj
                0x0000000000000419                _ZN9UIStrings11SystemSetup18MODBUSOutputConfig13RELAY_ADDRESSE
 .progmem.data._ZN9UIStrings11SystemSetup18MODBUSOutputConfig7ID_MODEE
                0x000000000000042d        0xa CMakeFiles/BrewTroller-OT_DX1_RIMSDF.elf.dir/UIStrings.cpp.obj
                0x000000000000042d                _ZN9UIStrings11SystemSetup18MODBUSOutputConfig7ID_MODEE
 .progmem.data._ZN9UIStrings11SystemSetup18MODBUSOutputConfig11AUTO_ASSIGNE
                0x0000000000000437        0xc CMakeFiles/BrewTroller-OT_DX1_RIMSDF.elf.dir/UIStrings.cpp.obj
                0x0000000000000437                _ZN9UIStrings11SystemSetup18MODBUSOutputConfig11AUTO_ASSIGNE
 .progmem.data._ZN9UIStrings11SystemSetup18MODBUSOutputConfig6OFFSETE
                0x0000000000000443        0x9 CMakeFiles/BrewTroller-OT_DX1_RIMSDF.elf.dir/UIStrings.cpp.obj
                0x0000000000000443                _ZN9UIStrings11SystemSetup18MODBUSOutputConfig6OFFSETE
 .progmem.data._ZN9UIStrings11SystemSetup18MODBUSOutputConfig5COUNTE
                0x000000000000044c        0x8 CMakeFiles/BrewTroller-OT_DX1_RIMSDF.elf.dir/UIStrings.cpp.obj
                0x000000000000044c                _ZN9UIStrings11SystemSetup18MODBUSOutputConfig5COUNTE
 .progmem.data._ZN9UIStrings11SystemSetup18MODBUSOutputConfig8REGISTERE
                0x0000000000000454        0xb CMakeFiles/BrewTroller-OT_DX1_RIMSDF.elf.dir/UIStrings.cpp.obj
                0x0000000000000454                _ZN9UIStrings11SystemSetup18MODBUSOutputConfig8REGISTERE
 .progmem.data._ZN9UIStrings11SystemSetup18MODBUSOutputConfig2NAE
                0x000000000000045f        0x4 CMakeFiles/BrewTroller-OT_DX1_RIMSDF.elf.dir/UIStrings.cpp.obj
                0x000000000000045f                _ZN9UIStrings11SystemSetup18MODBUSOutputConfig2NAE
 .progmem.data._ZN9UIStrings11SystemSetup18MODBUSOutputConfig7ADDRESSE
                0x0000000000000463        0xa CMakeFiles/BrewTroller-OT_DX1_RIMSDF.elf.dir/UIStrings.cpp.obj
                0x0000000000000463                _ZN9UIStrings11SystemSetup18MODBUSOutputConfig7ADDRESSE
 .progmem.data._ZN9UIStrings11SystemSetup18MODBUSOutputConfig5ERRORE
                0x000000000000046d        0x6 CMakeFiles/BrewTroller-OT_DX1_RIMSDF.elf.dir/UIStrings.cpp.obj
                0x000000000000046d                _ZN9UIStrings11SystemSetup18MODBUSOutputConfig5ERRORE
 .progmem.data._ZN9UIStrings11SystemSetup18MODBUSOutputConfig7TIMEOUTE
                0x0000000000000473        0xa CMakeFiles/BrewTroller-OT_DX1_RIMSDF.elf.dir/UIStrings.cpp.obj
                0x0000000000000473                _ZN9UIStrings11SystemSetup18MODBUSOutputConfig7TIMEOUTE
 .progmem.data._ZN9UIStrings11SystemSetup18MODBUSOutputConfig9CONNECTEDE
                0x000000000000047d        0xc CMakeFiles/BrewTroller-OT_DX1_RIMSDF.elf.dir/UIStrings.cpp.obj
                0x000000000000047d                _ZN9UIStrings11SystemSetup18MODBUSOutputConfig9CONNECTEDE
 .progmem.data._ZN9UIStrings11SystemSetup18MODBUSOutputConfig8DISABLEDE
                0x0000000000000489        0xb CMakeFiles/BrewTroller-OT_DX1_RIMSDF.elf.dir/UIStrings.cpp.obj
                0x0000000000000489                _ZN9UIStrings11SystemSetup18MODBUSOutputConfig8DISABLEDE
 .progmem.data._ZN9UIStrings11SystemSetup18MODBUSOutputConfig5BOARDE
                0x0000000000000494        0x7 CMakeFiles/BrewTroller-OT_DX1_RIMSDF.elf.dir/UIStrings.cpp.obj
                0x0000000000000494                _ZN9UIStrings11SystemSetup18MODBUSOutputConfig5BOARDE
 .progmem.data._ZN9UIStrings11SystemSetup18ValveProfileConfig9CLOSE_SQRE
                0x000000000000049b        0x2 CMakeFiles/BrewTroller-OT_DX1_RIMSDF.elf.dir/UIStrings.cpp.obj
                0x000000000000049b                _ZN9UIStrings11SystemSetup18ValveProfileConfig9CLOSE_SQRE
 .progmem.data._ZN9UIStrings11SystemSetup18ValveProfileConfig8OPEN_SQRE
                0x000000000000049d        0x2 CMakeFiles/BrewTroller-OT_DX1_RIMSDF.elf.dir/UIStrings.cpp.obj
                0x000000000000049d                _ZN9UIStrings11SystemSetup18ValveProfileConfig8OPEN_SQRE
 .progmem.data._ZN9UIStrings11SystemSetup18ValveProfileConfig6CARROTE
                0x000000000000049f        0x2 CMakeFiles/BrewTroller-OT_DX1_RIMSDF.elf.dir/UIStrings.cpp.obj
                0x000000000000049f                _ZN9UIStrings11SystemSetup18ValveProfileConfig6CARROTE
 .progmem.data._ZN9UIStrings11SystemSetup18ValveProfileConfig3ONEE
                0x00000000000004a1        0x2 CMakeFiles/BrewTroller-OT_DX1_RIMSDF.elf.dir/UIStrings.cpp.obj
                0x00000000000004a1                _ZN9UIStrings11SystemSetup18ValveProfileConfig3ONEE
 .progmem.data._ZN9UIStrings11SystemSetup18ValveProfileConfig4SAVEE
                0x00000000000004a3        0x5 CMakeFiles/BrewTroller-OT_DX1_RIMSDF.elf.dir/UIStrings.cpp.obj
                0x00000000000004a3                _ZN9UIStrings11SystemSetup18ValveProfileConfig4SAVEE
 .progmem.data._ZN9UIStrings11SystemSetup18ValveProfileConfig4TESTE
                0x00000000000004a8        0x5 CMakeFiles/BrewTroller-OT_DX1_RIMSDF.elf.dir/UIStrings.cpp.obj
                0x00000000000004a8                _ZN9UIStrings11SystemSetup18ValveProfileConfig4TESTE
 .progmem.data._ZN9UIStrings11SystemSetup17VolumeCalibration16MANUAL_VOL_ENTRYE
                0x00000000000004ad       0x14 CMakeFiles/BrewTroller-OT_DX1_RIMSDF.elf.dir/UIStrings.cpp.obj
                0x00000000000004ad                _ZN9UIStrings11SystemSetup17VolumeCalibration16MANUAL_VOL_ENTRYE
 .progmem.data._ZN9UIStrings11SystemSetup17VolumeCalibration12MANUAL_ENTRYE
                0x00000000000004c1        0xd CMakeFiles/BrewTroller-OT_DX1_RIMSDF.elf.dir/UIStrings.cpp.obj
                0x00000000000004c1                _ZN9UIStrings11SystemSetup17VolumeCalibration12MANUAL_ENTRYE
 .progmem.data._ZN9UIStrings11SystemSetup17VolumeCalibration2TOE
                0x00000000000004ce        0x5 CMakeFiles/BrewTroller-OT_DX1_RIMSDF.elf.dir/UIStrings.cpp.obj
                0x00000000000004ce                _ZN9UIStrings11SystemSetup17VolumeCalibration2TOE
 .progmem.data._ZN9UIStrings11SystemSetup17VolumeCalibration6UPDATEE
                0x00000000000004d3        0x8 CMakeFiles/BrewTroller-OT_DX1_RIMSDF.elf.dir/UIStrings.cpp.obj
                0x00000000000004d3                _ZN9UIStrings11SystemSetup17VolumeCalibration6UPDATEE
 .progmem.data._ZN9UIStrings11SystemSetup17VolumeCalibration9CALIBRATEE
                0x00000000000004db        0xa CMakeFiles/BrewTroller-OT_DX1_RIMSDF.elf.dir/UIStrings.cpp.obj
                0x00000000000004db                _ZN9UIStrings11SystemSetup17VolumeCalibration9CALIBRATEE
 .progmem.data._ZN9UIStrings11SystemSetup17VolumeCalibration8CURR_VOLE
                0x00000000000004e5       0x10 CMakeFiles/BrewTroller-OT_DX1_RIMSDF.elf.dir/UIStrings.cpp.obj
                0x00000000000004e5                _ZN9UIStrings11SystemSetup17VolumeCalibration8CURR_VOLE
 .progmem.data._ZN9UIStrings11SystemSetup17VolumeCalibration4OPENE
                0x00000000000004f5        0x5 CMakeFiles/BrewTroller-OT_DX1_RIMSDF.elf.dir/UIStrings.cpp.obj
                0x00000000000004f5                _ZN9UIStrings11SystemSetup17VolumeCalibration4OPENE
 .progmem.data._ZN9UIStrings11SystemSetup17VolumeCalibration11CLOSE_PARENE
                0x00000000000004fa        0x2 CMakeFiles/BrewTroller-OT_DX1_RIMSDF.elf.dir/UIStrings.cpp.obj
                0x00000000000004fa                _ZN9UIStrings11SystemSetup17VolumeCalibration11CLOSE_PARENE
 .progmem.data._ZN9UIStrings11SystemSetup17VolumeCalibration10OPEN_PARENE
                0x00000000000004fc        0x3 CMakeFiles/BrewTroller-OT_DX1_RIMSDF.elf.dir/UIStrings.cpp.obj
                0x00000000000004fc                _ZN9UIStrings11SystemSetup17VolumeCalibration10OPEN_PARENE
 .progmem.data._ZN9UIStrings11SystemSetup12VolumeConfig14EVAP_RATE_UNITE
                0x00000000000004ff        0x5 CMakeFiles/BrewTroller-OT_DX1_RIMSDF.elf.dir/UIStrings.cpp.obj
                0x00000000000004ff                _ZN9UIStrings11SystemSetup12VolumeConfig14EVAP_RATE_UNITE
 .progmem.data._ZN9UIStrings11SystemSetup12VolumeConfig11CALIBRATIONE
                0x0000000000000504        0xd CMakeFiles/BrewTroller-OT_DX1_RIMSDF.elf.dir/UIStrings.cpp.obj
                0x0000000000000504                _ZN9UIStrings11SystemSetup12VolumeConfig11CALIBRATIONE
 .progmem.data._ZN9UIStrings11SystemSetup12VolumeConfig9DEADSPACEE
                0x0000000000000511        0xc CMakeFiles/BrewTroller-OT_DX1_RIMSDF.elf.dir/UIStrings.cpp.obj
                0x0000000000000511                _ZN9UIStrings11SystemSetup12VolumeConfig9DEADSPACEE
 .progmem.data._ZN9UIStrings11SystemSetup12VolumeConfig8CAPACITYE
                0x000000000000051d        0xa CMakeFiles/BrewTroller-OT_DX1_RIMSDF.elf.dir/UIStrings.cpp.obj
                0x000000000000051d                _ZN9UIStrings11SystemSetup12VolumeConfig8CAPACITYE
 .progmem.data._ZN9UIStrings11SystemSetup12VolumeConfig9EVAP_RATEE
                0x0000000000000527       0x11 CMakeFiles/BrewTroller-OT_DX1_RIMSDF.elf.dir/UIStrings.cpp.obj
                0x0000000000000527                _ZN9UIStrings11SystemSetup12VolumeConfig9EVAP_RATEE
 .progmem.data._ZN9UIStrings11SystemSetup12OutputConfig8PUMPFLOWE
                0x0000000000000538        0xf CMakeFiles/BrewTroller-OT_DX1_RIMSDF.elf.dir/UIStrings.cpp.obj
                0x0000000000000538                _ZN9UIStrings11SystemSetup12OutputConfig8PUMPFLOWE
 .progmem.data._ZN9UIStrings11SystemSetup12OutputConfig10HYSTERESISE
                0x0000000000000547        0xc CMakeFiles/BrewTroller-OT_DX1_RIMSDF.elf.dir/UIStrings.cpp.obj
                0x0000000000000547                _ZN9UIStrings11SystemSetup12OutputConfig10HYSTERESISE
 .progmem.data._ZN9UIStrings11SystemSetup12OutputConfig7PIDGAINE
                0x0000000000000553        0xa CMakeFiles/BrewTroller-OT_DX1_RIMSDF.elf.dir/UIStrings.cpp.obj
                0x0000000000000553                _ZN9UIStrings11SystemSetup12OutputConfig7PIDGAINE
 .progmem.data._ZN9UIStrings11SystemSetup12OutputConfig8PIDCYCLEE
                0x000000000000055d        0xb CMakeFiles/BrewTroller-OT_DX1_RIMSDF.elf.dir/UIStrings.cpp.obj
                0x000000000000055d                _ZN9UIStrings11SystemSetup12OutputConfig8PIDCYCLEE
 .progmem.data._ZN9UIStrings11SystemSetup12OutputConfig11ON_OFF_MODEE
                0x0000000000000568        0x7 CMakeFiles/BrewTroller-OT_DX1_RIMSDF.elf.dir/UIStrings.cpp.obj
                0x0000000000000568                _ZN9UIStrings11SystemSetup12OutputConfig11ON_OFF_MODEE
 .progmem.data._ZN9UIStrings11SystemSetup12OutputConfig8PID_MODEE
                0x000000000000056f        0x4 CMakeFiles/BrewTroller-OT_DX1_RIMSDF.elf.dir/UIStrings.cpp.obj
                0x000000000000056f                _ZN9UIStrings11SystemSetup12OutputConfig8PID_MODEE
 .progmem.data._ZN9UIStrings11SystemSetup12OutputConfig16SPARGE_PUMP_MODEE
                0x0000000000000573        0xe CMakeFiles/BrewTroller-OT_DX1_RIMSDF.elf.dir/UIStrings.cpp.obj
                0x0000000000000573                _ZN9UIStrings11SystemSetup12OutputConfig16SPARGE_PUMP_MODEE
 .progmem.data._ZN9UIStrings11SystemSetup12OutputConfig11KETTLE_MODEE
                0x0000000000000581        0xe CMakeFiles/BrewTroller-OT_DX1_RIMSDF.elf.dir/UIStrings.cpp.obj
                0x0000000000000581                _ZN9UIStrings11SystemSetup12OutputConfig11KETTLE_MODEE
 .progmem.data._ZN9UIStrings11SystemSetup12OutputConfig9MASH_MODEE
                0x000000000000058f        0xc CMakeFiles/BrewTroller-OT_DX1_RIMSDF.elf.dir/UIStrings.cpp.obj
                0x000000000000058f                _ZN9UIStrings11SystemSetup12OutputConfig9MASH_MODEE
 .progmem.data._ZN9UIStrings11SystemSetup12OutputConfig8HLT_MODEE
                0x000000000000059b        0xb CMakeFiles/BrewTroller-OT_DX1_RIMSDF.elf.dir/UIStrings.cpp.obj
                0x000000000000059b                _ZN9UIStrings11SystemSetup12OutputConfig8HLT_MODEE
 .progmem.data._ZN9UIStrings11SystemSetup16TempSensorAssign15ASSIGN_BAD_TEMPE
                0x00000000000005a6        0x4 CMakeFiles/BrewTroller-OT_DX1_RIMSDF.elf.dir/UIStrings.cpp.obj
                0x00000000000005a6                _ZN9UIStrings11SystemSetup16TempSensorAssign15ASSIGN_BAD_TEMPE
 .progmem.data._ZN9UIStrings11SystemSetup16TempSensorAssign16DISCONNECT_WARN2E
                0x00000000000005aa       0x11 CMakeFiles/BrewTroller-OT_DX1_RIMSDF.elf.dir/UIStrings.cpp.obj
                0x00000000000005aa                _ZN9UIStrings11SystemSetup16TempSensorAssign16DISCONNECT_WARN2E
 .progmem.data._ZN9UIStrings11SystemSetup16TempSensorAssign16DISCONNECT_WARN1E
                0x00000000000005bb       0x15 CMakeFiles/BrewTroller-OT_DX1_RIMSDF.elf.dir/UIStrings.cpp.obj
                0x00000000000005bb                _ZN9UIStrings11SystemSetup16TempSensorAssign16DISCONNECT_WARN1E
 .progmem.data._ZN9UIStrings11SystemSetup16TempSensorAssign14DELETE_ADDRESSE
                0x00000000000005d0        0xf CMakeFiles/BrewTroller-OT_DX1_RIMSDF.elf.dir/UIStrings.cpp.obj
                0x00000000000005d0                _ZN9UIStrings11SystemSetup16TempSensorAssign14DELETE_ADDRESSE
 .progmem.data._ZN9UIStrings11SystemSetup16TempSensorAssign8SCAN_BUSE
                0x00000000000005df        0x9 CMakeFiles/BrewTroller-OT_DX1_RIMSDF.elf.dir/UIStrings.cpp.obj
                0x00000000000005df                _ZN9UIStrings11SystemSetup16TempSensorAssign8SCAN_BUSE
 .progmem.data._ZN9UIStrings11SystemSetup16TempSensorAssign13ASSIGN_SENSORE
                0x00000000000005e8       0x13 CMakeFiles/BrewTroller-OT_DX1_RIMSDF.elf.dir/UIStrings.cpp.obj
                0x00000000000005e8                _ZN9UIStrings11SystemSetup16TempSensorAssign13ASSIGN_SENSORE
 .progmem.data._ZN9UIStrings11SystemSetup16TempSensorAssign4AUX3E
                0x00000000000005fb        0x6 CMakeFiles/BrewTroller-OT_DX1_RIMSDF.elf.dir/UIStrings.cpp.obj
                0x00000000000005fb                _ZN9UIStrings11SystemSetup16TempSensorAssign4AUX3E
 .progmem.data._ZN9UIStrings11SystemSetup16TempSensorAssign4AUX2E
                0x0000000000000601        0x6 CMakeFiles/BrewTroller-OT_DX1_RIMSDF.elf.dir/UIStrings.cpp.obj
                0x0000000000000601                _ZN9UIStrings11SystemSetup16TempSensorAssign4AUX2E
 .progmem.data._ZN9UIStrings11SystemSetup16TempSensorAssign4AUX1E
                0x0000000000000607        0x6 CMakeFiles/BrewTroller-OT_DX1_RIMSDF.elf.dir/UIStrings.cpp.obj
                0x0000000000000607                _ZN9UIStrings11SystemSetup16TempSensorAssign4AUX1E
 .progmem.data._ZN9UIStrings11SystemSetup16TempSensorAssign8BEER_OUTE
                0x000000000000060d        0x9 CMakeFiles/BrewTroller-OT_DX1_RIMSDF.elf.dir/UIStrings.cpp.obj
                0x000000000000060d                _ZN9UIStrings11SystemSetup16TempSensorAssign8BEER_OUTE
 .progmem.data._ZN9UIStrings11SystemSetup16TempSensorAssign9WATER_OUTE
                0x0000000000000616        0x8 CMakeFiles/BrewTroller-OT_DX1_RIMSDF.elf.dir/UIStrings.cpp.obj
                0x0000000000000616                _ZN9UIStrings11SystemSetup16TempSensorAssign9WATER_OUTE
 .progmem.data._ZN9UIStrings11SystemSetup16TempSensorAssign8WATER_INE
                0x000000000000061e        0x7 CMakeFiles/BrewTroller-OT_DX1_RIMSDF.elf.dir/UIStrings.cpp.obj
                0x000000000000061e                _ZN9UIStrings11SystemSetup16TempSensorAssign8WATER_INE
 .progmem.data._ZN9UIStrings11SystemSetup16TempSensorAssign11BREW_KETTLEE
                0x0000000000000625        0xc CMakeFiles/BrewTroller-OT_DX1_RIMSDF.elf.dir/UIStrings.cpp.obj
                0x0000000000000625                _ZN9UIStrings11SystemSetup16TempSensorAssign11BREW_KETTLEE
 .progmem.data._ZN9UIStrings11SystemSetup8TITLE_VSE
                0x0000000000000631        0x8 CMakeFiles/BrewTroller-OT_DX1_RIMSDF.elf.dir/UIStrings.cpp.obj
                0x0000000000000631                _ZN9UIStrings11SystemSetup8TITLE_VSE
 .progmem.data._ZN9UIStrings11SystemSetup8TRIGGERSE
                0x0000000000000639        0x9 CMakeFiles/BrewTroller-OT_DX1_RIMSDF.elf.dir/UIStrings.cpp.obj
                0x0000000000000639                _ZN9UIStrings11SystemSetup8TRIGGERSE
 .progmem.data._ZN9UIStrings11SystemSetup9DISPLAY_SE
                0x0000000000000642        0x8 CMakeFiles/BrewTroller-OT_DX1_RIMSDF.elf.dir/UIStrings.cpp.obj
                0x0000000000000642                _ZN9UIStrings11SystemSetup9DISPLAY_SE
 .progmem.data._ZN9UIStrings11SystemSetup13RS485_OUTPUTSE
                0x000000000000064a        0xe CMakeFiles/BrewTroller-OT_DX1_RIMSDF.elf.dir/UIStrings.cpp.obj
                0x000000000000064a                _ZN9UIStrings11SystemSetup13RS485_OUTPUTSE
 .progmem.data._ZN9UIStrings11SystemSetup14VALVE_PROFILESE
                0x0000000000000658        0xf CMakeFiles/BrewTroller-OT_DX1_RIMSDF.elf.dir/UIStrings.cpp.obj
                0x0000000000000658                _ZN9UIStrings11SystemSetup14VALVE_PROFILESE
 .progmem.data._ZN9UIStrings11SystemSetup9VOLS_CAPSE
                0x0000000000000667       0x10 CMakeFiles/BrewTroller-OT_DX1_RIMSDF.elf.dir/UIStrings.cpp.obj
                0x0000000000000667                _ZN9UIStrings11SystemSetup9VOLS_CAPSE
 .progmem.data._ZN9UIStrings11SystemSetup7OUTPUTSE
                0x0000000000000677        0x8 CMakeFiles/BrewTroller-OT_DX1_RIMSDF.elf.dir/UIStrings.cpp.obj
                0x0000000000000677                _ZN9UIStrings11SystemSetup7OUTPUTSE
 .progmem.data._ZN9UIStrings11SystemSetup12TEMP_SENSORSE
                0x000000000000067f       0x14 CMakeFiles/BrewTroller-OT_DX1_RIMSDF.elf.dir/UIStrings.cpp.obj
                0x000000000000067f                _ZN9UIStrings11SystemSetup12TEMP_SENSORSE
 .progmem.data._ZN9UIStrings5Timer9TIMER_SEPE
                0x0000000000000693        0x5 CMakeFiles/BrewTroller-OT_DX1_RIMSDF.elf.dir/UIStrings.cpp.obj
                0x0000000000000693                _ZN9UIStrings5Timer9TIMER_SEPE
 .progmem.data._ZN9UIStrings12DeleteDialog11DELETE_ITEME
                0x0000000000000698        0xd CMakeFiles/BrewTroller-OT_DX1_RIMSDF.elf.dir/UIStrings.cpp.obj
                0x0000000000000698                _ZN9UIStrings12DeleteDialog11DELETE_ITEME
 .progmem.data._ZN9UIStrings11AbortDialog5RESETE
                0x00000000000006a5        0x6 CMakeFiles/BrewTroller-OT_DX1_RIMSDF.elf.dir/UIStrings.cpp.obj
                0x00000000000006a5                _ZN9UIStrings11AbortDialog5RESETE
 .progmem.data._ZN9UIStrings11AbortDialog9ABORT_OP3E
                0x00000000000006ab       0x14 CMakeFiles/BrewTroller-OT_DX1_RIMSDF.elf.dir/UIStrings.cpp.obj
                0x00000000000006ab                _ZN9UIStrings11AbortDialog9ABORT_OP3E
 .progmem.data._ZN9UIStrings11AbortDialog9ABORT_OP2E
                0x00000000000006bf       0x11 CMakeFiles/BrewTroller-OT_DX1_RIMSDF.elf.dir/UIStrings.cpp.obj
                0x00000000000006bf                _ZN9UIStrings11AbortDialog9ABORT_OP2E
 .progmem.data._ZN9UIStrings11AbortDialog9ABORT_OP1E
                0x00000000000006d0       0x14 CMakeFiles/BrewTroller-OT_DX1_RIMSDF.elf.dir/UIStrings.cpp.obj
                0x00000000000006d0                _ZN9UIStrings11AbortDialog9ABORT_OP1E
 .progmem.data._ZN9UIStrings5EStop11CLEAR_ESTOPE
                0x00000000000006e4        0xe CMakeFiles/BrewTroller-OT_DX1_RIMSDF.elf.dir/UIStrings.cpp.obj
                0x00000000000006e4                _ZN9UIStrings5EStop11CLEAR_ESTOPE
 .progmem.data._ZN9UIStrings5EStop11CLEAR_ALARME
                0x00000000000006f2        0xd CMakeFiles/BrewTroller-OT_DX1_RIMSDF.elf.dir/UIStrings.cpp.obj
                0x00000000000006f2                _ZN9UIStrings5EStop11CLEAR_ALARME
 .progmem.data._ZN9UIStrings5EStop15ESTOP_TRIGGEREDE
                0x00000000000006ff       0x11 CMakeFiles/BrewTroller-OT_DX1_RIMSDF.elf.dir/UIStrings.cpp.obj
                0x00000000000006ff                _ZN9UIStrings5EStop15ESTOP_TRIGGEREDE
 .progmem.data._ZN9UIStrings6Vessel13TITLE_VS_PUMPE
                0x0000000000000710        0x5 CMakeFiles/BrewTroller-OT_DX1_RIMSDF.elf.dir/UIStrings.cpp.obj
                0x0000000000000710                _ZN9UIStrings6Vessel13TITLE_VS_PUMPE
 .progmem.data._ZN9UIStrings6Vessel15TITLE_VS_KETTLEE
                0x0000000000000715        0x7 CMakeFiles/BrewTroller-OT_DX1_RIMSDF.elf.dir/UIStrings.cpp.obj
                0x0000000000000715                _ZN9UIStrings6Vessel15TITLE_VS_KETTLEE
 .progmem.data._ZN9UIStrings6Vessel13TITLE_VS_MASHE
                0x000000000000071c        0x5 CMakeFiles/BrewTroller-OT_DX1_RIMSDF.elf.dir/UIStrings.cpp.obj
                0x000000000000071c                _ZN9UIStrings6Vessel13TITLE_VS_MASHE
 .progmem.data._ZN9UIStrings6Vessel12TITLE_VS_HLTE
                0x0000000000000721        0x4 CMakeFiles/BrewTroller-OT_DX1_RIMSDF.elf.dir/UIStrings.cpp.obj
                0x0000000000000721                _ZN9UIStrings6Vessel12TITLE_VS_HLTE
 .progmem.data._ZN9UIStrings7Program9StepError11FAILED_ADV2E
                0x0000000000000725        0x9 CMakeFiles/BrewTroller-OT_DX1_RIMSDF.elf.dir/UIStrings.cpp.obj
                0x0000000000000725                _ZN9UIStrings7Program9StepError11FAILED_ADV2E
 .progmem.data._ZN9UIStrings7Program9StepError11FAILED_ADV1E
                0x000000000000072e       0x12 CMakeFiles/BrewTroller-OT_DX1_RIMSDF.elf.dir/UIStrings.cpp.obj
                0x000000000000072e                _ZN9UIStrings7Program9StepError11FAILED_ADV1E
 .progmem.data._ZN9UIStrings7Program11BoilWarning13BOIL_CAP_WARNE
                0x0000000000000740       0x14 CMakeFiles/BrewTroller-OT_DX1_RIMSDF.elf.dir/UIStrings.cpp.obj
                0x0000000000000740                _ZN9UIStrings7Program11BoilWarning13BOIL_CAP_WARNE
 .progmem.data._ZN9UIStrings7Program11MashWarning13MASH_CAP_WARNE
                0x0000000000000754       0x14 CMakeFiles/BrewTroller-OT_DX1_RIMSDF.elf.dir/UIStrings.cpp.obj
                0x0000000000000754                _ZN9UIStrings7Program11MashWarning13MASH_CAP_WARNE
 .progmem.data._ZN9UIStrings7Program10HLTWarning12HLT_CAP_WARNE
                0x0000000000000768       0x13 CMakeFiles/BrewTroller-OT_DX1_RIMSDF.elf.dir/UIStrings.cpp.obj
                0x0000000000000768                _ZN9UIStrings7Program10HLTWarning12HLT_CAP_WARNE
 .progmem.data._ZN9UIStrings7Program11HopSchedule10MIN_3SPACEE
                0x000000000000077b        0x7 CMakeFiles/BrewTroller-OT_DX1_RIMSDF.elf.dir/UIStrings.cpp.obj
                0x000000000000077b                _ZN9UIStrings7Program11HopSchedule10MIN_3SPACEE
 .progmem.data._ZN9UIStrings7Program11HopSchedule10MIN_2SPACEE
                0x0000000000000782        0x6 CMakeFiles/BrewTroller-OT_DX1_RIMSDF.elf.dir/UIStrings.cpp.obj
                0x0000000000000782                _ZN9UIStrings7Program11HopSchedule10MIN_2SPACEE
 .progmem.data._ZN9UIStrings7Program11HopSchedule9MIN_SPACEE
                0x0000000000000788        0x5 CMakeFiles/BrewTroller-OT_DX1_RIMSDF.elf.dir/UIStrings.cpp.obj
                0x0000000000000788                _ZN9UIStrings7Program11HopSchedule9MIN_SPACEE
 .progmem.data._ZN9UIStrings7Program11HopSchedule7AT_BOILE
                0x000000000000078d        0x8 CMakeFiles/BrewTroller-OT_DX1_RIMSDF.elf.dir/UIStrings.cpp.obj
                0x000000000000078d                _ZN9UIStrings7Program11HopSchedule7AT_BOILE
 .progmem.data._ZN9UIStrings7Program11ProgramMenu10GRAIN_LOSSE
                0x0000000000000795        0xc CMakeFiles/BrewTroller-OT_DX1_RIMSDF.elf.dir/UIStrings.cpp.obj
                0x0000000000000795                _ZN9UIStrings7Program11ProgramMenu10GRAIN_LOSSE
 .progmem.data._ZN9UIStrings7Program11ProgramMenu9GRAIN_VOLE
                0x00000000000007a1        0xb CMakeFiles/BrewTroller-OT_DX1_RIMSDF.elf.dir/UIStrings.cpp.obj
                0x00000000000007a1                _ZN9UIStrings7Program11ProgramMenu9GRAIN_VOLE
 .progmem.data._ZN9UIStrings7Program11ProgramMenu11PREBOIL_VOLE
                0x00000000000007ac        0xd CMakeFiles/BrewTroller-OT_DX1_RIMSDF.elf.dir/UIStrings.cpp.obj
                0x00000000000007ac                _ZN9UIStrings7Program11ProgramMenu11PREBOIL_VOLE
 .progmem.data._ZN9UIStrings7Program11ProgramMenu10SPARGE_VOLE
                0x00000000000007b9        0xc CMakeFiles/BrewTroller-OT_DX1_RIMSDF.elf.dir/UIStrings.cpp.obj
                0x00000000000007b9                _ZN9UIStrings7Program11ProgramMenu10SPARGE_VOLE
 .progmem.data._ZN9UIStrings7Program11ProgramMenu10STRIKE_VOLE
                0x00000000000007c5        0xc CMakeFiles/BrewTroller-OT_DX1_RIMSDF.elf.dir/UIStrings.cpp.obj
                0x00000000000007c5                _ZN9UIStrings7Program11ProgramMenu10STRIKE_VOLE
 .progmem.data._ZN9UIStrings7Program11ProgramMenu11STRIKE_TEMPE
                0x00000000000007d1        0xd CMakeFiles/BrewTroller-OT_DX1_RIMSDF.elf.dir/UIStrings.cpp.obj
                0x00000000000007d1                _ZN9UIStrings7Program11ProgramMenu11STRIKE_TEMPE
 .progmem.data._ZN9UIStrings7Program11ProgramMenu11RATIO_UNITSE
                0x00000000000007de        0x7 CMakeFiles/BrewTroller-OT_DX1_RIMSDF.elf.dir/UIStrings.cpp.obj
                0x00000000000007de                _ZN9UIStrings7Program11ProgramMenu11RATIO_UNITSE
 .progmem.data._ZN9UIStrings7Program11ProgramMenu12GRAIN_WEIGHTE
                0x00000000000007e5        0xd CMakeFiles/BrewTroller-OT_DX1_RIMSDF.elf.dir/UIStrings.cpp.obj
                0x00000000000007e5                _ZN9UIStrings7Program11ProgramMenu12GRAIN_WEIGHTE
 .progmem.data._ZN9UIStrings7Program11ProgramMenu12BATCH_VOLUMEE
                0x00000000000007f2        0xd CMakeFiles/BrewTroller-OT_DX1_RIMSDF.elf.dir/UIStrings.cpp.obj
                0x00000000000007f2                _ZN9UIStrings7Program11ProgramMenu12BATCH_VOLUMEE
 .progmem.data._ZN9UIStrings7Program11ProgramMenu10PROG_CALCSE
                0x00000000000007ff        0xe CMakeFiles/BrewTroller-OT_DX1_RIMSDF.elf.dir/UIStrings.cpp.obj
                0x00000000000007ff                _ZN9UIStrings7Program11ProgramMenu10PROG_CALCSE
 .progmem.data._ZN9UIStrings7Program11ProgramMenu5UNKWNE
                0x000000000000080d        0x6 CMakeFiles/BrewTroller-OT_DX1_RIMSDF.elf.dir/UIStrings.cpp.obj
                0x000000000000080d                _ZN9UIStrings7Program11ProgramMenu5UNKWNE
 .progmem.data._ZN9UIStrings7Program11ProgramMenu4MASHE
                0x0000000000000813        0x5 CMakeFiles/BrewTroller-OT_DX1_RIMSDF.elf.dir/UIStrings.cpp.obj
                0x0000000000000813                _ZN9UIStrings7Program11ProgramMenu4MASHE
 .progmem.data._ZN9UIStrings7Program11ProgramMenu14HEAT_STRIKE_INE
                0x0000000000000818       0x10 CMakeFiles/BrewTroller-OT_DX1_RIMSDF.elf.dir/UIStrings.cpp.obj
                0x0000000000000818                _ZN9UIStrings7Program11ProgramMenu14HEAT_STRIKE_INE
 .progmem.data._ZN9UIStrings7Program11ProgramMenu10MASH_SCHEDE
                0x0000000000000828        0xe CMakeFiles/BrewTroller-OT_DX1_RIMSDF.elf.dir/UIStrings.cpp.obj
                0x0000000000000828                _ZN9UIStrings7Program11ProgramMenu10MASH_SCHEDE
 .progmem.data._ZN9UIStrings7Program11ProgramMenu10PITCH_TEMPE
                0x0000000000000836        0xb CMakeFiles/BrewTroller-OT_DX1_RIMSDF.elf.dir/UIStrings.cpp.obj
                0x0000000000000836                _ZN9UIStrings7Program11ProgramMenu10PITCH_TEMPE
 .progmem.data._ZN9UIStrings7Program11ProgramMenu11SPARGE_TEMPE
                0x0000000000000841        0xc CMakeFiles/BrewTroller-OT_DX1_RIMSDF.elf.dir/UIStrings.cpp.obj
                0x0000000000000841                _ZN9UIStrings7Program11ProgramMenu11SPARGE_TEMPE
 .progmem.data._ZN9UIStrings7Program11ProgramMenu8HLT_TEMPE
                0x000000000000084d        0xa CMakeFiles/BrewTroller-OT_DX1_RIMSDF.elf.dir/UIStrings.cpp.obj
                0x000000000000084d                _ZN9UIStrings7Program11ProgramMenu8HLT_TEMPE
 .progmem.data._ZN9UIStrings7Program11ProgramMenu9NO_SPARGEE
                0x0000000000000857        0x9 CMakeFiles/BrewTroller-OT_DX1_RIMSDF.elf.dir/UIStrings.cpp.obj
                0x0000000000000857                _ZN9UIStrings7Program11ProgramMenu9NO_SPARGEE
 .progmem.data._ZN9UIStrings7Program11ProgramMenu10RATIO_TO_1E
                0x0000000000000860        0x3 CMakeFiles/BrewTroller-OT_DX1_RIMSDF.elf.dir/UIStrings.cpp.obj
                0x0000000000000860                _ZN9UIStrings7Program11ProgramMenu10RATIO_TO_1E
 .progmem.data._ZN9UIStrings7Program11ProgramMenu10MASH_RATIOE
                0x0000000000000863        0xb CMakeFiles/BrewTroller-OT_DX1_RIMSDF.elf.dir/UIStrings.cpp.obj
                0x0000000000000863                _ZN9UIStrings7Program11ProgramMenu10MASH_RATIOE
 .progmem.data._ZN9UIStrings7Program11ProgramMenu11MINUTES_INDE
                0x000000000000086e        0x5 CMakeFiles/BrewTroller-OT_DX1_RIMSDF.elf.dir/UIStrings.cpp.obj
                0x000000000000086e                _ZN9UIStrings7Program11ProgramMenu11MINUTES_INDE
 .progmem.data._ZN9UIStrings7Program11ProgramMenu8BOIL_LENE
                0x0000000000000873        0xc CMakeFiles/BrewTroller-OT_DX1_RIMSDF.elf.dir/UIStrings.cpp.obj
                0x0000000000000873                _ZN9UIStrings7Program11ProgramMenu8BOIL_LENE
 .progmem.data._ZN9UIStrings7Program11ProgramMenu8GRAIN_WTE
                0x000000000000087f        0xa CMakeFiles/BrewTroller-OT_DX1_RIMSDF.elf.dir/UIStrings.cpp.obj
                0x000000000000087f                _ZN9UIStrings7Program11ProgramMenu8GRAIN_WTE
 .progmem.data._ZN9UIStrings7Program11ProgramMenu9BATCH_VOLE
                0x0000000000000889        0xb CMakeFiles/BrewTroller-OT_DX1_RIMSDF.elf.dir/UIStrings.cpp.obj
                0x0000000000000889                _ZN9UIStrings7Program11ProgramMenu9BATCH_VOLE
 .progmem.data._ZN9UIStrings7Program11ProgramMenu10START_ERR3E
                0x0000000000000894        0x8 CMakeFiles/BrewTroller-OT_DX1_RIMSDF.elf.dir/UIStrings.cpp.obj
                0x0000000000000894                _ZN9UIStrings7Program11ProgramMenu10START_ERR3E
 .progmem.data._ZN9UIStrings7Program11ProgramMenu10START_ERR2E
                0x000000000000089c       0x13 CMakeFiles/BrewTroller-OT_DX1_RIMSDF.elf.dir/UIStrings.cpp.obj
                0x000000000000089c                _ZN9UIStrings7Program11ProgramMenu10START_ERR2E
 .progmem.data._ZN9UIStrings7Program11ProgramMenu10START_ERR1E
                0x00000000000008af       0x15 CMakeFiles/BrewTroller-OT_DX1_RIMSDF.elf.dir/UIStrings.cpp.obj
                0x00000000000008af                _ZN9UIStrings7Program11ProgramMenu10START_ERR1E
 .progmem.data._ZN9UIStrings7Program11ProgramMenu12START_FAILEDE
                0x00000000000008c4       0x15 CMakeFiles/BrewTroller-OT_DX1_RIMSDF.elf.dir/UIStrings.cpp.obj
                0x00000000000008c4                _ZN9UIStrings7Program11ProgramMenu12START_FAILEDE
 .progmem.data._ZN9UIStrings7Program11ProgramMenu11DELAY_STARTE
                0x00000000000008d9        0xc CMakeFiles/BrewTroller-OT_DX1_RIMSDF.elf.dir/UIStrings.cpp.obj
                0x00000000000008d9                _ZN9UIStrings7Program11ProgramMenu11DELAY_STARTE
 .progmem.data._ZN9UIStrings7Program11ProgramMenu5STARTE
                0x00000000000008e5        0x6 CMakeFiles/BrewTroller-OT_DX1_RIMSDF.elf.dir/UIStrings.cpp.obj
                0x00000000000008e5                _ZN9UIStrings7Program11ProgramMenu5STARTE
 .progmem.data._ZN9UIStrings7Program11ProgramMenu10GRAIN_TEMPE
                0x00000000000008eb        0xb CMakeFiles/BrewTroller-OT_DX1_RIMSDF.elf.dir/UIStrings.cpp.obj
                0x00000000000008eb                _ZN9UIStrings7Program11ProgramMenu10GRAIN_TEMPE
 .progmem.data._ZN9UIStrings7Program11ProgramMenu9EDIT_PROGE
                0x00000000000008f6        0xd CMakeFiles/BrewTroller-OT_DX1_RIMSDF.elf.dir/UIStrings.cpp.obj
                0x00000000000008f6                _ZN9UIStrings7Program11ProgramMenu9EDIT_PROGE
 .progmem.data._ZN9UIStrings7Program11ProgramMenu9PROG_NAMEE
                0x0000000000000903        0xe CMakeFiles/BrewTroller-OT_DX1_RIMSDF.elf.dir/UIStrings.cpp.obj
                0x0000000000000903                _ZN9UIStrings7Program11ProgramMenu9PROG_NAMEE
 .progmem.data._ZN9UIStrings8BoilMenu10BOIL_TIMERE
                0x0000000000000911        0xb CMakeFiles/BrewTroller-OT_DX1_RIMSDF.elf.dir/UIStrings.cpp.obj
                0x0000000000000911                _ZN9UIStrings8BoilMenu10BOIL_TIMERE
 .progmem.data._ZN9UIStrings8BoilMenu10BOIL_POWERE
                0x000000000000091c        0xb CMakeFiles/BrewTroller-OT_DX1_RIMSDF.elf.dir/UIStrings.cpp.obj
                0x000000000000091c                _ZN9UIStrings8BoilMenu10BOIL_POWERE
 .progmem.data._ZN9UIStrings8BoilMenu9BOIL_TEMPE
                0x0000000000000927        0xa CMakeFiles/BrewTroller-OT_DX1_RIMSDF.elf.dir/UIStrings.cpp.obj
                0x0000000000000927                _ZN9UIStrings8BoilMenu9BOIL_TEMPE
 .progmem.data._ZN9UIStrings8BoilMenu9BOIL_CTRLE
                0x0000000000000931        0xc CMakeFiles/BrewTroller-OT_DX1_RIMSDF.elf.dir/UIStrings.cpp.obj
                0x0000000000000931                _ZN9UIStrings8BoilMenu9BOIL_CTRLE
 .progmem.data._ZN9UIStrings10SpargeMenu17KETTLE_TARGET_VOLE
                0x000000000000093d       0x12 CMakeFiles/BrewTroller-OT_DX1_RIMSDF.elf.dir/UIStrings.cpp.obj
                0x000000000000093d                _ZN9UIStrings10SpargeMenu17KETTLE_TARGET_VOLE
 .progmem.data._ZN9UIStrings10SpargeMenu13KETTLE_TARGETE
                0x000000000000094f        0xe CMakeFiles/BrewTroller-OT_DX1_RIMSDF.elf.dir/UIStrings.cpp.obj
                0x000000000000094f                _ZN9UIStrings10SpargeMenu13KETTLE_TARGETE
 .progmem.data._ZN9UIStrings10SpargeMenu8AUTO_FLYE
                0x000000000000095d        0x9 CMakeFiles/BrewTroller-OT_DX1_RIMSDF.elf.dir/UIStrings.cpp.obj
                0x000000000000095d                _ZN9UIStrings10SpargeMenu8AUTO_FLYE
 .progmem.data._ZN9UIStrings10SpargeMenu8AUTO_OUTE
                0x0000000000000966        0x9 CMakeFiles/BrewTroller-OT_DX1_RIMSDF.elf.dir/UIStrings.cpp.obj
                0x0000000000000966                _ZN9UIStrings10SpargeMenu8AUTO_OUTE
 .progmem.data._ZN9UIStrings10SpargeMenu7AUTO_INE
                0x000000000000096f        0x8 CMakeFiles/BrewTroller-OT_DX1_RIMSDF.elf.dir/UIStrings.cpp.obj
                0x000000000000096f                _ZN9UIStrings10SpargeMenu7AUTO_INE
 .progmem.data._ZN9UIStrings8MashMenu10MASH_TIMERE
                0x0000000000000977        0xb CMakeFiles/BrewTroller-OT_DX1_RIMSDF.elf.dir/UIStrings.cpp.obj
                0x0000000000000977                _ZN9UIStrings8MashMenu10MASH_TIMERE
 .progmem.data._ZN9UIStrings8MashMenu13MASH_SETPOINTE
                0x0000000000000982        0xe CMakeFiles/BrewTroller-OT_DX1_RIMSDF.elf.dir/UIStrings.cpp.obj
                0x0000000000000982                _ZN9UIStrings8MashMenu13MASH_SETPOINTE
 .progmem.data._ZN9UIStrings8FillMenu15MASH_TARGET_VOLE
                0x0000000000000990       0x10 CMakeFiles/BrewTroller-OT_DX1_RIMSDF.elf.dir/UIStrings.cpp.obj
                0x0000000000000990                _ZN9UIStrings8FillMenu15MASH_TARGET_VOLE
 .progmem.data._ZN9UIStrings8FillMenu11MASH_TARGETE
                0x00000000000009a0        0xc CMakeFiles/BrewTroller-OT_DX1_RIMSDF.elf.dir/UIStrings.cpp.obj
                0x00000000000009a0                _ZN9UIStrings8FillMenu11MASH_TARGETE
 .progmem.data._ZN9UIStrings8FillMenu9AUTO_FILLE
                0x00000000000009ac        0xa CMakeFiles/BrewTroller-OT_DX1_RIMSDF.elf.dir/UIStrings.cpp.obj
                0x00000000000009ac                _ZN9UIStrings8FillMenu9AUTO_FILLE
 .progmem.data._ZN9UIStrings8MainMenu10DRAIN_ERR3E
                0x00000000000009b6        0xa CMakeFiles/BrewTroller-OT_DX1_RIMSDF.elf.dir/UIStrings.cpp.obj
                0x00000000000009b6                _ZN9UIStrings8MainMenu10DRAIN_ERR3E
 .progmem.data._ZN9UIStrings8MainMenu10DRAIN_ERR2E
                0x00000000000009c0       0x12 CMakeFiles/BrewTroller-OT_DX1_RIMSDF.elf.dir/UIStrings.cpp.obj
                0x00000000000009c0                _ZN9UIStrings8MainMenu10DRAIN_ERR2E
 .progmem.data._ZN9UIStrings8MainMenu10DRAIN_ERR1E
                0x00000000000009d2       0x13 CMakeFiles/BrewTroller-OT_DX1_RIMSDF.elf.dir/UIStrings.cpp.obj
                0x00000000000009d2                _ZN9UIStrings8MainMenu10DRAIN_ERR1E
 .progmem.data._ZN9UIStrings8MainMenu12SYSTEM_SETUPE
                0x00000000000009e5        0xd CMakeFiles/BrewTroller-OT_DX1_RIMSDF.elf.dir/UIStrings.cpp.obj
                0x00000000000009e5                _ZN9UIStrings8MainMenu12SYSTEM_SETUPE
 .progmem.data._ZN9UIStrings8MainMenu9RESET_ALLE
                0x00000000000009f2        0xa CMakeFiles/BrewTroller-OT_DX1_RIMSDF.elf.dir/UIStrings.cpp.obj
                0x00000000000009f2                _ZN9UIStrings8MainMenu9RESET_ALLE
 .progmem.data._ZN9UIStrings8MainMenu13START_PROGRAME
                0x00000000000009fc        0xe CMakeFiles/BrewTroller-OT_DX1_RIMSDF.elf.dir/UIStrings.cpp.obj
                0x00000000000009fc                _ZN9UIStrings8MainMenu13START_PROGRAME
 .progmem.data._ZN9UIStrings8MainMenu12EDIT_PROGRAME
                0x0000000000000a0a        0xd CMakeFiles/BrewTroller-OT_DX1_RIMSDF.elf.dir/UIStrings.cpp.obj
                0x0000000000000a0a                _ZN9UIStrings8MainMenu12EDIT_PROGRAME
 .progmem.data._ZN9UIStrings9AUXScreen9AUX_THREEE
                0x0000000000000a17        0x5 CMakeFiles/BrewTroller-OT_DX1_RIMSDF.elf.dir/UIStrings.cpp.obj
                0x0000000000000a17                _ZN9UIStrings9AUXScreen9AUX_THREEE
 .progmem.data._ZN9UIStrings9AUXScreen7AUX_TWOE
                0x0000000000000a1c        0x5 CMakeFiles/BrewTroller-OT_DX1_RIMSDF.elf.dir/UIStrings.cpp.obj
                0x0000000000000a1c                _ZN9UIStrings9AUXScreen7AUX_TWOE
 .progmem.data._ZN9UIStrings9AUXScreen7AUX_ONEE
                0x0000000000000a21        0x5 CMakeFiles/BrewTroller-OT_DX1_RIMSDF.elf.dir/UIStrings.cpp.obj
                0x0000000000000a21                _ZN9UIStrings9AUXScreen7AUX_ONEE
 .progmem.data._ZN9UIStrings9AUXScreen9AUX_TEMPSE
                0x0000000000000a26        0xa CMakeFiles/BrewTroller-OT_DX1_RIMSDF.elf.dir/UIStrings.cpp.obj
                0x0000000000000a26                _ZN9UIStrings9AUXScreen9AUX_TEMPSE
 .progmem.data._ZN9UIStrings11ChillScreen10CHILL_BOTHE
                0x0000000000000a30        0xb CMakeFiles/BrewTroller-OT_DX1_RIMSDF.elf.dir/UIStrings.cpp.obj
                0x0000000000000a30                _ZN9UIStrings11ChillScreen10CHILL_BOTHE
 .progmem.data._ZN9UIStrings11ChillScreen3OUTE
                0x0000000000000a3b        0x4 CMakeFiles/BrewTroller-OT_DX1_RIMSDF.elf.dir/UIStrings.cpp.obj
                0x0000000000000a3b                _ZN9UIStrings11ChillScreen3OUTE
 .progmem.data._ZN9UIStrings11ChillScreen2INE
                0x0000000000000a3f        0x3 CMakeFiles/BrewTroller-OT_DX1_RIMSDF.elf.dir/UIStrings.cpp.obj
                0x0000000000000a3f                _ZN9UIStrings11ChillScreen2INE
 .progmem.data._ZN9UIStrings11ChillScreen3H20E
                0x0000000000000a42        0x4 CMakeFiles/BrewTroller-OT_DX1_RIMSDF.elf.dir/UIStrings.cpp.obj
                0x0000000000000a42                _ZN9UIStrings11ChillScreen3H20E
 .progmem.data._ZN9UIStrings11ChillScreen4BEERE
                0x0000000000000a46        0x5 CMakeFiles/BrewTroller-OT_DX1_RIMSDF.elf.dir/UIStrings.cpp.obj
                0x0000000000000a46                _ZN9UIStrings11ChillScreen4BEERE
 .progmem.data._ZN9UIStrings11ChillScreen5CHILLE
                0x0000000000000a4b        0x6 CMakeFiles/BrewTroller-OT_DX1_RIMSDF.elf.dir/UIStrings.cpp.obj
                0x0000000000000a4b                _ZN9UIStrings11ChillScreen5CHILLE
 .progmem.data._ZN9UIStrings10BoilScreen9BOIL_AUTOE
                0x0000000000000a51        0x7 CMakeFiles/BrewTroller-OT_DX1_RIMSDF.elf.dir/UIStrings.cpp.obj
                0x0000000000000a51                _ZN9UIStrings10BoilScreen9BOIL_AUTOE
 .progmem.data._ZN9UIStrings10BoilScreen4BOILE
                0x0000000000000a58        0x5 CMakeFiles/BrewTroller-OT_DX1_RIMSDF.elf.dir/UIStrings.cpp.obj
                0x0000000000000a58                _ZN9UIStrings10BoilScreen4BOILE
 .progmem.data._ZN9UIStrings12SpargeScreen9FLYSPARGEE
                0x0000000000000a5d        0xb CMakeFiles/BrewTroller-OT_DX1_RIMSDF.elf.dir/UIStrings.cpp.obj
                0x0000000000000a5d                _ZN9UIStrings12SpargeScreen9FLYSPARGEE
 .progmem.data._ZN9UIStrings12SpargeScreen8FILLBOTHE
                0x0000000000000a68        0xa CMakeFiles/BrewTroller-OT_DX1_RIMSDF.elf.dir/UIStrings.cpp.obj
                0x0000000000000a68                _ZN9UIStrings12SpargeScreen8FILLBOTHE
 .progmem.data._ZN9UIStrings12SpargeScreen6SPARGEE
                0x0000000000000a72        0x7 CMakeFiles/BrewTroller-OT_DX1_RIMSDF.elf.dir/UIStrings.cpp.obj
                0x0000000000000a72                _ZN9UIStrings12SpargeScreen6SPARGEE
 .progmem.data._ZN9UIStrings8MashStep7ENDMASHE
                0x0000000000000a79        0x9 CMakeFiles/BrewTroller-OT_DX1_RIMSDF.elf.dir/UIStrings.cpp.obj
                0x0000000000000a79                _ZN9UIStrings8MashStep7ENDMASHE
 .progmem.data._ZN9UIStrings8MashStep7MASHOUTE
                0x0000000000000a82        0x9 CMakeFiles/BrewTroller-OT_DX1_RIMSDF.elf.dir/UIStrings.cpp.obj
                0x0000000000000a82                _ZN9UIStrings8MashStep7MASHOUTE
 .progmem.data._ZN9UIStrings8MashStep6SACCH2E
                0x0000000000000a8b        0x7 CMakeFiles/BrewTroller-OT_DX1_RIMSDF.elf.dir/UIStrings.cpp.obj
                0x0000000000000a8b                _ZN9UIStrings8MashStep6SACCH2E
 .progmem.data._ZN9UIStrings8MashStep5SACCHE
                0x0000000000000a92        0x6 CMakeFiles/BrewTroller-OT_DX1_RIMSDF.elf.dir/UIStrings.cpp.obj
                0x0000000000000a92                _ZN9UIStrings8MashStep5SACCHE
 .progmem.data._ZN9UIStrings8MashStep7PROTEINE
                0x0000000000000a98        0x8 CMakeFiles/BrewTroller-OT_DX1_RIMSDF.elf.dir/UIStrings.cpp.obj
                0x0000000000000a98                _ZN9UIStrings8MashStep7PROTEINE
 .progmem.data._ZN9UIStrings8MashStep4ACIDE
                0x0000000000000aa0        0x5 CMakeFiles/BrewTroller-OT_DX1_RIMSDF.elf.dir/UIStrings.cpp.obj
                0x0000000000000aa0                _ZN9UIStrings8MashStep4ACIDE
 .progmem.data._ZN9UIStrings8MashStep7DOUGHINE
                0x0000000000000aa5        0x9 CMakeFiles/BrewTroller-OT_DX1_RIMSDF.elf.dir/UIStrings.cpp.obj
                0x0000000000000aa5                _ZN9UIStrings8MashStep7DOUGHINE
 .progmem.data._ZN9UIStrings8MashStep7PREHEATE
                0x0000000000000aae        0x8 CMakeFiles/BrewTroller-OT_DX1_RIMSDF.elf.dir/UIStrings.cpp.obj
                0x0000000000000aae                _ZN9UIStrings8MashStep7PREHEATE
 .progmem.data._ZN9UIStrings8MashStep5DELAYE
                0x0000000000000ab6        0x6 CMakeFiles/BrewTroller-OT_DX1_RIMSDF.elf.dir/UIStrings.cpp.obj
                0x0000000000000ab6                _ZN9UIStrings8MashStep5DELAYE
 .progmem.data._ZN9UIStrings13GrainInScreen7GRAININE
                0x0000000000000abc        0x9 CMakeFiles/BrewTroller-OT_DX1_RIMSDF.elf.dir/UIStrings.cpp.obj
                0x0000000000000abc                _ZN9UIStrings13GrainInScreen7GRAININE
 .progmem.data._ZN9UIStrings12ValveProfile5USER3E
                0x0000000000000ac5        0xd CMakeFiles/BrewTroller-OT_DX1_RIMSDF.elf.dir/UIStrings.cpp.obj
                0x0000000000000ac5                _ZN9UIStrings12ValveProfile5USER3E
 .progmem.data._ZN9UIStrings12ValveProfile5USER2E
                0x0000000000000ad2        0xd CMakeFiles/BrewTroller-OT_DX1_RIMSDF.elf.dir/UIStrings.cpp.obj
                0x0000000000000ad2                _ZN9UIStrings12ValveProfile5USER2E
 .progmem.data._ZN9UIStrings12ValveProfile5USER1E
                0x0000000000000adf        0xd CMakeFiles/BrewTroller-OT_DX1_RIMSDF.elf.dir/UIStrings.cpp.obj
                0x0000000000000adf                _ZN9UIStrings12ValveProfile5USER1E
 .progmem.data._ZN9UIStrings12ValveProfile10KETTLEIDLEE
                0x0000000000000aec        0xc CMakeFiles/BrewTroller-OT_DX1_RIMSDF.elf.dir/UIStrings.cpp.obj
                0x0000000000000aec                _ZN9UIStrings12ValveProfile10KETTLEIDLEE
 .progmem.data._ZN9UIStrings12ValveProfile10KETTLEHEATE
                0x0000000000000af8        0xc CMakeFiles/BrewTroller-OT_DX1_RIMSDF.elf.dir/UIStrings.cpp.obj
                0x0000000000000af8                _ZN9UIStrings12ValveProfile10KETTLEHEATE
 .progmem.data._ZN9UIStrings12ValveProfile7HLTIDLEE
                0x0000000000000b04        0x9 CMakeFiles/BrewTroller-OT_DX1_RIMSDF.elf.dir/UIStrings.cpp.obj
                0x0000000000000b04                _ZN9UIStrings12ValveProfile7HLTIDLEE
 .progmem.data._ZN9UIStrings12ValveProfile7HLTHEATE
                0x0000000000000b0d        0x9 CMakeFiles/BrewTroller-OT_DX1_RIMSDF.elf.dir/UIStrings.cpp.obj
                0x0000000000000b0d                _ZN9UIStrings12ValveProfile7HLTHEATE
 .progmem.data._ZN9UIStrings12ValveProfile5DRAINE
                0x0000000000000b16        0x6 CMakeFiles/BrewTroller-OT_DX1_RIMSDF.elf.dir/UIStrings.cpp.obj
                0x0000000000000b16                _ZN9UIStrings12ValveProfile5DRAINE
 .progmem.data._ZN9UIStrings12ValveProfile10BOILRECIRCE
                0x0000000000000b1c        0xc CMakeFiles/BrewTroller-OT_DX1_RIMSDF.elf.dir/UIStrings.cpp.obj
                0x0000000000000b1c                _ZN9UIStrings12ValveProfile10BOILRECIRCE
 .progmem.data._ZN9UIStrings12ValveProfile9CHILLBEERE
                0x0000000000000b28        0xb CMakeFiles/BrewTroller-OT_DX1_RIMSDF.elf.dir/UIStrings.cpp.obj
                0x0000000000000b28                _ZN9UIStrings12ValveProfile9CHILLBEERE
 .progmem.data._ZN9UIStrings12ValveProfile8CHILLH2OE
                0x0000000000000b33        0xa CMakeFiles/BrewTroller-OT_DX1_RIMSDF.elf.dir/UIStrings.cpp.obj
                0x0000000000000b33                _ZN9UIStrings12ValveProfile8CHILLH2OE
 .progmem.data._ZN9UIStrings12ValveProfile9KETTLELIDE
                0x0000000000000b3d        0xb CMakeFiles/BrewTroller-OT_DX1_RIMSDF.elf.dir/UIStrings.cpp.obj
                0x0000000000000b3d                _ZN9UIStrings12ValveProfile9KETTLELIDE
 .progmem.data._ZN9UIStrings12ValveProfile8BOILADDSE
                0x0000000000000b48        0xf CMakeFiles/BrewTroller-OT_DX1_RIMSDF.elf.dir/UIStrings.cpp.obj
                0x0000000000000b48                _ZN9UIStrings12ValveProfile8BOILADDSE
 .progmem.data._ZN9UIStrings12ValveProfile9SPARGEOUTE
                0x0000000000000b57        0xb CMakeFiles/BrewTroller-OT_DX1_RIMSDF.elf.dir/UIStrings.cpp.obj
                0x0000000000000b57                _ZN9UIStrings12ValveProfile9SPARGEOUTE
 .progmem.data._ZN9UIStrings12ValveProfile8SPARGEINE
                0x0000000000000b62        0xa CMakeFiles/BrewTroller-OT_DX1_RIMSDF.elf.dir/UIStrings.cpp.obj
                0x0000000000000b62                _ZN9UIStrings12ValveProfile8SPARGEINE
 .progmem.data._ZN9UIStrings12ValveProfile8MASHIDLEE
                0x0000000000000b6c        0xa CMakeFiles/BrewTroller-OT_DX1_RIMSDF.elf.dir/UIStrings.cpp.obj
                0x0000000000000b6c                _ZN9UIStrings12ValveProfile8MASHIDLEE
 .progmem.data._ZN9UIStrings12ValveProfile8MASHHEATE
                0x0000000000000b76        0xa CMakeFiles/BrewTroller-OT_DX1_RIMSDF.elf.dir/UIStrings.cpp.obj
                0x0000000000000b76                _ZN9UIStrings12ValveProfile8MASHHEATE
 .progmem.data._ZN9UIStrings12ValveProfile8ADDGRAINE
                0x0000000000000b80        0xa CMakeFiles/BrewTroller-OT_DX1_RIMSDF.elf.dir/UIStrings.cpp.obj
                0x0000000000000b80                _ZN9UIStrings12ValveProfile8ADDGRAINE
 .progmem.data._ZN9UIStrings12ValveProfile8FILLMASHE
                0x0000000000000b8a        0xa CMakeFiles/BrewTroller-OT_DX1_RIMSDF.elf.dir/UIStrings.cpp.obj
                0x0000000000000b8a                _ZN9UIStrings12ValveProfile8FILLMASHE
 .progmem.data._ZN9UIStrings12ValveProfile7FILLHLTE
                0x0000000000000b94        0x9 CMakeFiles/BrewTroller-OT_DX1_RIMSDF.elf.dir/UIStrings.cpp.obj
                0x0000000000000b94                _ZN9UIStrings12ValveProfile7FILLHLTE
 .progmem.data._ZN9UIStrings10FillScreen6REFILLE
                0x0000000000000b9d        0x7 CMakeFiles/BrewTroller-OT_DX1_RIMSDF.elf.dir/UIStrings.cpp.obj
                0x0000000000000b9d                _ZN9UIStrings10FillScreen6REFILLE
 .progmem.data._ZN9UIStrings10FillScreen4FILLE
                0x0000000000000ba4        0x5 CMakeFiles/BrewTroller-OT_DX1_RIMSDF.elf.dir/UIStrings.cpp.obj
                0x0000000000000ba4                _ZN9UIStrings10FillScreen4FILLE
 .progmem.data._ZN9UIStrings10HomeScreen6BT_URLE
                0x0000000000000ba9       0x14 CMakeFiles/BrewTroller-OT_DX1_RIMSDF.elf.dir/UIStrings.cpp.obj
                0x0000000000000ba9                _ZN9UIStrings10HomeScreen6BT_URLE
 .progmem.data._ZN9UIStrings10EEPROMInit11PLEASE_WAITE
                0x0000000000000bbd        0xf CMakeFiles/BrewTroller-OT_DX1_RIMSDF.elf.dir/UIStrings.cpp.obj
                0x0000000000000bbd                _ZN9UIStrings10EEPROMInit11PLEASE_WAITE
 .progmem.data._ZN9UIStrings10EEPROMInit11INIT_EEPROME
                0x0000000000000bcc       0x12 CMakeFiles/BrewTroller-OT_DX1_RIMSDF.elf.dir/UIStrings.cpp.obj
                0x0000000000000bcc                _ZN9UIStrings10EEPROMInit11INIT_EEPROME
 .progmem.data._ZN9UIStrings10EEPROMInit14MISSING_CONFIGE
                0x0000000000000bde        0xf CMakeFiles/BrewTroller-OT_DX1_RIMSDF.elf.dir/UIStrings.cpp.obj
                0x0000000000000bde                _ZN9UIStrings10EEPROMInit14MISSING_CONFIGE
 .progmem.data._ZN9UIStrings6Shared6DELETEE
                0x0000000000000bed        0x7 CMakeFiles/BrewTroller-OT_DX1_RIMSDF.elf.dir/UIStrings.cpp.obj
                0x0000000000000bed                _ZN9UIStrings6Shared6DELETEE
 .progmem.data._ZN9UIStrings6Shared4ZEROE
                0x0000000000000bf4        0x2 CMakeFiles/BrewTroller-OT_DX1_RIMSDF.elf.dir/UIStrings.cpp.obj
                0x0000000000000bf4                _ZN9UIStrings6Shared4ZEROE
 .progmem.data._ZN9UIStrings6Shared3SECE
                0x0000000000000bf6        0x2 CMakeFiles/BrewTroller-OT_DX1_RIMSDF.elf.dir/UIStrings.cpp.obj
                0x0000000000000bf6                _ZN9UIStrings6Shared3SECE
 .progmem.data._ZN9UIStrings6Shared8MASHDESCE
                0x0000000000000bf8        0x9 CMakeFiles/BrewTroller-OT_DX1_RIMSDF.elf.dir/UIStrings.cpp.obj
                0x0000000000000bf8                _ZN9UIStrings6Shared8MASHDESCE
 .progmem.data._ZN9UIStrings6Shared7HLTDESCE
                0x0000000000000c01       0x10 CMakeFiles/BrewTroller-OT_DX1_RIMSDF.elf.dir/UIStrings.cpp.obj
                0x0000000000000c01                _ZN9UIStrings6Shared7HLTDESCE
 .progmem.data._ZN9UIStrings6Shared12HLT_SETPOINTE
                0x0000000000000c11        0xd CMakeFiles/BrewTroller-OT_DX1_RIMSDF.elf.dir/UIStrings.cpp.obj
                0x0000000000000c11                _ZN9UIStrings6Shared12HLT_SETPOINTE
 .progmem.data._ZN9UIStrings6Shared9VALVE_OFFE
                0x0000000000000c1e        0x6 CMakeFiles/BrewTroller-OT_DX1_RIMSDF.elf.dir/UIStrings.cpp.obj
                0x0000000000000c1e                _ZN9UIStrings6Shared9VALVE_OFFE
 .progmem.data._ZN9UIStrings6Shared8VALVE_ONE
                0x0000000000000c24        0x5 CMakeFiles/BrewTroller-OT_DX1_RIMSDF.elf.dir/UIStrings.cpp.obj
                0x0000000000000c24                _ZN9UIStrings6Shared8VALVE_ONE
 .progmem.data._ZN9UIStrings6Shared14HLT_TARGET_VOLE
                0x0000000000000c29        0xf CMakeFiles/BrewTroller-OT_DX1_RIMSDF.elf.dir/UIStrings.cpp.obj
                0x0000000000000c29                _ZN9UIStrings6Shared14HLT_TARGET_VOLE
 .progmem.data._ZN9UIStrings6Shared10HLT_TARGETE
                0x0000000000000c38        0xb CMakeFiles/BrewTroller-OT_DX1_RIMSDF.elf.dir/UIStrings.cpp.obj
                0x0000000000000c38                _ZN9UIStrings6Shared10HLT_TARGETE
 .progmem.data._ZN9UIStrings6Shared6ALLOFFE
                0x0000000000000c43        0x8 CMakeFiles/BrewTroller-OT_DX1_RIMSDF.elf.dir/UIStrings.cpp.obj
                0x0000000000000c43                _ZN9UIStrings6Shared6ALLOFFE
 .progmem.data._ZN9UIStrings7Generic5EMPTYE
                0x0000000000000c4b        0x1 CMakeFiles/BrewTroller-OT_DX1_RIMSDF.elf.dir/UIStrings.cpp.obj
                0x0000000000000c4b                _ZN9UIStrings7Generic5EMPTYE
 .progmem.data._ZN9UIStrings7Generic8PERC_SYME
                0x0000000000000c4c        0x2 CMakeFiles/BrewTroller-OT_DX1_RIMSDF.elf.dir/UIStrings.cpp.obj
                0x0000000000000c4c                _ZN9UIStrings7Generic8PERC_SYME
 .progmem.data._ZN9UIStrings7Generic11COLON_SPACEE
                0x0000000000000c4e        0x3 CMakeFiles/BrewTroller-OT_DX1_RIMSDF.elf.dir/UIStrings.cpp.obj
                0x0000000000000c4e                _ZN9UIStrings7Generic11COLON_SPACEE
 .progmem.data._ZN9UIStrings7Generic11START_TIMERE
                0x0000000000000c51        0xc CMakeFiles/BrewTroller-OT_DX1_RIMSDF.elf.dir/UIStrings.cpp.obj
                0x0000000000000c51                _ZN9UIStrings7Generic11START_TIMERE
 .progmem.data._ZN9UIStrings7Generic11PAUSE_TIMERE
                0x0000000000000c5d        0xc CMakeFiles/BrewTroller-OT_DX1_RIMSDF.elf.dir/UIStrings.cpp.obj
                0x0000000000000c5d                _ZN9UIStrings7Generic11PAUSE_TIMERE
 .progmem.data._ZN9UIStrings7Generic9SET_TIMERE
                0x0000000000000c69        0xa CMakeFiles/BrewTroller-OT_DX1_RIMSDF.elf.dir/UIStrings.cpp.obj
                0x0000000000000c69                _ZN9UIStrings7Generic9SET_TIMERE
 .progmem.data._ZN9UIStrings7Generic6MANUALE
                0x0000000000000c73        0x7 CMakeFiles/BrewTroller-OT_DX1_RIMSDF.elf.dir/UIStrings.cpp.obj
                0x0000000000000c73                _ZN9UIStrings7Generic6MANUALE
 .progmem.data._ZN9UIStrings7Generic4AUTOE
                0x0000000000000c7a        0x5 CMakeFiles/BrewTroller-OT_DX1_RIMSDF.elf.dir/UIStrings.cpp.obj
                0x0000000000000c7a                _ZN9UIStrings7Generic4AUTOE
 .progmem.data._ZN9UIStrings7Generic8VOLBLANKE
                0x0000000000000c7f        0x7 CMakeFiles/BrewTroller-OT_DX1_RIMSDF.elf.dir/UIStrings.cpp.obj
                0x0000000000000c7f                _ZN9UIStrings7Generic8VOLBLANKE
 .progmem.data._ZN9UIStrings7Generic9TEMPBLANKE
                0x0000000000000c86        0x5 CMakeFiles/BrewTroller-OT_DX1_RIMSDF.elf.dir/UIStrings.cpp.obj
                0x0000000000000c86                _ZN9UIStrings7Generic9TEMPBLANKE
 .progmem.data._ZN9UIStrings7Generic3OFFE
                0x0000000000000c8b        0x4 CMakeFiles/BrewTroller-OT_DX1_RIMSDF.elf.dir/UIStrings.cpp.obj
                0x0000000000000c8b                _ZN9UIStrings7Generic3OFFE
 .progmem.data._ZN9UIStrings7Generic2ONE
                0x0000000000000c8f        0x3 CMakeFiles/BrewTroller-OT_DX1_RIMSDF.elf.dir/UIStrings.cpp.obj
                0x0000000000000c8f                _ZN9UIStrings7Generic2ONE
 .progmem.data._ZN9UIStrings7Generic5COLONE
                0x0000000000000c92        0x2 CMakeFiles/BrewTroller-OT_DX1_RIMSDF.elf.dir/UIStrings.cpp.obj
                0x0000000000000c92                _ZN9UIStrings7Generic5COLONE
 .progmem.data._ZN9UIStrings7Generic8LESS_SYME
                0x0000000000000c94        0x2 CMakeFiles/BrewTroller-OT_DX1_RIMSDF.elf.dir/UIStrings.cpp.obj
                0x0000000000000c94                _ZN9UIStrings7Generic8LESS_SYME
 .progmem.data._ZN9UIStrings7Generic11GREATER_SYME
                0x0000000000000c96        0x2 CMakeFiles/BrewTroller-OT_DX1_RIMSDF.elf.dir/UIStrings.cpp.obj
                0x0000000000000c96                _ZN9UIStrings7Generic11GREATER_SYME
 .progmem.data._ZN9UIStrings7Generic6ACTUALE
                0x0000000000000c98        0x7 CMakeFiles/BrewTroller-OT_DX1_RIMSDF.elf.dir/UIStrings.cpp.obj
                0x0000000000000c98                _ZN9UIStrings7Generic6ACTUALE
 .progmem.data._ZN9UIStrings7Generic6TARGETE
                0x0000000000000c9f        0x7 CMakeFiles/BrewTroller-OT_DX1_RIMSDF.elf.dir/UIStrings.cpp.obj
                0x0000000000000c9f                _ZN9UIStrings7Generic6TARGETE
 .progmem.data._ZN9UIStrings7Generic8CONTINUEE
                0x0000000000000ca6        0x9 CMakeFiles/BrewTroller-OT_DX1_RIMSDF.elf.dir/UIStrings.cpp.obj
                0x0000000000000ca6                _ZN9UIStrings7Generic8CONTINUEE
 .progmem.data._ZN9UIStrings7Generic5SPACEE
                0x0000000000000caf        0x2 CMakeFiles/BrewTroller-OT_DX1_RIMSDF.elf.dir/UIStrings.cpp.obj
                0x0000000000000caf                _ZN9UIStrings7Generic5SPACEE
 .progmem.data._ZN9UIStrings7Generic4MENUE
                0x0000000000000cb1        0x5 CMakeFiles/BrewTroller-OT_DX1_RIMSDF.elf.dir/UIStrings.cpp.obj
                0x0000000000000cb1                _ZN9UIStrings7Generic4MENUE
 .progmem.data._ZN9UIStrings7Generic5ABORTE
                0x0000000000000cb6        0x6 CMakeFiles/BrewTroller-OT_DX1_RIMSDF.elf.dir/UIStrings.cpp.obj
                0x0000000000000cb6                _ZN9UIStrings7Generic5ABORTE
 .progmem.data._ZN9UIStrings7Generic4EXITE
                0x0000000000000cbc        0x5 CMakeFiles/BrewTroller-OT_DX1_RIMSDF.elf.dir/UIStrings.cpp.obj
                0x0000000000000cbc                _ZN9UIStrings7Generic4EXITE
 .progmem.data._ZN9UIStrings7Generic6CANCELE
                0x0000000000000cc1        0x7 CMakeFiles/BrewTroller-OT_DX1_RIMSDF.elf.dir/UIStrings.cpp.obj
                0x0000000000000cc1                _ZN9UIStrings7Generic6CANCELE
 .progmem.data._ZN9UIStrings7Generic2OKE
                0x0000000000000cc8        0x3 CMakeFiles/BrewTroller-OT_DX1_RIMSDF.elf.dir/UIStrings.cpp.obj
                0x0000000000000cc8                _ZN9UIStrings7Generic2OKE
 .progmem.data._ZN9UIStrings7Generic5BTVERE
                0x0000000000000ccb        0xa CMakeFiles/BrewTroller-OT_DX1_RIMSDF.elf.dir/UIStrings.cpp.obj
                0x0000000000000ccb                _ZN9UIStrings7Generic5BTVERE
 .progmem.data._ZN9UIStrings7Generic2BTE
                0x0000000000000cd5        0xc CMakeFiles/BrewTroller-OT_DX1_RIMSDF.elf.dir/UIStrings.cpp.obj
                0x0000000000000cd5                _ZN9UIStrings7Generic2BTE
 .progmem.data.digital_pin_to_timer_PGM
                0x0000000000000ce1       0x20 ../lib/libBT-libs.a(wiring_digital.c.obj)
                0x0000000000000ce1                digital_pin_to_timer_PGM
 .progmem.data.digital_pin_to_bit_mask_PGM
                0x0000000000000d01       0x20 ../lib/libBT-libs.a(wiring_digital.c.obj)
                0x0000000000000d01                digital_pin_to_bit_mask_PGM
 .progmem.data.digital_pin_to_port_PGM
                0x0000000000000d21       0x20 ../lib/libBT-libs.a(wiring_digital.c.obj)
                0x0000000000000d21                digital_pin_to_port_PGM
 .progmem.data.port_to_input_PGM
                0x0000000000000d41        0xa ../lib/libBT-libs.a(wiring_digital.c.obj)
                0x0000000000000d41                port_to_input_PGM
 .progmem.data.port_to_output_PGM
                0x0000000000000d4b        0xa ../lib/libBT-libs.a(wiring_digital.c.obj)
                0x0000000000000d4b                port_to_output_PGM
 .progmem.data.port_to_mode_PGM
                0x0000000000000d55        0xa ../lib/libBT-libs.a(wiring_digital.c.obj)
                0x0000000000000d55                port_to_mode_PGM
 .progmem.data.digitalpin_to_pcint_PGM
                0x0000000000000d5f       0x20 ../lib/libBT-libs.a(pin.cpp.obj)
                0x0000000000000d5f                digitalpin_to_pcint_PGM
                0x0000000000000d80                . = ALIGN (0x2)
 *fill*         0x0000000000000d7f        0x1 
                0x0000000000000d80                __trampolines_start = .
 *(.trampolines)
 .trampolines   0x0000000000000d80        0x0 linker stubs
 *(.trampolines*)
                0x0000000000000d80                __trampolines_end = .
 *(.jumptables)
 *(.jumptables*)
 *(.lowtext)
 *(.lowtext*)
                0x0000000000000d80                __ctors_start = .
 *(.ctors)
 .ctors         0x0000000000000d80        0x2 CMakeFiles/BrewTroller-OT_DX1_RIMSDF.elf.dir/BrewTroller.cpp.obj
 .ctors         0x0000000000000d82        0x2 CMakeFiles/BrewTroller-OT_DX1_RIMSDF.elf.dir/Com.cpp.obj
 .ctors         0x0000000000000d84        0x2 CMakeFiles/BrewTroller-OT_DX1_RIMSDF.elf.dir/Temp.cpp.obj
 .ctors         0x0000000000000d86        0x2 CMakeFiles/BrewTroller-OT_DX1_RIMSDF.elf.dir/Timer.cpp.obj
 .ctors         0x0000000000000d88        0x2 ../lib/libBT-libs.a(HardwareSerial.cpp.obj)
 .ctors         0x0000000000000d8a        0x2 ../lib/libBT-libs.a(Wire.cpp.obj)
 .ctors         0x0000000000000d8c        0x2 ../lib/libBT-libs.a(encoder.cpp.obj)
 .ctors         0x0000000000000d8e        0x2 ../lib/libBT-libs.a(pin.cpp.obj)
 .ctors         0x0000000000000d90        0x2 ../lib/libBT-libs.a(ModbusMaster.cpp.obj)
                0x0000000000000d92                __ctors_end = .
                0x0000000000000d92                __dtors_start = .
 *(.dtors)
 .dtors         0x0000000000000d92        0x2 CMakeFiles/BrewTroller-OT_DX1_RIMSDF.elf.dir/BrewTroller.cpp.obj
                0x0000000000000d94                __dtors_end = .
 SORT(*)(.ctors)
 SORT(*)(.dtors)
 *(.init0)
 .init0         0x0000000000000d94        0x0 /usr/lib/gcc/avr/4.8.2/../../../avr/lib/avr51/crtm1284p.o
                0x0000000000000d94                __init
 *(.init0)
 *(.init1)
 *(.init1)
 *(.init2)
 .init2         0x0000000000000d94        0xc /usr/lib/gcc/avr/4.8.2/../../../avr/lib/avr51/crtm1284p.o
 *(.init2)
 *(.init3)
 *(.init3)
 *(.init4)
 .init4         0x0000000000000da0       0x1a /usr/lib/gcc/avr/4.8.2/avr51/libgcc.a(_copy_data.o)
                0x0000000000000da0                __do_copy_data
 .init4         0x0000000000000dba       0x10 /usr/lib/gcc/avr/4.8.2/avr51/libgcc.a(_clear_bss.o)
                0x0000000000000dba                __do_clear_bss
 *(.init4)
 *(.init5)
 *(.init5)
 *(.init6)
 .init6         0x0000000000000dca       0x20 /usr/lib/gcc/avr/4.8.2/avr51/libgcc.a(_ctors.o)
                0x0000000000000dca                __do_global_ctors
 *(.init6)
 *(.init7)
 *(.init7)
 *(.init8)
 *(.init8)
 *(.init9)
 .init9         0x0000000000000dea        0x6 /usr/lib/gcc/avr/4.8.2/../../../avr/lib/avr51/crtm1284p.o
 *(.init9)
 *(.text)
 .text          0x0000000000000df0        0x2 /usr/lib/gcc/avr/4.8.2/../../../avr/lib/avr51/crtm1284p.o
                0x0000000000000df0                __vector_22
                0x0000000000000df0                __vector_32
                0x0000000000000df0                __vector_34
                0x0000000000000df0                __vector_24
                0x0000000000000df0                __vector_12
                0x0000000000000df0                __bad_interrupt
                0x0000000000000df0                __vector_31
                0x0000000000000df0                __vector_23
                0x0000000000000df0                __vector_30
                0x0000000000000df0                __vector_25
                0x0000000000000df0                __vector_11
                0x0000000000000df0                __vector_13
                0x0000000000000df0                __vector_17
                0x0000000000000df0                __vector_19
                0x0000000000000df0                __vector_27
                0x0000000000000df0                __vector_33
                0x0000000000000df0                __vector_9
                0x0000000000000df0                __vector_15
                0x0000000000000df0                __vector_8
                0x0000000000000df0                __vector_14
                0x0000000000000df0                __vector_10
                0x0000000000000df0                __vector_16
                0x0000000000000df2                . = ALIGN (0x2)
 *(.text.*)
 .text._ZN7TwoWire5writeEi
                0x0000000000000df2       0x10 CMakeFiles/BrewTroller-OT_DX1_RIMSDF.elf.dir/BrewCore.cpp.obj
                0x0000000000000df2                _ZN7TwoWire5writeEi
 .text._Z9heartbeatv
                0x0000000000000e02       0x4c CMakeFiles/BrewTroller-OT_DX1_RIMSDF.elf.dir/BrewCore.cpp.obj
                0x0000000000000e02                _Z9heartbeatv
 .text._ZN6LCDI2C6updateEv
                0x0000000000000e4e       0xe6 CMakeFiles/BrewTroller-OT_DX1_RIMSDF.elf.dir/BrewCore.cpp.obj
                0x0000000000000e4e                _ZN6LCDI2C6updateEv
 .text._Z8brewCorev
                0x0000000000000f34       0x7a CMakeFiles/BrewTroller-OT_DX1_RIMSDF.elf.dir/BrewCore.cpp.obj
                0x0000000000000f34                _Z8brewCorev
 .text.setup    0x0000000000000fae       0xb6 CMakeFiles/BrewTroller-OT_DX1_RIMSDF.elf.dir/BrewTroller.cpp.obj
                0x0000000000000fae                setup
 .text.loop     0x0000000000001064        0x6 CMakeFiles/BrewTroller-OT_DX1_RIMSDF.elf.dir/BrewTroller.cpp.obj
                0x0000000000001064                loop
 .text.startup.main
                0x000000000000106a       0x16 CMakeFiles/BrewTroller-OT_DX1_RIMSDF.elf.dir/BrewTroller.cpp.obj
                0x000000000000106a                main
 .text.startup._GLOBAL__sub_I_softReset
                0x0000000000001080       0x3e CMakeFiles/BrewTroller-OT_DX1_RIMSDF.elf.dir/BrewTroller.cpp.obj
 .text.exit._GLOBAL__sub_D_softReset
                0x00000000000010be        0x8 CMakeFiles/BrewTroller-OT_DX1_RIMSDF.elf.dir/BrewTroller.cpp.obj
 .text._ZN14FlowController9startAutoEv
                0x00000000000010c6        0xa CMakeFiles/BrewTroller-OT_DX1_RIMSDF.elf.dir/Com.cpp.obj
                0x00000000000010c6                _ZN14FlowController9startAutoEv
 .text._Z12printFieldULm
                0x00000000000010d0       0x1c CMakeFiles/BrewTroller-OT_DX1_RIMSDF.elf.dir/Com.cpp.obj
                0x00000000000010d0                _Z12printFieldULm
 .text._Z12printFieldPSPKc
                0x00000000000010ec       0x32 CMakeFiles/BrewTroller-OT_DX1_RIMSDF.elf.dir/Com.cpp.obj
                0x00000000000010ec                _Z12printFieldPSPKc
 .text._Z15logASCIIVersionv
                0x000000000000111e       0x4c CMakeFiles/BrewTroller-OT_DX1_RIMSDF.elf.dir/Com.cpp.obj
                0x000000000000111e                _Z15logASCIIVersionv
 .text._Z7comInitv
                0x000000000000116a       0x1a CMakeFiles/BrewTroller-OT_DX1_RIMSDF.elf.dir/Com.cpp.obj
                0x000000000000116a                _Z7comInitv
 .text._ZN5BTnicC2Ev
                0x0000000000001184       0x14 CMakeFiles/BrewTroller-OT_DX1_RIMSDF.elf.dir/Com.cpp.obj
                0x0000000000001184                _ZN5BTnicC2Ev
                0x0000000000001184                _ZN5BTnicC1Ev
 .text._ZN5BTnic2txEv
                0x0000000000001198       0x32 CMakeFiles/BrewTroller-OT_DX1_RIMSDF.elf.dir/Com.cpp.obj
                0x0000000000001198                _ZN5BTnic2txEv
 .text._ZN5BTnic8getStateEv
                0x00000000000011ca       0x2c CMakeFiles/BrewTroller-OT_DX1_RIMSDF.elf.dir/Com.cpp.obj
                0x00000000000011ca                _ZN5BTnic8getStateEv
 .text._ZN5BTnic8logFieldEPc
                0x00000000000011f6       0x4c CMakeFiles/BrewTroller-OT_DX1_RIMSDF.elf.dir/Com.cpp.obj
                0x00000000000011f6                _ZN5BTnic8logFieldEPc
 .text._ZN5BTnic11logFieldCmdEhi
                0x0000000000001242       0x50 CMakeFiles/BrewTroller-OT_DX1_RIMSDF.elf.dir/Com.cpp.obj
                0x0000000000001242                _ZN5BTnic11logFieldCmdEhi
 .text._ZN5BTnic10logField_PEPKc
                0x0000000000001292       0x54 CMakeFiles/BrewTroller-OT_DX1_RIMSDF.elf.dir/Com.cpp.obj
                0x0000000000001292                _ZN5BTnic10logField_PEPKc
 .text._ZN5BTnic9logFieldIEm
                0x00000000000012e6       0x32 CMakeFiles/BrewTroller-OT_DX1_RIMSDF.elf.dir/Com.cpp.obj
                0x00000000000012e6                _ZN5BTnic9logFieldIEm
 .text._ZN5BTnic10logStepPrgEv
                0x0000000000001318       0x5a CMakeFiles/BrewTroller-OT_DX1_RIMSDF.elf.dir/Com.cpp.obj
                0x0000000000001318                _ZN5BTnic10logStepPrgEv
 .text._ZN5BTnic6logEndEv
                0x0000000000001372       0x3c CMakeFiles/BrewTroller-OT_DX1_RIMSDF.elf.dir/Com.cpp.obj
                0x0000000000001372                _ZN5BTnic6logEndEv
 .text._ZN5BTnic9rejectCmdEh
                0x00000000000013ae       0x6c CMakeFiles/BrewTroller-OT_DX1_RIMSDF.elf.dir/Com.cpp.obj
                0x00000000000013ae                _ZN5BTnic9rejectCmdEh
 .text._ZN5BTnic11getCmdIndexEv
                0x000000000000141a       0xb2 CMakeFiles/BrewTroller-OT_DX1_RIMSDF.elf.dir/Com.cpp.obj
                0x000000000000141a                _ZN5BTnic11getCmdIndexEv
 .text._ZN5BTnic16getCmdParamCountEv
                0x00000000000014cc       0x2a CMakeFiles/BrewTroller-OT_DX1_RIMSDF.elf.dir/Com.cpp.obj
                0x00000000000014cc                _ZN5BTnic16getCmdParamCountEv
 .text._ZN5BTnic11getCmdParamEhPch
                0x00000000000014f6       0x6c CMakeFiles/BrewTroller-OT_DX1_RIMSDF.elf.dir/Com.cpp.obj
                0x00000000000014f6                _ZN5BTnic11getCmdParamEhPch
 .text._ZN5BTnic14getCmdParamNumEh
                0x0000000000001562       0x2e CMakeFiles/BrewTroller-OT_DX1_RIMSDF.elf.dir/Com.cpp.obj
                0x0000000000001562                _ZN5BTnic14getCmdParamNumEh
 .text._ZN5BTnic7execCmdEv
                0x0000000000001590      0xff4 CMakeFiles/BrewTroller-OT_DX1_RIMSDF.elf.dir/Com.cpp.obj
                0x0000000000001590                _ZN5BTnic7execCmdEv
 .text._ZN5BTnic2rxEh
                0x0000000000002584       0x48 CMakeFiles/BrewTroller-OT_DX1_RIMSDF.elf.dir/Com.cpp.obj
                0x0000000000002584                _ZN5BTnic2rxEh
 .text._Z8comEventhi
                0x00000000000025cc        0x2 CMakeFiles/BrewTroller-OT_DX1_RIMSDF.elf.dir/Com.cpp.obj
                0x00000000000025cc                _Z8comEventhi
 .text.startup._GLOBAL__sub_I__Z7comInitv
                0x00000000000025ce       0x10 CMakeFiles/BrewTroller-OT_DX1_RIMSDF.elf.dir/Com.cpp.obj
 .text._Z14updateI2CBTnicv
                0x00000000000025de       0x9c CMakeFiles/BrewTroller-OT_DX1_RIMSDF.elf.dir/Com.cpp.obj
                0x00000000000025de                _Z14updateI2CBTnicv
 .text._Z13updateS0BTnicv
                0x000000000000267a       0x68 CMakeFiles/BrewTroller-OT_DX1_RIMSDF.elf.dir/Com.cpp.obj
                0x000000000000267a                _Z13updateS0BTnicv
 .text._Z9updateComv
                0x00000000000026e2        0x6 CMakeFiles/BrewTroller-OT_DX1_RIMSDF.elf.dir/Com.cpp.obj
                0x00000000000026e2                _Z9updateComv
 .text._ZN5Print5writeEPKc
                0x00000000000026e8       0x2e CMakeFiles/BrewTroller-OT_DX1_RIMSDF.elf.dir/Com_BTPD.cpp.obj
                0x00000000000026e8                _ZN5Print5writeEPKc
 .text._Z12SendTimeBTPDhhhhh
                0x0000000000002716       0xf2 CMakeFiles/BrewTroller-OT_DX1_RIMSDF.elf.dir/Com_BTPD.cpp.obj
                0x0000000000002716                _Z12SendTimeBTPDhhhhh
 .text._Z10sendVsTimehhh
                0x0000000000002808      0x1a8 CMakeFiles/BrewTroller-OT_DX1_RIMSDF.elf.dir/Com_BTPD.cpp.obj
                0x0000000000002808                _Z10sendVsTimehhh
 .text._Z14sendStringBTPDhPKc
                0x00000000000029b0       0x3a CMakeFiles/BrewTroller-OT_DX1_RIMSDF.elf.dir/Com_BTPD.cpp.obj
                0x00000000000029b0                _Z14sendStringBTPDhPKc
 .text._Z14sendFloatsBTPDhff
                0x00000000000029ea       0x72 CMakeFiles/BrewTroller-OT_DX1_RIMSDF.elf.dir/Com_BTPD.cpp.obj
                0x00000000000029ea                _Z14sendFloatsBTPDhff
 .text._Z10sendVsTemphhh
                0x0000000000002a5c       0x64 CMakeFiles/BrewTroller-OT_DX1_RIMSDF.elf.dir/Com_BTPD.cpp.obj
                0x0000000000002a5c                _Z10sendVsTemphhh
 .text._Z14sendVesselTemphP6Vessel
                0x0000000000002ac0       0x56 CMakeFiles/BrewTroller-OT_DX1_RIMSDF.elf.dir/Com_BTPD.cpp.obj
                0x0000000000002ac0                _Z14sendVesselTemphP6Vessel
 .text._Z10updateBTPDv
                0x0000000000002b16       0xc8 CMakeFiles/BrewTroller-OT_DX1_RIMSDF.elf.dir/Com_BTPD.cpp.obj
                0x0000000000002b16                _Z10updateBTPDv
 .text._Z14loadVlvConfigsv
                0x0000000000002bde       0x10 CMakeFiles/BrewTroller-OT_DX1_RIMSDF.elf.dir/EEPROM.cpp.obj
                0x0000000000002bde                _Z14loadVlvConfigsv
 .text._Z13getPIDEnabledh
                0x0000000000002bee       0x22 CMakeFiles/BrewTroller-OT_DX1_RIMSDF.elf.dir/EEPROM.cpp.obj
                0x0000000000002bee                _Z13getPIDEnabledh
 .text._Z7getPIDph
                0x0000000000002c10       0x16 CMakeFiles/BrewTroller-OT_DX1_RIMSDF.elf.dir/EEPROM.cpp.obj
                0x0000000000002c10                _Z7getPIDph
 .text._Z7getPIDih
                0x0000000000002c26       0x16 CMakeFiles/BrewTroller-OT_DX1_RIMSDF.elf.dir/EEPROM.cpp.obj
                0x0000000000002c26                _Z7getPIDih
 .text._Z7getPIDdh
                0x0000000000002c3c       0x16 CMakeFiles/BrewTroller-OT_DX1_RIMSDF.elf.dir/EEPROM.cpp.obj
                0x0000000000002c3c                _Z7getPIDdh
 .text._Z11getPIDCycleh
                0x0000000000002c52       0x2a CMakeFiles/BrewTroller-OT_DX1_RIMSDF.elf.dir/EEPROM.cpp.obj
                0x0000000000002c52                _Z11getPIDCycleh
 .text._Z13getHysteresish
                0x0000000000002c7c       0x2a CMakeFiles/BrewTroller-OT_DX1_RIMSDF.elf.dir/EEPROM.cpp.obj
                0x0000000000002c7c                _Z13getHysteresish
 .text._Z11getBoilTempv
                0x0000000000002ca6        0xc CMakeFiles/BrewTroller-OT_DX1_RIMSDF.elf.dir/EEPROM.cpp.obj
                0x0000000000002ca6                _Z11getBoilTempv
 .text._Z11setBoilTemph
                0x0000000000002cb2        0xe CMakeFiles/BrewTroller-OT_DX1_RIMSDF.elf.dir/EEPROM.cpp.obj
                0x0000000000002cb2                _Z11setBoilTemph
 .text._Z10setBoilPwrh
                0x0000000000002cc0       0x38 CMakeFiles/BrewTroller-OT_DX1_RIMSDF.elf.dir/EEPROM.cpp.obj
                0x0000000000002cc0                _Z10setBoilPwrh
 .text._Z11setEvapRateh
                0x0000000000002cf8        0xe CMakeFiles/BrewTroller-OT_DX1_RIMSDF.elf.dir/EEPROM.cpp.obj
                0x0000000000002cf8                _Z11setEvapRateh
 .text._Z11getEvapRatev
                0x0000000000002d06        0xc CMakeFiles/BrewTroller-OT_DX1_RIMSDF.elf.dir/EEPROM.cpp.obj
                0x0000000000002d06                _Z11getEvapRatev
 .text._Z11setSetpointhi
                0x0000000000002d12       0x38 CMakeFiles/BrewTroller-OT_DX1_RIMSDF.elf.dir/EEPROM.cpp.obj
                0x0000000000002d12                _Z11setSetpointhi
 .text._Z14setTimerStatushh
                0x0000000000002d4a       0x52 CMakeFiles/BrewTroller-OT_DX1_RIMSDF.elf.dir/EEPROM.cpp.obj
                0x0000000000002d4a                _Z14setTimerStatushh
 .text._Z14setAlarmStatush
                0x0000000000002d9c       0x30 CMakeFiles/BrewTroller-OT_DX1_RIMSDF.elf.dir/EEPROM.cpp.obj
                0x0000000000002d9c                _Z14setAlarmStatush
 .text._Z23eepromLoadProgramThreadhP13ProgramThread
                0x0000000000002dcc       0x18 CMakeFiles/BrewTroller-OT_DX1_RIMSDF.elf.dir/EEPROM.cpp.obj
                0x0000000000002dcc                _Z23eepromLoadProgramThreadhP13ProgramThread
 .text._Z23eepromSaveProgramThreadhP13ProgramThread
                0x0000000000002de4       0x18 CMakeFiles/BrewTroller-OT_DX1_RIMSDF.elf.dir/EEPROM.cpp.obj
                0x0000000000002de4                _Z23eepromSaveProgramThreadhP13ProgramThread
 .text._Z12setGrainTemph
                0x0000000000002dfc        0xe CMakeFiles/BrewTroller-OT_DX1_RIMSDF.elf.dir/EEPROM.cpp.obj
                0x0000000000002dfc                _Z12setGrainTemph
 .text._Z12getGrainTempv
                0x0000000000002e0a        0xc CMakeFiles/BrewTroller-OT_DX1_RIMSDF.elf.dir/EEPROM.cpp.obj
                0x0000000000002e0a                _Z12getGrainTempv
 .text._Z11setProgNamehPc
                0x0000000000002e16       0x48 CMakeFiles/BrewTroller-OT_DX1_RIMSDF.elf.dir/EEPROM.cpp.obj
                0x0000000000002e16                _Z11setProgNamehPc
 .text._Z11getProgNamehPc
                0x0000000000002e5e       0x4e CMakeFiles/BrewTroller-OT_DX1_RIMSDF.elf.dir/EEPROM.cpp.obj
                0x0000000000002e5e                _Z11getProgNamehPc
 .text._Z13setProgSpargehh
                0x0000000000002eac       0x18 CMakeFiles/BrewTroller-OT_DX1_RIMSDF.elf.dir/EEPROM.cpp.obj
                0x0000000000002eac                _Z13setProgSpargehh
 .text._Z13getProgSpargeh
                0x0000000000002ec4       0x20 CMakeFiles/BrewTroller-OT_DX1_RIMSDF.elf.dir/EEPROM.cpp.obj
                0x0000000000002ec4                _Z13getProgSpargeh
 .text._Z15setProgMashTemphhh
                0x0000000000002ee4       0x1c CMakeFiles/BrewTroller-OT_DX1_RIMSDF.elf.dir/EEPROM.cpp.obj
                0x0000000000002ee4                _Z15setProgMashTemphhh
 .text._Z15getProgMashTemphh
                0x0000000000002f00       0x26 CMakeFiles/BrewTroller-OT_DX1_RIMSDF.elf.dir/EEPROM.cpp.obj
                0x0000000000002f00                _Z15getProgMashTemphh
 .text._Z15setProgMashMinshhh
                0x0000000000002f26       0x22 CMakeFiles/BrewTroller-OT_DX1_RIMSDF.elf.dir/EEPROM.cpp.obj
                0x0000000000002f26                _Z15setProgMashMinshhh
 .text._Z15getProgMashMinshh
                0x0000000000002f48       0x1c CMakeFiles/BrewTroller-OT_DX1_RIMSDF.elf.dir/EEPROM.cpp.obj
                0x0000000000002f48                _Z15getProgMashMinshh
 .text._Z16setProgMLHeatSrchh
                0x0000000000002f64       0x18 CMakeFiles/BrewTroller-OT_DX1_RIMSDF.elf.dir/EEPROM.cpp.obj
                0x0000000000002f64                _Z16setProgMLHeatSrchh
 .text._Z16getProgMLHeatSrch
                0x0000000000002f7c       0x16 CMakeFiles/BrewTroller-OT_DX1_RIMSDF.elf.dir/EEPROM.cpp.obj
                0x0000000000002f7c                _Z16getProgMLHeatSrch
 .text._Z10setProgHLThh
                0x0000000000002f92       0x18 CMakeFiles/BrewTroller-OT_DX1_RIMSDF.elf.dir/EEPROM.cpp.obj
                0x0000000000002f92                _Z10setProgHLThh
 .text._Z10getProgHLTh
                0x0000000000002faa       0x20 CMakeFiles/BrewTroller-OT_DX1_RIMSDF.elf.dir/EEPROM.cpp.obj
                0x0000000000002faa                _Z10getProgHLTh
 .text._Z12setProgPitchhh
                0x0000000000002fca       0x18 CMakeFiles/BrewTroller-OT_DX1_RIMSDF.elf.dir/EEPROM.cpp.obj
                0x0000000000002fca                _Z12setProgPitchhh
 .text._Z12getProgPitchh
                0x0000000000002fe2       0x20 CMakeFiles/BrewTroller-OT_DX1_RIMSDF.elf.dir/EEPROM.cpp.obj
                0x0000000000002fe2                _Z12getProgPitchh
 .text._Z13getTriggerPinh
                0x0000000000003002       0x10 CMakeFiles/BrewTroller-OT_DX1_RIMSDF.elf.dir/EEPROM.cpp.obj
                0x0000000000003002                _Z13getTriggerPinh
 .text._Z13setTriggerPinhh
                0x0000000000003012       0x16 CMakeFiles/BrewTroller-OT_DX1_RIMSDF.elf.dir/EEPROM.cpp.obj
                0x0000000000003012                _Z13setTriggerPinhh
 .text._Z16getVlvModbusAddrh
                0x0000000000003028       0x16 CMakeFiles/BrewTroller-OT_DX1_RIMSDF.elf.dir/EEPROM.cpp.obj
                0x0000000000003028                _Z16getVlvModbusAddrh
 .text._Z21getVlvModbusCoilCounth
                0x000000000000303e       0x16 CMakeFiles/BrewTroller-OT_DX1_RIMSDF.elf.dir/EEPROM.cpp.obj
                0x000000000000303e                _Z21getVlvModbusCoilCounth
 .text._Z18getVlvModbusOffseth
                0x0000000000003054       0x16 CMakeFiles/BrewTroller-OT_DX1_RIMSDF.elf.dir/EEPROM.cpp.obj
                0x0000000000003054                _Z18getVlvModbusOffseth
 .text._Z16setVlvModbusAddrhh
                0x000000000000306a       0x18 CMakeFiles/BrewTroller-OT_DX1_RIMSDF.elf.dir/EEPROM.cpp.obj
                0x000000000000306a                _Z16setVlvModbusAddrhh
 .text._Z21setVlvModbusCoilCounthh
                0x0000000000003082       0x18 CMakeFiles/BrewTroller-OT_DX1_RIMSDF.elf.dir/EEPROM.cpp.obj
                0x0000000000003082                _Z21setVlvModbusCoilCounthh
 .text._Z18setVlvModbusOffsethh
                0x000000000000309a       0x18 CMakeFiles/BrewTroller-OT_DX1_RIMSDF.elf.dir/EEPROM.cpp.obj
                0x000000000000309a                _Z18setVlvModbusOffsethh
 .text._Z10initEEPROMv
                0x00000000000030b2       0xe0 CMakeFiles/BrewTroller-OT_DX1_RIMSDF.elf.dir/EEPROM.cpp.obj
                0x00000000000030b2                _Z10initEEPROMv
 .text._Z14EEPROMreadLongi
                0x0000000000003192       0x2a CMakeFiles/BrewTroller-OT_DX1_RIMSDF.elf.dir/EEPROM.cpp.obj
                0x0000000000003192                _Z14EEPROMreadLongi
 .text._Z15getProgBatchVolh
                0x00000000000031bc        0xe CMakeFiles/BrewTroller-OT_DX1_RIMSDF.elf.dir/EEPROM.cpp.obj
                0x00000000000031bc                _Z15getProgBatchVolh
 .text._Z12getProgGrainh
                0x00000000000031ca        0xe CMakeFiles/BrewTroller-OT_DX1_RIMSDF.elf.dir/EEPROM.cpp.obj
                0x00000000000031ca                _Z12getProgGrainh
 .text._Z15EEPROMwriteLongil
                0x00000000000031d8       0x2a CMakeFiles/BrewTroller-OT_DX1_RIMSDF.elf.dir/EEPROM.cpp.obj
                0x00000000000031d8                _Z15EEPROMwriteLongil
 .text._Z11setValveCfghm
                0x0000000000003202       0x1c CMakeFiles/BrewTroller-OT_DX1_RIMSDF.elf.dir/EEPROM.cpp.obj
                0x0000000000003202                _Z11setValveCfghm
 .text._Z15setProgBatchVolhm
                0x000000000000321e        0xe CMakeFiles/BrewTroller-OT_DX1_RIMSDF.elf.dir/EEPROM.cpp.obj
                0x000000000000321e                _Z15setProgBatchVolhm
 .text._Z12setProgGrainhm
                0x000000000000322c        0xe CMakeFiles/BrewTroller-OT_DX1_RIMSDF.elf.dir/EEPROM.cpp.obj
                0x000000000000322c                _Z12setProgGrainhm
 .text._Z13EEPROMreadInti
                0x000000000000323a       0x26 CMakeFiles/BrewTroller-OT_DX1_RIMSDF.elf.dir/EEPROM.cpp.obj
                0x000000000000323a                _Z13EEPROMreadInti
 .text._Z15getBoilAddsTrigv
                0x0000000000003260        0x6 CMakeFiles/BrewTroller-OT_DX1_RIMSDF.elf.dir/EEPROM.cpp.obj
                0x0000000000003260                _Z15getBoilAddsTrigv
 .text._Z12getDelayMinsv
                0x0000000000003266        0x6 CMakeFiles/BrewTroller-OT_DX1_RIMSDF.elf.dir/EEPROM.cpp.obj
                0x0000000000003266                _Z12getDelayMinsv
 .text._Z11getProgBoilh
                0x000000000000326c        0xe CMakeFiles/BrewTroller-OT_DX1_RIMSDF.elf.dir/EEPROM.cpp.obj
                0x000000000000326c                _Z11getProgBoilh
 .text._Z12getProgRatioh
                0x000000000000327a        0xe CMakeFiles/BrewTroller-OT_DX1_RIMSDF.elf.dir/EEPROM.cpp.obj
                0x000000000000327a                _Z12getProgRatioh
 .text._Z11getProgAddsh
                0x0000000000003288        0xe CMakeFiles/BrewTroller-OT_DX1_RIMSDF.elf.dir/EEPROM.cpp.obj
                0x0000000000003288                _Z11getProgAddsh
 .text._Z15getVlvModbusRegh
                0x0000000000003296        0xe CMakeFiles/BrewTroller-OT_DX1_RIMSDF.elf.dir/EEPROM.cpp.obj
                0x0000000000003296                _Z15getVlvModbusRegh
 .text._Z13loadVlvModbush
                0x00000000000032a4       0x76 CMakeFiles/BrewTroller-OT_DX1_RIMSDF.elf.dir/EEPROM.cpp.obj
                0x00000000000032a4                _Z13loadVlvModbush
 .text._Z14EEPROMwriteIntii
                0x000000000000331a       0x26 CMakeFiles/BrewTroller-OT_DX1_RIMSDF.elf.dir/EEPROM.cpp.obj
                0x000000000000331a                _Z14EEPROMwriteIntii
 .text._Z16setTimerRecoveryhj
                0x0000000000003340        0xc CMakeFiles/BrewTroller-OT_DX1_RIMSDF.elf.dir/EEPROM.cpp.obj
                0x0000000000003340                _Z16setTimerRecoveryhj
 .text._Z15setBoilAddsTrigj
                0x000000000000334c        0x8 CMakeFiles/BrewTroller-OT_DX1_RIMSDF.elf.dir/EEPROM.cpp.obj
                0x000000000000334c                _Z15setBoilAddsTrigj
 .text._Z12setDelayMinsj
                0x0000000000003354        0x8 CMakeFiles/BrewTroller-OT_DX1_RIMSDF.elf.dir/EEPROM.cpp.obj
                0x0000000000003354                _Z12setDelayMinsj
 .text._Z11setProgBoilhi
                0x000000000000335c       0x18 CMakeFiles/BrewTroller-OT_DX1_RIMSDF.elf.dir/EEPROM.cpp.obj
                0x000000000000335c                _Z11setProgBoilhi
 .text._Z12setProgRatiohj
                0x0000000000003374        0xe CMakeFiles/BrewTroller-OT_DX1_RIMSDF.elf.dir/EEPROM.cpp.obj
                0x0000000000003374                _Z12setProgRatiohj
 .text._Z11setProgAddshj
                0x0000000000003382        0xe CMakeFiles/BrewTroller-OT_DX1_RIMSDF.elf.dir/EEPROM.cpp.obj
                0x0000000000003382                _Z11setProgAddshj
 .text._Z15setVlvModbusReghj
                0x0000000000003390        0xe CMakeFiles/BrewTroller-OT_DX1_RIMSDF.elf.dir/EEPROM.cpp.obj
                0x0000000000003390                _Z15setVlvModbusReghj
 .text._Z20setVlvModbusDefaultsh
                0x000000000000339e       0x48 CMakeFiles/BrewTroller-OT_DX1_RIMSDF.elf.dir/EEPROM.cpp.obj
                0x000000000000339e                _Z20setVlvModbusDefaultsh
 .text._Z11checkConfigv
                0x00000000000033e6       0xe6 CMakeFiles/BrewTroller-OT_DX1_RIMSDF.elf.dir/EEPROM.cpp.obj
                0x00000000000033e6                _Z11checkConfigv
 .text._Z16EEPROMwriteBytesiPhh
                0x00000000000034cc       0x3c CMakeFiles/BrewTroller-OT_DX1_RIMSDF.elf.dir/EEPROM.cpp.obj
                0x00000000000034cc                _Z16EEPROMwriteBytesiPhh
 .text._Z9setTSAddrhPh
                0x0000000000003508       0x3a CMakeFiles/BrewTroller-OT_DX1_RIMSDF.elf.dir/EEPROM.cpp.obj
                0x0000000000003508                _Z9setTSAddrhPh
 .text._Z15EEPROMreadBytesiPhh
                0x0000000000003542       0x40 CMakeFiles/BrewTroller-OT_DX1_RIMSDF.elf.dir/EEPROM.cpp.obj
                0x0000000000003542                _Z15EEPROMreadBytesiPhh
 .text._Z9loadSetupv
                0x0000000000003582       0xf2 CMakeFiles/BrewTroller-OT_DX1_RIMSDF.elf.dir/EEPROM.cpp.obj
                0x0000000000003582                _Z9loadSetupv
 .text._ZN14FlowController7initPIDEv
                0x0000000000003674       0xca CMakeFiles/BrewTroller-OT_DX1_RIMSDF.elf.dir/FlowController.cpp.obj
                0x0000000000003674                _ZN14FlowController7initPIDEv
 .text._ZN14FlowControllerC2EP6VesselS1_P3pinbbb
                0x000000000000373e       0x44 CMakeFiles/BrewTroller-OT_DX1_RIMSDF.elf.dir/FlowController.cpp.obj
                0x000000000000373e                _ZN14FlowControllerC2EP6VesselS1_P3pinbbb
                0x000000000000373e                _ZN14FlowControllerC1EP6VesselS1_P3pinbbb
 .text._ZN14FlowController15getVolumeChangeEv
                0x0000000000003782      0x166 CMakeFiles/BrewTroller-OT_DX1_RIMSDF.elf.dir/FlowController.cpp.obj
                0x0000000000003782                _ZN14FlowController15getVolumeChangeEv
 .text._ZN14FlowController12updateValvesEv
                0x00000000000038e8       0x94 CMakeFiles/BrewTroller-OT_DX1_RIMSDF.elf.dir/FlowController.cpp.obj
                0x00000000000038e8                _ZN14FlowController12updateValvesEv
 .text._ZN14FlowController10isAtTargetEv
                0x000000000000397c       0xa2 CMakeFiles/BrewTroller-OT_DX1_RIMSDF.elf.dir/FlowController.cpp.obj
                0x000000000000397c                _ZN14FlowController10isAtTargetEv
 .text._ZN14FlowController6updateEv
                0x0000000000003a1e      0x338 CMakeFiles/BrewTroller-OT_DX1_RIMSDF.elf.dir/FlowController.cpp.obj
                0x0000000000003a1e                _ZN14FlowController6updateEv
 .text._ZN14FlowController6usePIDEb
                0x0000000000003d56       0x2a CMakeFiles/BrewTroller-OT_DX1_RIMSDF.elf.dir/FlowController.cpp.obj
                0x0000000000003d56                _ZN14FlowController6usePIDEb
 .text._ZN14FlowController17setTargetFlowRateEd
                0x0000000000003d80       0x14 CMakeFiles/BrewTroller-OT_DX1_RIMSDF.elf.dir/FlowController.cpp.obj
                0x0000000000003d80                _ZN14FlowController17setTargetFlowRateEd
 .text._Z19initFlowControllersv
                0x0000000000003d94      0x14c CMakeFiles/BrewTroller-OT_DX1_RIMSDF.elf.dir/FlowController.cpp.obj
                0x0000000000003d94                _Z19initFlowControllersv
 .text._Z12spargeMaxISRv
                0x0000000000003ee0       0x24 CMakeFiles/BrewTroller-OT_DX1_RIMSDF.elf.dir/Events.cpp.obj
                0x0000000000003ee0                _Z12spargeMaxISRv
 .text._Z8eStopISRv
                0x0000000000003f04       0x28 CMakeFiles/BrewTroller-OT_DX1_RIMSDF.elf.dir/Events.cpp.obj
                0x0000000000003f04                _Z8eStopISRv
 .text._Z9hltMinISRv
                0x0000000000003f2c       0x30 CMakeFiles/BrewTroller-OT_DX1_RIMSDF.elf.dir/Events.cpp.obj
                0x0000000000003f2c                _Z9hltMinISRv
 .text._Z10mashMinISRv
                0x0000000000003f5c       0x2e CMakeFiles/BrewTroller-OT_DX1_RIMSDF.elf.dir/Events.cpp.obj
                0x0000000000003f5c                _Z10mashMinISRv
 .text._Z12kettleMinISRv
                0x0000000000003f8a       0x2e CMakeFiles/BrewTroller-OT_DX1_RIMSDF.elf.dir/Events.cpp.obj
                0x0000000000003f8a                _Z12kettleMinISRv
 .text._Z12eventHandlerhi
                0x0000000000003fb8      0x110 CMakeFiles/BrewTroller-OT_DX1_RIMSDF.elf.dir/Events.cpp.obj
                0x0000000000003fb8                _Z12eventHandlerhi
 .text._Z12triggerSetupv
                0x00000000000040c8       0x8a CMakeFiles/BrewTroller-OT_DX1_RIMSDF.elf.dir/Events.cpp.obj
                0x00000000000040c8                _Z12triggerSetupv
 .text._Z7pinInitv
                0x0000000000004152       0x60 CMakeFiles/BrewTroller-OT_DX1_RIMSDF.elf.dir/Outputs.cpp.obj
                0x0000000000004152                _Z7pinInitv
 .text._Z7pidInitv
                0x00000000000041b2        0x2 CMakeFiles/BrewTroller-OT_DX1_RIMSDF.elf.dir/Outputs.cpp.obj
                0x00000000000041b2                _Z7pidInitv
 .text._Z18processHeatOutputsv
                0x00000000000041b4       0x58 CMakeFiles/BrewTroller-OT_DX1_RIMSDF.elf.dir/Outputs.cpp.obj
                0x00000000000041b4                _Z18processHeatOutputsv
 .text._Z9setValvesm
                0x000000000000420c       0x94 CMakeFiles/BrewTroller-OT_DX1_RIMSDF.elf.dir/Outputs.cpp.obj
                0x000000000000420c                _Z9setValvesm
 .text._Z16computeValveBitsv
                0x00000000000042a0      0x14e CMakeFiles/BrewTroller-OT_DX1_RIMSDF.elf.dir/Outputs.cpp.obj
                0x00000000000042a0                _Z16computeValveBitsv
 .text._Z12updateValvesv
                0x00000000000043ee        0x4 CMakeFiles/BrewTroller-OT_DX1_RIMSDF.elf.dir/Outputs.cpp.obj
                0x00000000000043ee                _Z12updateValvesv
 .text._Z12resetOutputsv
                0x00000000000043f2       0x56 CMakeFiles/BrewTroller-OT_DX1_RIMSDF.elf.dir/Outputs.cpp.obj
                0x00000000000043f2                _Z12resetOutputsv
 .text._Z15resetHeatOutputh
                0x0000000000004448       0x1c CMakeFiles/BrewTroller-OT_DX1_RIMSDF.elf.dir/Outputs.cpp.obj
                0x0000000000004448                _Z15resetHeatOutputh
 .text._Z17vlvConfigIsActiveh
                0x0000000000004464       0x44 CMakeFiles/BrewTroller-OT_DX1_RIMSDF.elf.dir/Outputs.cpp.obj
                0x0000000000004464                _Z17vlvConfigIsActiveh
 .text._Z8vesselAVh
                0x00000000000044a8       0x1a CMakeFiles/BrewTroller-OT_DX1_RIMSDF.elf.dir/Outputs.cpp.obj
                0x00000000000044a8                _Z8vesselAVh
 .text._Z13vesselVLVHeath
                0x00000000000044c2       0x1a CMakeFiles/BrewTroller-OT_DX1_RIMSDF.elf.dir/Outputs.cpp.obj
                0x00000000000044c2                _Z13vesselVLVHeath
 .text._Z13vesselVLVIdleh
                0x00000000000044dc       0x1a CMakeFiles/BrewTroller-OT_DX1_RIMSDF.elf.dir/Outputs.cpp.obj
                0x00000000000044dc                _Z13vesselVLVIdleh
 .text._Z16vesselMinTriggerh
                0x00000000000044f6       0x30 CMakeFiles/BrewTroller-OT_DX1_RIMSDF.elf.dir/Outputs.cpp.obj
                0x00000000000044f6                _Z16vesselMinTriggerh
 .text._Z16autoValveBitmaskv
                0x0000000000004526       0xb4 CMakeFiles/BrewTroller-OT_DX1_RIMSDF.elf.dir/Outputs.cpp.obj
                0x0000000000004526                _Z16autoValveBitmaskv
 .text._Z12getHeatPowerh
                0x00000000000045da       0x26 CMakeFiles/BrewTroller-OT_DX1_RIMSDF.elf.dir/Outputs.cpp.obj
                0x00000000000045da                _Z12getHeatPowerh
 .text._ZN9PVOutGPIOC2Eh
                0x0000000000004600       0x1e CMakeFiles/BrewTroller-OT_DX1_RIMSDF.elf.dir/PVOut.cpp.obj
                0x0000000000004600                _ZN9PVOutGPIOC1Eh
                0x0000000000004600                _ZN9PVOutGPIOC2Eh
 .text._ZN9PVOutGPIOD2Ev
                0x000000000000461e        0xa CMakeFiles/BrewTroller-OT_DX1_RIMSDF.elf.dir/PVOut.cpp.obj
                0x000000000000461e                _ZN9PVOutGPIOD1Ev
                0x000000000000461e                _ZN9PVOutGPIOD2Ev
 .text._ZN9PVOutGPIO5setupEhh
                0x0000000000004628       0x1a CMakeFiles/BrewTroller-OT_DX1_RIMSDF.elf.dir/PVOut.cpp.obj
                0x0000000000004628                _ZN9PVOutGPIO5setupEhh
 .text._ZN9PVOutGPIO3setEm
                0x0000000000004642       0xae CMakeFiles/BrewTroller-OT_DX1_RIMSDF.elf.dir/PVOut.cpp.obj
                0x0000000000004642                _ZN9PVOutGPIO3setEm
 .text._ZN9PVOutGPIO4initEv
                0x00000000000046f0        0x8 CMakeFiles/BrewTroller-OT_DX1_RIMSDF.elf.dir/PVOut.cpp.obj
                0x00000000000046f0                _ZN9PVOutGPIO4initEv
 .text._ZN9PVOutGPIO3getEv
                0x00000000000046f8        0xc CMakeFiles/BrewTroller-OT_DX1_RIMSDF.elf.dir/PVOut.cpp.obj
                0x00000000000046f8                _ZN9PVOutGPIO3getEv
 .text._ZN11PVOutMODBUSC2Ehjhh
                0x0000000000004704       0x9c CMakeFiles/BrewTroller-OT_DX1_RIMSDF.elf.dir/PVOut.cpp.obj
                0x0000000000004704                _ZN11PVOutMODBUSC2Ehjhh
                0x0000000000004704                _ZN11PVOutMODBUSC1Ehjhh
 .text._ZN11PVOutMODBUS3setEm
                0x00000000000047a0       0xca CMakeFiles/BrewTroller-OT_DX1_RIMSDF.elf.dir/PVOut.cpp.obj
                0x00000000000047a0                _ZN11PVOutMODBUS3setEm
 .text._ZN11PVOutMODBUS5countEv
                0x000000000000486a        0xa CMakeFiles/BrewTroller-OT_DX1_RIMSDF.elf.dir/PVOut.cpp.obj
                0x000000000000486a                _ZN11PVOutMODBUS5countEv
 .text._ZN11PVOutMODBUS6offsetEv
                0x0000000000004874       0x10 CMakeFiles/BrewTroller-OT_DX1_RIMSDF.elf.dir/PVOut.cpp.obj
                0x0000000000004874                _ZN11PVOutMODBUS6offsetEv
 .text._ZN11PVOutMODBUS6detectEv
                0x0000000000004884       0x1a CMakeFiles/BrewTroller-OT_DX1_RIMSDF.elf.dir/PVOut.cpp.obj
                0x0000000000004884                _ZN11PVOutMODBUS6detectEv
 .text._ZN11PVOutMODBUS7setAddrEh
                0x000000000000489e       0x4a CMakeFiles/BrewTroller-OT_DX1_RIMSDF.elf.dir/PVOut.cpp.obj
                0x000000000000489e                _ZN11PVOutMODBUS7setAddrEh
 .text._ZN11PVOutMODBUS9setIDModeEh
                0x00000000000048e8        0xe CMakeFiles/BrewTroller-OT_DX1_RIMSDF.elf.dir/PVOut.cpp.obj
                0x00000000000048e8                _ZN11PVOutMODBUS9setIDModeEh
 .text._ZN11PVOutMODBUS9getIDModeEv
                0x00000000000048f6       0x2c CMakeFiles/BrewTroller-OT_DX1_RIMSDF.elf.dir/PVOut.cpp.obj
                0x00000000000048f6                _ZN11PVOutMODBUS9getIDModeEv
 .text._ZN14FlowController4stopEv
                0x0000000000004922        0x6 CMakeFiles/BrewTroller-OT_DX1_RIMSDF.elf.dir/StepLogic.cpp.obj
                0x0000000000004922                _ZN14FlowController4stopEv
 .text._Z16brewStepIsActiveh
                0x0000000000004928       0x1c CMakeFiles/BrewTroller-OT_DX1_RIMSDF.elf.dir/StepLogic.cpp.obj
                0x0000000000004928                _Z16brewStepIsActiveh
 .text._Z12zoneIsActiveh
                0x0000000000004944       0x1a CMakeFiles/BrewTroller-OT_DX1_RIMSDF.elf.dir/StepLogic.cpp.obj
                0x0000000000004944                _Z12zoneIsActiveh
 .text._Z23programThreadActiveSteph
                0x000000000000495e       0x10 CMakeFiles/BrewTroller-OT_DX1_RIMSDF.elf.dir/StepLogic.cpp.obj
                0x000000000000495e                _Z23programThreadActiveSteph
 .text._Z23programThreadRecipeNamehPc
                0x000000000000496e       0x12 CMakeFiles/BrewTroller-OT_DX1_RIMSDF.elf.dir/StepLogic.cpp.obj
                0x000000000000496e                _Z23programThreadRecipeNamehPc
 .text._Z24programThreadRecipeIndexh
                0x0000000000004980       0x10 CMakeFiles/BrewTroller-OT_DX1_RIMSDF.elf.dir/StepLogic.cpp.obj
                0x0000000000004980                _Z24programThreadRecipeIndexh
 .text._Z20programThreadAcquirev
                0x0000000000004990       0x28 CMakeFiles/BrewTroller-OT_DX1_RIMSDF.elf.dir/StepLogic.cpp.obj
                0x0000000000004990                _Z20programThreadAcquirev
 .text._Z17programThreadSaveP13ProgramThread
                0x00000000000049b8       0x12 CMakeFiles/BrewTroller-OT_DX1_RIMSDF.elf.dir/StepLogic.cpp.obj
                0x00000000000049b8                _Z17programThreadSaveP13ProgramThread
 .text._Z20programThreadSetStepP13ProgramThreadh
                0x00000000000049ca       0x30 CMakeFiles/BrewTroller-OT_DX1_RIMSDF.elf.dir/StepLogic.cpp.obj
                0x00000000000049ca                _Z20programThreadSetStepP13ProgramThreadh
 .text._Z13brewStepChill10StepSignalP13ProgramThread
                0x00000000000049fa       0xc8 CMakeFiles/BrewTroller-OT_DX1_RIMSDF.elf.dir/StepLogic.cpp.obj
                0x00000000000049fa                _Z13brewStepChill10StepSignalP13ProgramThread
 .text._Z12brewStepBoil10StepSignalP13ProgramThread
                0x0000000000004ac2      0x3de CMakeFiles/BrewTroller-OT_DX1_RIMSDF.elf.dir/StepLogic.cpp.obj
                0x0000000000004ac2                _Z12brewStepBoil10StepSignalP13ProgramThread
 .text._Z17brewStepZoneInUseh
                0x0000000000004ea0       0x24 CMakeFiles/BrewTroller-OT_DX1_RIMSDF.elf.dir/StepLogic.cpp.obj
                0x0000000000004ea0                _Z17brewStepZoneInUseh
 .text._Z17programThreadInithh
                0x0000000000004ec4       0x68 CMakeFiles/BrewTroller-OT_DX1_RIMSDF.elf.dir/StepLogic.cpp.obj
                0x0000000000004ec4                _Z17programThreadInithh
 .text._Z17programThreadInith
                0x0000000000004f2c        0x4 CMakeFiles/BrewTroller-OT_DX1_RIMSDF.elf.dir/StepLogic.cpp.obj
                0x0000000000004f2c                _Z17programThreadInith
 .text._Z19programThreadSignalP13ProgramThread10StepSignal
                0x0000000000004f30       0x24 CMakeFiles/BrewTroller-OT_DX1_RIMSDF.elf.dir/StepLogic.cpp.obj
                0x0000000000004f30                _Z19programThreadSignalP13ProgramThread10StepSignal
 .text._Z18programThreadsInitv
                0x0000000000004f54       0x4a CMakeFiles/BrewTroller-OT_DX1_RIMSDF.elf.dir/StepLogic.cpp.obj
                0x0000000000004f54                _Z18programThreadsInitv
 .text._Z20programThreadsUpdatev
                0x0000000000004f9e       0x22 CMakeFiles/BrewTroller-OT_DX1_RIMSDF.elf.dir/StepLogic.cpp.obj
                0x0000000000004f9e                _Z20programThreadsUpdatev
 .text._Z14brewStepSignalh10StepSignal
                0x0000000000004fc0       0x60 CMakeFiles/BrewTroller-OT_DX1_RIMSDF.elf.dir/StepLogic.cpp.obj
                0x0000000000004fc0                _Z14brewStepSignalh10StepSignal
 .text._Z21programThreadResetAllv
                0x0000000000005020       0x10 CMakeFiles/BrewTroller-OT_DX1_RIMSDF.elf.dir/StepLogic.cpp.obj
                0x0000000000005020                _Z21programThreadResetAllv
 .text._Z18brewStepMashHelperh10StepSignalP13ProgramThread
                0x0000000000005030      0x148 CMakeFiles/BrewTroller-OT_DX1_RIMSDF.elf.dir/StepLogic.cpp.obj
                0x0000000000005030                _Z18brewStepMashHelperh10StepSignalP13ProgramThread
 .text._Z15brewStepDoughIn10StepSignalP13ProgramThread
                0x0000000000005178        0x8 CMakeFiles/BrewTroller-OT_DX1_RIMSDF.elf.dir/StepLogic.cpp.obj
                0x0000000000005178                _Z15brewStepDoughIn10StepSignalP13ProgramThread
 .text._Z12brewStepAcid10StepSignalP13ProgramThread
                0x0000000000005180        0x8 CMakeFiles/BrewTroller-OT_DX1_RIMSDF.elf.dir/StepLogic.cpp.obj
                0x0000000000005180                _Z12brewStepAcid10StepSignalP13ProgramThread
 .text._Z15brewStepProtein10StepSignalP13ProgramThread
                0x0000000000005188        0x8 CMakeFiles/BrewTroller-OT_DX1_RIMSDF.elf.dir/StepLogic.cpp.obj
                0x0000000000005188                _Z15brewStepProtein10StepSignalP13ProgramThread
 .text._Z13brewStepSacch10StepSignalP13ProgramThread
                0x0000000000005190        0x8 CMakeFiles/BrewTroller-OT_DX1_RIMSDF.elf.dir/StepLogic.cpp.obj
                0x0000000000005190                _Z13brewStepSacch10StepSignalP13ProgramThread
 .text._Z14brewStepSacch210StepSignalP13ProgramThread
                0x0000000000005198        0x8 CMakeFiles/BrewTroller-OT_DX1_RIMSDF.elf.dir/StepLogic.cpp.obj
                0x0000000000005198                _Z14brewStepSacch210StepSignalP13ProgramThread
 .text._Z15brewStepMashOut10StepSignalP13ProgramThread
                0x00000000000051a0        0x8 CMakeFiles/BrewTroller-OT_DX1_RIMSDF.elf.dir/StepLogic.cpp.obj
                0x00000000000051a0                _Z15brewStepMashOut10StepSignalP13ProgramThread
 .text._Z14calcPreboilVolh
                0x00000000000051a8       0xd0 CMakeFiles/BrewTroller-OT_DX1_RIMSDF.elf.dir/StepLogic.cpp.obj
                0x00000000000051a8                _Z14calcPreboilVolh
 .text._Z14brewStepSparge10StepSignalP13ProgramThread
                0x0000000000005278      0x106 CMakeFiles/BrewTroller-OT_DX1_RIMSDF.elf.dir/StepLogic.cpp.obj
                0x0000000000005278                _Z14brewStepSparge10StepSignalP13ProgramThread
 .text._Z16brewStepMashHold10StepSignalP13ProgramThread
                0x000000000000537e       0xd2 CMakeFiles/BrewTroller-OT_DX1_RIMSDF.elf.dir/StepLogic.cpp.obj
                0x000000000000537e                _Z16brewStepMashHold10StepSignalP13ProgramThread
 .text._Z13calcGrainLossh
                0x0000000000005450       0x74 CMakeFiles/BrewTroller-OT_DX1_RIMSDF.elf.dir/StepLogic.cpp.obj
                0x0000000000005450                _Z13calcGrainLossh
 .text._Z13calcStrikeVolh
                0x00000000000054c4      0x164 CMakeFiles/BrewTroller-OT_DX1_RIMSDF.elf.dir/StepLogic.cpp.obj
                0x00000000000054c4                _Z13calcStrikeVolh
 .text._Z13calcSpargeVolh
                0x0000000000005628       0x82 CMakeFiles/BrewTroller-OT_DX1_RIMSDF.elf.dir/StepLogic.cpp.obj
                0x0000000000005628                _Z13calcSpargeVolh
 .text._Z16calcRefillVolumeh
                0x00000000000056aa       0x2c CMakeFiles/BrewTroller-OT_DX1_RIMSDF.elf.dir/StepLogic.cpp.obj
                0x00000000000056aa                _Z16calcRefillVolumeh
 .text._Z14brewStepRefill10StepSignalP13ProgramThread
                0x00000000000056d6       0xaa CMakeFiles/BrewTroller-OT_DX1_RIMSDF.elf.dir/StepLogic.cpp.obj
                0x00000000000056d6                _Z14brewStepRefill10StepSignalP13ProgramThread
 .text._Z15brewStepGrainIn10StepSignalP13ProgramThread
                0x0000000000005780      0x194 CMakeFiles/BrewTroller-OT_DX1_RIMSDF.elf.dir/StepLogic.cpp.obj
                0x0000000000005780                _Z15brewStepGrainIn10StepSignalP13ProgramThread
 .text._Z15brewStepPreheat10StepSignalP13ProgramThread
                0x0000000000005914       0xc2 CMakeFiles/BrewTroller-OT_DX1_RIMSDF.elf.dir/StepLogic.cpp.obj
                0x0000000000005914                _Z15brewStepPreheat10StepSignalP13ProgramThread
 .text._Z13brewStepDelay10StepSignalP13ProgramThread
                0x00000000000059d6       0x8e CMakeFiles/BrewTroller-OT_DX1_RIMSDF.elf.dir/StepLogic.cpp.obj
                0x00000000000059d6                _Z13brewStepDelay10StepSignalP13ProgramThread
 .text._Z12brewStepFill10StepSignalP13ProgramThread
                0x0000000000005a64      0x212 CMakeFiles/BrewTroller-OT_DX1_RIMSDF.elf.dir/StepLogic.cpp.obj
                0x0000000000005a64                _Z12brewStepFill10StepSignalP13ProgramThread
 .text._Z15calcGrainVolumeh
                0x0000000000005c76       0x74 CMakeFiles/BrewTroller-OT_DX1_RIMSDF.elf.dir/StepLogic.cpp.obj
                0x0000000000005c76                _Z15calcGrainVolumeh
 .text._Z16getFirstStepTemph
                0x0000000000005cea       0x24 CMakeFiles/BrewTroller-OT_DX1_RIMSDF.elf.dir/StepLogic.cpp.obj
                0x0000000000005cea                _Z16getFirstStepTemph
 .text._Z14calcStrikeTemph
                0x0000000000005d0e       0xde CMakeFiles/BrewTroller-OT_DX1_RIMSDF.elf.dir/StepLogic.cpp.obj
                0x0000000000005d0e                _Z14calcStrikeTemph
 .text._Z8tempInitv
                0x0000000000005dec       0x84 CMakeFiles/BrewTroller-OT_DX1_RIMSDF.elf.dir/Temp.cpp.obj
                0x0000000000005dec                _Z8tempInitv
 .text._Z7tsReadyv
                0x0000000000005e70        0xe CMakeFiles/BrewTroller-OT_DX1_RIMSDF.elf.dir/Temp.cpp.obj
                0x0000000000005e70                _Z7tsReadyv
 .text._Z9validAddrPh
                0x0000000000005e7e       0x1a CMakeFiles/BrewTroller-OT_DX1_RIMSDF.elf.dir/Temp.cpp.obj
                0x0000000000005e7e                _Z9validAddrPh
 .text._Z9getDSAddrPh
                0x0000000000005e98       0x92 CMakeFiles/BrewTroller-OT_DX1_RIMSDF.elf.dir/Temp.cpp.obj
                0x0000000000005e98                _Z9getDSAddrPh
 .text._Z9read_tempPh
                0x0000000000005f2a       0xae CMakeFiles/BrewTroller-OT_DX1_RIMSDF.elf.dir/Temp.cpp.obj
                0x0000000000005f2a                _Z9read_tempPh
 .text._Z11updateTempsv
                0x0000000000005fd8       0xe2 CMakeFiles/BrewTroller-OT_DX1_RIMSDF.elf.dir/Temp.cpp.obj
                0x0000000000005fd8                _Z11updateTempsv
 .text.startup._GLOBAL__sub_I_ds
                0x00000000000060ba        0xa CMakeFiles/BrewTroller-OT_DX1_RIMSDF.elf.dir/Temp.cpp.obj
 .text._Z8setTimerhi
                0x00000000000060c4       0x74 CMakeFiles/BrewTroller-OT_DX1_RIMSDF.elf.dir/Timer.cpp.obj
                0x00000000000060c4                _Z8setTimerhi
 .text._Z10pauseTimerh
                0x0000000000006138       0x50 CMakeFiles/BrewTroller-OT_DX1_RIMSDF.elf.dir/Timer.cpp.obj
                0x0000000000006138                _Z10pauseTimerh
 .text._Z10clearTimerh
                0x0000000000006188       0x3a CMakeFiles/BrewTroller-OT_DX1_RIMSDF.elf.dir/Timer.cpp.obj
                0x0000000000006188                _Z10clearTimerh
 .text._Z9setBuzzerh
                0x00000000000061c2       0x12 CMakeFiles/BrewTroller-OT_DX1_RIMSDF.elf.dir/Timer.cpp.obj
                0x00000000000061c2                _Z9setBuzzerh
 .text._Z12updateBuzzerv
                0x00000000000061d4        0x6 CMakeFiles/BrewTroller-OT_DX1_RIMSDF.elf.dir/Timer.cpp.obj
                0x00000000000061d4                _Z12updateBuzzerv
 .text._Z8setAlarmh
                0x00000000000061da       0x10 CMakeFiles/BrewTroller-OT_DX1_RIMSDF.elf.dir/Timer.cpp.obj
                0x00000000000061da                _Z8setAlarmh
 .text._Z12updateTimersv
                0x00000000000061ea      0x1b0 CMakeFiles/BrewTroller-OT_DX1_RIMSDF.elf.dir/Timer.cpp.obj
                0x00000000000061ea                _Z12updateTimersv
 .text.startup._GLOBAL__sub_I_buzzerCycleStart
                0x000000000000639a       0x16 CMakeFiles/BrewTroller-OT_DX1_RIMSDF.elf.dir/Timer.cpp.obj
 .text._ZN6Vessel4fillEv.isra.10
                0x00000000000063b0       0x40 CMakeFiles/BrewTroller-OT_DX1_RIMSDF.elf.dir/UI.cpp.obj
 .text._ZN6Vessel11stopFillingEv.isra.11
                0x00000000000063f0       0x48 CMakeFiles/BrewTroller-OT_DX1_RIMSDF.elf.dir/UI.cpp.obj
 .text._ZN6LCDI2C5printEhhPKc
                0x0000000000006438       0x32 CMakeFiles/BrewTroller-OT_DX1_RIMSDF.elf.dir/UI.cpp.obj
                0x0000000000006438                _ZN6LCDI2C5printEhhPKc
 .text._ZN6LCDI2C7print_PEhhPKc
                0x000000000000646a       0x42 CMakeFiles/BrewTroller-OT_DX1_RIMSDF.elf.dir/UI.cpp.obj
                0x000000000000646a                _ZN6LCDI2C7print_PEhhPKc
 .text._ZN6LCDI2C5clearEv
                0x00000000000064ac       0x3a CMakeFiles/BrewTroller-OT_DX1_RIMSDF.elf.dir/UI.cpp.obj
                0x00000000000064ac                _ZN6LCDI2C5clearEv
 .text._ZN6LCDI2C6centerEhhPKch
                0x00000000000064e6       0x7e CMakeFiles/BrewTroller-OT_DX1_RIMSDF.elf.dir/UI.cpp.obj
                0x00000000000064e6                _ZN6LCDI2C6centerEhhPKch
 .text._ZN6LCDI2C4lPadEhhPKchc
                0x0000000000006564       0xb8 CMakeFiles/BrewTroller-OT_DX1_RIMSDF.elf.dir/UI.cpp.obj
                0x0000000000006564                _ZN6LCDI2C4lPadEhhPKchc
 .text._ZN6LCDI2C4rPadEhhPKchc
                0x000000000000661c       0xa8 CMakeFiles/BrewTroller-OT_DX1_RIMSDF.elf.dir/UI.cpp.obj
                0x000000000000661c                _ZN6LCDI2C4rPadEhhPKchc
 .text._Z7uiEventhh
                0x00000000000066c4       0x52 CMakeFiles/BrewTroller-OT_DX1_RIMSDF.elf.dir/UI.cpp.obj
                0x00000000000066c4                _Z7uiEventhh
 .text._Z8unlockUIv
                0x0000000000006716       0x32 CMakeFiles/BrewTroller-OT_DX1_RIMSDF.elf.dir/UI.cpp.obj
                0x0000000000006716                _Z8unlockUIv
 .text._Z6lockUIv
                0x0000000000006748        0xc CMakeFiles/BrewTroller-OT_DX1_RIMSDF.elf.dir/UI.cpp.obj
                0x0000000000006748                _Z6lockUIv
 .text._Z21stepAdvanceFailDialogv
                0x0000000000006754       0x60 CMakeFiles/BrewTroller-OT_DX1_RIMSDF.elf.dir/UI.cpp.obj
                0x0000000000006754                _Z21stepAdvanceFailDialogv
 .text._Z13continueClickv
                0x00000000000067b4       0x60 CMakeFiles/BrewTroller-OT_DX1_RIMSDF.elf.dir/UI.cpp.obj
                0x00000000000067b4                _Z13continueClickv
 .text._Z24programStartFailedDialogv
                0x0000000000006814       0x52 CMakeFiles/BrewTroller-OT_DX1_RIMSDF.elf.dir/UI.cpp.obj
                0x0000000000006814                _Z24programStartFailedDialogv
 .text._Z7warnHLTm
                0x0000000000006866       0xb0 CMakeFiles/BrewTroller-OT_DX1_RIMSDF.elf.dir/UI.cpp.obj
                0x0000000000006866                _Z7warnHLTm
 .text._Z8warnMashmm
                0x0000000000006916      0x108 CMakeFiles/BrewTroller-OT_DX1_RIMSDF.elf.dir/UI.cpp.obj
                0x0000000000006916                _Z8warnMashmm
 .text._Z8warnBoilm
                0x0000000000006a1e       0xb0 CMakeFiles/BrewTroller-OT_DX1_RIMSDF.elf.dir/UI.cpp.obj
                0x0000000000006a1e                _Z8warnBoilm
 .text._Z8drawMenuPKcP4menu
                0x0000000000006ace       0x66 CMakeFiles/BrewTroller-OT_DX1_RIMSDF.elf.dir/UI.cpp.obj
                0x0000000000006ace                _Z8drawMenuPKcP4menu
 .text._Z10scrollMenuPKcP4menu
                0x0000000000006b34       0xe4 CMakeFiles/BrewTroller-OT_DX1_RIMSDF.elf.dir/UI.cpp.obj
                0x0000000000006b34                _Z10scrollMenuPKcP4menu
 .text._Z15boilControlMenuv
                0x0000000000006c18       0xb0 CMakeFiles/BrewTroller-OT_DX1_RIMSDF.elf.dir/UI.cpp.obj
                0x0000000000006c18                _Z15boilControlMenuv
 .text._Z13showProgCalcsh
                0x0000000000006cc8      0x1e6 CMakeFiles/BrewTroller-OT_DX1_RIMSDF.elf.dir/UI.cpp.obj
                0x0000000000006cc8                _Z13showProgCalcsh
 .text._Z15editHopSchedulej
                0x0000000000006eae      0x14c CMakeFiles/BrewTroller-OT_DX1_RIMSDF.elf.dir/UI.cpp.obj
                0x0000000000006eae                _Z15editHopSchedulej
 .text._Z13MLHeatSrcMenuh
                0x0000000000006ffa       0x64 CMakeFiles/BrewTroller-OT_DX1_RIMSDF.elf.dir/UI.cpp.obj
                0x0000000000006ffa                _Z13MLHeatSrcMenuh
 .text._Z9getChoiceP4menuh
                0x000000000000705e       0xd8 CMakeFiles/BrewTroller-OT_DX1_RIMSDF.elf.dir/UI.cpp.obj
                0x000000000000705e                _Z9getChoiceP4menuh
 .text._Z13confirmChoicePKch
                0x0000000000007136       0x58 CMakeFiles/BrewTroller-OT_DX1_RIMSDF.elf.dir/UI.cpp.obj
                0x0000000000007136                _Z13confirmChoicePKch
 .text._Z12confirmAbortv
                0x000000000000718e       0x38 CMakeFiles/BrewTroller-OT_DX1_RIMSDF.elf.dir/UI.cpp.obj
                0x000000000000718e                _Z12confirmAbortv
 .text._Z10confirmDelv
                0x00000000000071c6       0x1c CMakeFiles/BrewTroller-OT_DX1_RIMSDF.elf.dir/UI.cpp.obj
                0x00000000000071c6                _Z10confirmDelv
 .text._Z11concatPSTRSPcPKcS1_
                0x00000000000071e2       0x22 CMakeFiles/BrewTroller-OT_DX1_RIMSDF.elf.dir/UI.cpp.obj
                0x00000000000071e2                _Z11concatPSTRSPcPKcS1_
 .text._Z10printTimerhhh
                0x0000000000007204      0x1ce CMakeFiles/BrewTroller-OT_DX1_RIMSDF.elf.dir/UI.cpp.obj
                0x0000000000007204                _Z10printTimerhhh
 .text._Z13screenRefreshv
                0x00000000000073d2      0x924 CMakeFiles/BrewTroller-OT_DX1_RIMSDF.elf.dir/UI.cpp.obj
                0x00000000000073d2                _Z13screenRefreshv
 .text._Z13getTimerValuePKcih
                0x0000000000007cf6      0x246 CMakeFiles/BrewTroller-OT_DX1_RIMSDF.elf.dir/UI.cpp.obj
                0x0000000000007cf6                _Z13getTimerValuePKcih
 .text._Z9ASCII2ench
                0x0000000000007f3c       0x5e CMakeFiles/BrewTroller-OT_DX1_RIMSDF.elf.dir/UI.cpp.obj
                0x0000000000007f3c                _Z9ASCII2ench
 .text._Z9enc2ASCIIh
                0x0000000000007f9a       0x5e CMakeFiles/BrewTroller-OT_DX1_RIMSDF.elf.dir/UI.cpp.obj
                0x0000000000007f9a                _Z9enc2ASCIIh
 .text._Z23displayAssignSensorTempi
                0x0000000000007ff8       0x76 CMakeFiles/BrewTroller-OT_DX1_RIMSDF.elf.dir/UI.cpp.obj
                0x0000000000007ff8                _Z23displayAssignSensorTempi
 .text._Z12assignSensorv
                0x000000000000806e      0x326 CMakeFiles/BrewTroller-OT_DX1_RIMSDF.elf.dir/UI.cpp.obj
                0x000000000000806e                _Z12assignSensorv
 .text._Z17resetSpargeValvesv
                0x0000000000008394       0x20 CMakeFiles/BrewTroller-OT_DX1_RIMSDF.elf.dir/UI.cpp.obj
                0x0000000000008394                _Z17resetSpargeValvesv
 .text._ZN6LCDI2C12i2cGetBrightEv.isra.16
                0x00000000000083b4       0x4c CMakeFiles/BrewTroller-OT_DX1_RIMSDF.elf.dir/UI.cpp.obj
 .text._ZN6LCDI2C14i2cGetContrastEv.isra.18
                0x0000000000008400       0x4c CMakeFiles/BrewTroller-OT_DX1_RIMSDF.elf.dir/UI.cpp.obj
 .text._ZN6LCDI2C16i2cLcdGetVersionEv
                0x000000000000844c       0x9c CMakeFiles/BrewTroller-OT_DX1_RIMSDF.elf.dir/UI.cpp.obj
                0x000000000000844c                _ZN6LCDI2C16i2cLcdGetVersionEv
 .text._ZN6LCDI2C13setCustChar_PEhPKh
                0x00000000000084e8       0x5e CMakeFiles/BrewTroller-OT_DX1_RIMSDF.elf.dir/UI.cpp.obj
                0x00000000000084e8                _ZN6LCDI2C13setCustChar_PEhPKh
 .text._Z10screenInitv
                0x0000000000008546      0x6ea CMakeFiles/BrewTroller-OT_DX1_RIMSDF.elf.dir/UI.cpp.obj
                0x0000000000008546                _Z10screenInitv
 .text._Z8getValuePcmjmPKc
                0x0000000000008c30      0x496 CMakeFiles/BrewTroller-OT_DX1_RIMSDF.elf.dir/UI.cpp.obj
                0x0000000000008c30                _Z8getValuePcmjmPKc
 .text._Z10getValue_PPKcmjmS0_
                0x00000000000090c6       0x38 CMakeFiles/BrewTroller-OT_DX1_RIMSDF.elf.dir/UI.cpp.obj
                0x00000000000090c6                _Z10getValue_PPKcmjmS0_
 .text._Z16editMashScheduleh
                0x00000000000090fe      0x1e2 CMakeFiles/BrewTroller-OT_DX1_RIMSDF.elf.dir/UI.cpp.obj
                0x00000000000090fe                _Z16editMashScheduleh
 .text._Z11editProgramh
                0x00000000000092e0      0x55a CMakeFiles/BrewTroller-OT_DX1_RIMSDF.elf.dir/UI.cpp.obj
                0x00000000000092e0                _Z11editProgramh
 .text._Z16startProgramMenuv
                0x000000000000983a      0x2ca CMakeFiles/BrewTroller-OT_DX1_RIMSDF.elf.dir/UI.cpp.obj
                0x000000000000983a                _Z16startProgramMenuv
 .text._Z17volCalibEntryMenuhh
                0x0000000000009b04      0x1fc CMakeFiles/BrewTroller-OT_DX1_RIMSDF.elf.dir/UI.cpp.obj
                0x0000000000009b04                _Z17volCalibEntryMenuhh
 .text._Z12volCalibMenuPch
                0x0000000000009d00      0x182 CMakeFiles/BrewTroller-OT_DX1_RIMSDF.elf.dir/UI.cpp.obj
                0x0000000000009d00                _Z12volCalibMenuPch
 .text._Z21cfgMODBUSOutputAssignh
                0x0000000000009e82      0x1aa CMakeFiles/BrewTroller-OT_DX1_RIMSDF.elf.dir/UI.cpp.obj
                0x0000000000009e82                _Z21cfgMODBUSOutputAssignh
 .text._Z20cfgMODBUSOutputBoardh
                0x000000000000a02c      0x2d2 CMakeFiles/BrewTroller-OT_DX1_RIMSDF.elf.dir/UI.cpp.obj
                0x000000000000a02c                _Z20cfgMODBUSOutputBoardh
 .text._Z16cfgMODBUSOutputsv
                0x000000000000a2fe       0xf8 CMakeFiles/BrewTroller-OT_DX1_RIMSDF.elf.dir/UI.cpp.obj
                0x000000000000a2fe                _Z16cfgMODBUSOutputsv
 .text._Z11cfgTriggersv
                0x000000000000a3f6      0x108 CMakeFiles/BrewTroller-OT_DX1_RIMSDF.elf.dir/UI.cpp.obj
                0x000000000000a3f6                _Z11cfgTriggersv
 .text._Z10cfgOutputsv
                0x000000000000a4fe      0x638 CMakeFiles/BrewTroller-OT_DX1_RIMSDF.elf.dir/UI.cpp.obj
                0x000000000000a4fe                _Z10cfgOutputsv
 .text._Z10cfgVolumesv
                0x000000000000ab36      0x230 CMakeFiles/BrewTroller-OT_DX1_RIMSDF.elf.dir/UI.cpp.obj
                0x000000000000ab36                _Z10cfgVolumesv
 .text._Z9getStringPKcPch
                0x000000000000ad66      0x240 CMakeFiles/BrewTroller-OT_DX1_RIMSDF.elf.dir/UI.cpp.obj
                0x000000000000ad66                _Z9getStringPKcPch
 .text._Z15editProgramMenuv
                0x000000000000afa6       0x8e CMakeFiles/BrewTroller-OT_DX1_RIMSDF.elf.dir/UI.cpp.obj
                0x000000000000afa6                _Z15editProgramMenuv
 .text._ZN6LCDI2C9setBrightEh
                0x000000000000b034       0x36 CMakeFiles/BrewTroller-OT_DX1_RIMSDF.elf.dir/UI.cpp.obj
                0x000000000000b034                _ZN6LCDI2C9setBrightEh
 .text._ZN6LCDI2C11setContrastEh
                0x000000000000b06a       0x36 CMakeFiles/BrewTroller-OT_DX1_RIMSDF.elf.dir/UI.cpp.obj
                0x000000000000b06a                _ZN6LCDI2C11setContrastEh
 .text._Z9adjustLCDv
                0x000000000000b0a0      0x2e6 CMakeFiles/BrewTroller-OT_DX1_RIMSDF.elf.dir/UI.cpp.obj
                0x000000000000b0a0                _Z9adjustLCDv
 .text._Z12UIinitEEPROMv
                0x000000000000b386       0x38 CMakeFiles/BrewTroller-OT_DX1_RIMSDF.elf.dir/UI.cpp.obj
                0x000000000000b386                _Z12UIinitEEPROMv
 .text._Z6uiInitv
                0x000000000000b3be       0x78 CMakeFiles/BrewTroller-OT_DX1_RIMSDF.elf.dir/UI.cpp.obj
                0x000000000000b3be                _Z6uiInitv
 .text._Z7uiEstopv
                0x000000000000b436       0xf2 CMakeFiles/BrewTroller-OT_DX1_RIMSDF.elf.dir/UI.cpp.obj
                0x000000000000b436                _Z7uiEstopv
 .text._Z15cfgValveProfilePcm
                0x000000000000b528      0x418 CMakeFiles/BrewTroller-OT_DX1_RIMSDF.elf.dir/UI.cpp.obj
                0x000000000000b528                _Z15cfgValveProfilePcm
 .text._Z9cfgValvesv
                0x000000000000b940       0xb2 CMakeFiles/BrewTroller-OT_DX1_RIMSDF.elf.dir/UI.cpp.obj
                0x000000000000b940                _Z9cfgValvesv
 .text._Z9menuSetupv
                0x000000000000b9f2      0x122 CMakeFiles/BrewTroller-OT_DX1_RIMSDF.elf.dir/UI.cpp.obj
                0x000000000000b9f2                _Z9menuSetupv
 .text._Z11screenEnterv
                0x000000000000bb14      0xe78 CMakeFiles/BrewTroller-OT_DX1_RIMSDF.elf.dir/UI.cpp.obj
                0x000000000000bb14                _Z11screenEnterv
 .text._Z6uiCorev
                0x000000000000c98c       0x3e CMakeFiles/BrewTroller-OT_DX1_RIMSDF.elf.dir/UI.cpp.obj
                0x000000000000c98c                _Z6uiCorev
 .text._Z7strLPadPchc
                0x000000000000c9ca       0x80 CMakeFiles/BrewTroller-OT_DX1_RIMSDF.elf.dir/Util.cpp.obj
                0x000000000000c9ca                _Z7strLPadPchc
 .text._Z5vftoamPcjh
                0x000000000000ca4a      0x128 CMakeFiles/BrewTroller-OT_DX1_RIMSDF.elf.dir/Util.cpp.obj
                0x000000000000ca4a                _Z5vftoamPcjh
 .text._Z10truncFloatPch
                0x000000000000cb72       0x1c CMakeFiles/BrewTroller-OT_DX1_RIMSDF.elf.dir/Util.cpp.obj
                0x000000000000cb72                _Z10truncFloatPch
 .text._Z5pow10h
                0x000000000000cb8e       0x22 CMakeFiles/BrewTroller-OT_DX1_RIMSDF.elf.dir/Util.cpp.obj
                0x000000000000cb8e                _Z5pow10h
 .text._ZN6VesselC2EhPbhfhhddb
                0x000000000000cbb0      0x3ac CMakeFiles/BrewTroller-OT_DX1_RIMSDF.elf.dir/Vessel.cpp.obj
                0x000000000000cbb0                _ZN6VesselC1EhPbhfhhddb
                0x000000000000cbb0                _ZN6VesselC2EhPbhfhhddb
 .text._ZN6VesselD2Ev
                0x000000000000cf5c       0x10 CMakeFiles/BrewTroller-OT_DX1_RIMSDF.elf.dir/Vessel.cpp.obj
                0x000000000000cf5c                _ZN6VesselD2Ev
                0x000000000000cf5c                _ZN6VesselD1Ev
 .text._ZN6Vessel11getSetpointEv
                0x000000000000cf6c       0x16 CMakeFiles/BrewTroller-OT_DX1_RIMSDF.elf.dir/Vessel.cpp.obj
                0x000000000000cf6c                _ZN6Vessel11getSetpointEv
 .text._ZN6Vessel14getTemperatureEv
                0x000000000000cf82       0x10 CMakeFiles/BrewTroller-OT_DX1_RIMSDF.elf.dir/Vessel.cpp.obj
                0x000000000000cf82                _ZN6Vessel14getTemperatureEv
 .text._ZN6Vessel11setMaxPowerEh
                0x000000000000cf92       0x3e CMakeFiles/BrewTroller-OT_DX1_RIMSDF.elf.dir/Vessel.cpp.obj
                0x000000000000cf92                _ZN6Vessel11setMaxPowerEh
 .text._ZN6Vessel10setTuningsEddd
                0x000000000000cfd0       0x9a CMakeFiles/BrewTroller-OT_DX1_RIMSDF.elf.dir/Vessel.cpp.obj
                0x000000000000cfd0                _ZN6Vessel10setTuningsEddd
 .text._ZN6Vessel12setTSAddressEPh
                0x000000000000d06a       0x28 CMakeFiles/BrewTroller-OT_DX1_RIMSDF.elf.dir/Vessel.cpp.obj
                0x000000000000d06a                _ZN6Vessel12setTSAddressEPh
 .text._ZN6Vessel16updateHeatValvesEv
                0x000000000000d092       0xf2 CMakeFiles/BrewTroller-OT_DX1_RIMSDF.elf.dir/Vessel.cpp.obj
                0x000000000000d092                _ZN6Vessel16updateHeatValvesEv
 .text._ZN6Vessel12updateOutputEv
                0x000000000000d184      0x284 CMakeFiles/BrewTroller-OT_DX1_RIMSDF.elf.dir/Vessel.cpp.obj
                0x000000000000d184                _ZN6Vessel12updateOutputEv
 .text._ZN6Vessel11setSetpointEd
                0x000000000000d408       0xb6 CMakeFiles/BrewTroller-OT_DX1_RIMSDF.elf.dir/Vessel.cpp.obj
                0x000000000000d408                _ZN6Vessel11setSetpointEd
 .text._ZN6Vessel17updateTemperatureEv
                0x000000000000d4be      0x20c CMakeFiles/BrewTroller-OT_DX1_RIMSDF.elf.dir/Vessel.cpp.obj
                0x000000000000d4be                _ZN6Vessel17updateTemperatureEv
 .text._ZN6Vessel12manualOutputEi
                0x000000000000d6ca       0x44 CMakeFiles/BrewTroller-OT_DX1_RIMSDF.elf.dir/Vessel.cpp.obj
                0x000000000000d6ca                _ZN6Vessel12manualOutputEi
 .text._ZN6Vessel6setPIDEb
                0x000000000000d70e       0x50 CMakeFiles/BrewTroller-OT_DX1_RIMSDF.elf.dir/Vessel.cpp.obj
                0x000000000000d70e                _ZN6Vessel6setPIDEb
 .text._ZN6Vessel13setHysteresisEf
                0x000000000000d75e       0x50 CMakeFiles/BrewTroller-OT_DX1_RIMSDF.elf.dir/Vessel.cpp.obj
                0x000000000000d75e                _ZN6Vessel13setHysteresisEf
 .text._ZN6Vessel11setPIDCycleEf
                0x000000000000d7ae       0x4e CMakeFiles/BrewTroller-OT_DX1_RIMSDF.elf.dir/Vessel.cpp.obj
                0x000000000000d7ae                _ZN6Vessel11setPIDCycleEf
 .text._ZN6Vessel15setHeatOverrideE10SoftSwitch
                0x000000000000d7fc        0x6 CMakeFiles/BrewTroller-OT_DX1_RIMSDF.elf.dir/Vessel.cpp.obj
                0x000000000000d7fc                _ZN6Vessel15setHeatOverrideE10SoftSwitch
 .text._ZN6Vessel15getHeatOverrideEv
                0x000000000000d802        0x6 CMakeFiles/BrewTroller-OT_DX1_RIMSDF.elf.dir/Vessel.cpp.obj
                0x000000000000d802                _ZN6Vessel15getHeatOverrideEv
 .text._ZN6Vessel23updateVolumeCalibrationEhmi
                0x000000000000d808       0x84 CMakeFiles/BrewTroller-OT_DX1_RIMSDF.elf.dir/Vessel.cpp.obj
                0x000000000000d808                _ZN6Vessel23updateVolumeCalibrationEhmi
 .text._ZN6Vessel11setCapacityEf
                0x000000000000d88c       0x2e CMakeFiles/BrewTroller-OT_DX1_RIMSDF.elf.dir/Vessel.cpp.obj
                0x000000000000d88c                _ZN6Vessel11setCapacityEf
 .text._ZN6Vessel12setDeadspaceEf
                0x000000000000d8ba       0x2c CMakeFiles/BrewTroller-OT_DX1_RIMSDF.elf.dir/Vessel.cpp.obj
                0x000000000000d8ba                _ZN6Vessel12setDeadspaceEf
 .text._ZN6Vessel9getVolumeEv
                0x000000000000d8e6       0x1a CMakeFiles/BrewTroller-OT_DX1_RIMSDF.elf.dir/Vessel.cpp.obj
                0x000000000000d8e6                _ZN6Vessel9getVolumeEv
 .text._ZN6Vessel19getCalibrationValueEv
                0x000000000000d900       0x62 CMakeFiles/BrewTroller-OT_DX1_RIMSDF.elf.dir/Vessel.cpp.obj
                0x000000000000d900                _ZN6Vessel19getCalibrationValueEv
 .text._ZN6Vessel19updateFlowrateCalcsEv
                0x000000000000d962       0xee CMakeFiles/BrewTroller-OT_DX1_RIMSDF.elf.dir/Vessel.cpp.obj
                0x000000000000d962                _ZN6Vessel19updateFlowrateCalcsEv
 .text._ZN6Vessel17takeVolumeReadingEv
                0x000000000000da50       0xe4 CMakeFiles/BrewTroller-OT_DX1_RIMSDF.elf.dir/Vessel.cpp.obj
                0x000000000000da50                _ZN6Vessel17takeVolumeReadingEv
 .text._ZN6Vessel18updateValveConfigsEv
                0x000000000000db34      0x11a CMakeFiles/BrewTroller-OT_DX1_RIMSDF.elf.dir/Vessel.cpp.obj
                0x000000000000db34                _ZN6Vessel18updateValveConfigsEv
 .text._Z11initVesselsv
                0x000000000000dc4e       0xbc CMakeFiles/BrewTroller-OT_DX1_RIMSDF.elf.dir/Vessel.cpp.obj
                0x000000000000dc4e                _Z11initVesselsv
 .text._Z10updateVolsv
                0x000000000000dd0a       0x6e CMakeFiles/BrewTroller-OT_DX1_RIMSDF.elf.dir/Volume.cpp.obj
                0x000000000000dd0a                _Z10updateVolsv
 .text._Z10readVolumehPmPj
                0x000000000000dd78      0x400 CMakeFiles/BrewTroller-OT_DX1_RIMSDF.elf.dir/Volume.cpp.obj
                0x000000000000dd78                _Z10readVolumehPmPj
 .text.avr-libc
                0x000000000000e178      0x24e ../lib/libBT-libs.a(malloc.c.obj)
                0x000000000000e178                malloc
                0x000000000000e2a8                free
 .text._ZN14HardwareSerial9availableEv
                0x000000000000e3c6       0x24 ../lib/libBT-libs.a(HardwareSerial.cpp.obj)
                0x000000000000e3c6                _ZN14HardwareSerial9availableEv
 .text._ZN14HardwareSerial4peekEv
                0x000000000000e3ea       0x36 ../lib/libBT-libs.a(HardwareSerial.cpp.obj)
                0x000000000000e3ea                _ZN14HardwareSerial4peekEv
 .text._ZN14HardwareSerial4readEv
                0x000000000000e420       0x44 ../lib/libBT-libs.a(HardwareSerial.cpp.obj)
                0x000000000000e420                _ZN14HardwareSerial4readEv
 .text._ZN14HardwareSerial5flushEv
                0x000000000000e464       0x16 ../lib/libBT-libs.a(HardwareSerial.cpp.obj)
                0x000000000000e464                _ZN14HardwareSerial5flushEv
 .text._ZN14HardwareSerial5writeEh
                0x000000000000e47a       0x7a ../lib/libBT-libs.a(HardwareSerial.cpp.obj)
                0x000000000000e47a                _ZN14HardwareSerial5writeEh
 .text._Z11serialEventv
                0x000000000000e4f4        0x2 ../lib/libBT-libs.a(HardwareSerial.cpp.obj)
                0x000000000000e4f4                _Z11serialEventv
 .text.__vector_20
                0x000000000000e4f6       0x7c ../lib/libBT-libs.a(HardwareSerial.cpp.obj)
                0x000000000000e4f6                __vector_20
 .text._Z12serialEvent1v
                0x000000000000e572        0x2 ../lib/libBT-libs.a(HardwareSerial.cpp.obj)
                0x000000000000e572                _Z12serialEvent1v
 .text.__vector_28
                0x000000000000e574       0x7c ../lib/libBT-libs.a(HardwareSerial.cpp.obj)
                0x000000000000e574                __vector_28
 .text._Z14serialEventRunv
                0x000000000000e5f0       0x1a ../lib/libBT-libs.a(HardwareSerial.cpp.obj)
                0x000000000000e5f0                _Z14serialEventRunv
 .text.__vector_21
                0x000000000000e60a       0x7e ../lib/libBT-libs.a(HardwareSerial.cpp.obj)
                0x000000000000e60a                __vector_21
 .text.__vector_29
                0x000000000000e688       0x7e ../lib/libBT-libs.a(HardwareSerial.cpp.obj)
                0x000000000000e688                __vector_29
 .text._ZN14HardwareSerialC2EP11ring_bufferS1_PVhS3_S3_S3_S3_S3_hhhhh
                0x000000000000e706       0x64 ../lib/libBT-libs.a(HardwareSerial.cpp.obj)
                0x000000000000e706                _ZN14HardwareSerialC1EP11ring_bufferS1_PVhS3_S3_S3_S3_S3_hhhhh
                0x000000000000e706                _ZN14HardwareSerialC2EP11ring_bufferS1_PVhS3_S3_S3_S3_S3_hhhhh
 .text._ZN14HardwareSerial5beginEm
                0x000000000000e76a      0x106 ../lib/libBT-libs.a(HardwareSerial.cpp.obj)
                0x000000000000e76a                _ZN14HardwareSerial5beginEm
 .text._ZN14HardwareSerial5beginEmh
                0x000000000000e870      0x110 ../lib/libBT-libs.a(HardwareSerial.cpp.obj)
                0x000000000000e870                _ZN14HardwareSerial5beginEmh
 .text.startup._GLOBAL__sub_I_rx_buffer
                0x000000000000e980       0xa6 ../lib/libBT-libs.a(HardwareSerial.cpp.obj)
 .text._Znwj    0x000000000000ea26        0x4 ../lib/libBT-libs.a(new.cpp.obj)
                0x000000000000ea26                _Znwj
 .text._ZdlPv   0x000000000000ea2a        0x4 ../lib/libBT-libs.a(new.cpp.obj)
                0x000000000000ea2a                _ZdlPv
 .text._ZN5Print5writeEPKhj
                0x000000000000ea2e       0x44 ../lib/libBT-libs.a(Print.cpp.obj)
                0x000000000000ea2e                _ZN5Print5writeEPKhj
 .text._ZN5Print5printEPKc
                0x000000000000ea72        0x6 ../lib/libBT-libs.a(Print.cpp.obj)
                0x000000000000ea72                _ZN5Print5printEPKc
 .text._ZN5Print5printEc
                0x000000000000ea78       0x10 ../lib/libBT-libs.a(Print.cpp.obj)
                0x000000000000ea78                _ZN5Print5printEc
 .text._ZN5Print7printlnEv
                0x000000000000ea88       0x24 ../lib/libBT-libs.a(Print.cpp.obj)
                0x000000000000ea88                _ZN5Print7printlnEv
 .text._ZN5Print7printlnEPKc
                0x000000000000eaac       0x22 ../lib/libBT-libs.a(Print.cpp.obj)
                0x000000000000eaac                _ZN5Print7printlnEPKc
 .text._ZN5Print11printNumberEmh
                0x000000000000eace       0xba ../lib/libBT-libs.a(Print.cpp.obj)
                0x000000000000eace                _ZN5Print11printNumberEmh
 .text._ZN5Print5printEmi
                0x000000000000eb88       0x1a ../lib/libBT-libs.a(Print.cpp.obj)
                0x000000000000eb88                _ZN5Print5printEmi
 .text.__vector_18
                0x000000000000eba2       0x94 ../lib/libBT-libs.a(wiring.c.obj)
                0x000000000000eba2                __vector_18
 .text.millis   0x000000000000ec36       0x18 ../lib/libBT-libs.a(wiring.c.obj)
                0x000000000000ec36                millis
 .text.micros   0x000000000000ec4e       0x46 ../lib/libBT-libs.a(wiring.c.obj)
                0x000000000000ec4e                micros
 .text.delay    0x000000000000ec94       0x48 ../lib/libBT-libs.a(wiring.c.obj)
                0x000000000000ec94                delay
 .text.delayMicroseconds
                0x000000000000ecdc       0x16 ../lib/libBT-libs.a(wiring.c.obj)
                0x000000000000ecdc                delayMicroseconds
 .text.init     0x000000000000ecf2       0x90 ../lib/libBT-libs.a(wiring.c.obj)
                0x000000000000ecf2                init
 .text.analogRead
                0x000000000000ed82       0x3a ../lib/libBT-libs.a(wiring_analog.c.obj)
                0x000000000000ed82                analogRead
 .text.turnOffPWM
                0x000000000000edbc       0x5e ../lib/libBT-libs.a(wiring_digital.c.obj)
 .text.digitalWrite
                0x000000000000ee1a       0x64 ../lib/libBT-libs.a(wiring_digital.c.obj)
                0x000000000000ee1a                digitalWrite
 .text._ZN11EEPROMClass4readEi
                0x000000000000ee7e        0x6 ../lib/libBT-libs.a(EEPROM.cpp.obj)
                0x000000000000ee7e                _ZN11EEPROMClass4readEi
 .text._ZN11EEPROMClass5writeEih
                0x000000000000ee84        0x8 ../lib/libBT-libs.a(EEPROM.cpp.obj)
                0x000000000000ee84                _ZN11EEPROMClass5writeEih
 .text._ZN7TwoWire9availableEv
                0x000000000000ee8c       0x10 ../lib/libBT-libs.a(Wire.cpp.obj)
                0x000000000000ee8c                _ZN7TwoWire9availableEv
 .text._ZN7TwoWire4readEv
                0x000000000000ee9c       0x26 ../lib/libBT-libs.a(Wire.cpp.obj)
                0x000000000000ee9c                _ZN7TwoWire4readEv
 .text._ZN7TwoWire4peekEv
                0x000000000000eec2       0x1e ../lib/libBT-libs.a(Wire.cpp.obj)
                0x000000000000eec2                _ZN7TwoWire4peekEv
 .text._ZN7TwoWire5flushEv
                0x000000000000eee0        0x2 ../lib/libBT-libs.a(Wire.cpp.obj)
                0x000000000000eee0                _ZN7TwoWire5flushEv
 .text._ZN7TwoWire16onReceiveServiceEPhi
                0x000000000000eee2       0x46 ../lib/libBT-libs.a(Wire.cpp.obj)
                0x000000000000eee2                _ZN7TwoWire16onReceiveServiceEPhi
 .text._ZN7TwoWire16onRequestServiceEv
                0x000000000000ef28       0x18 ../lib/libBT-libs.a(Wire.cpp.obj)
                0x000000000000ef28                _ZN7TwoWire16onRequestServiceEv
 .text._ZN7TwoWire5writeEPKhj
                0x000000000000ef40       0x4c ../lib/libBT-libs.a(Wire.cpp.obj)
                0x000000000000ef40                _ZN7TwoWire5writeEPKhj
 .text._ZN7TwoWire5writeEh
                0x000000000000ef8c       0x5e ../lib/libBT-libs.a(Wire.cpp.obj)
                0x000000000000ef8c                _ZN7TwoWire5writeEh
 .text._ZN7TwoWireC2Ev
                0x000000000000efea       0x20 ../lib/libBT-libs.a(Wire.cpp.obj)
                0x000000000000efea                _ZN7TwoWireC2Ev
                0x000000000000efea                _ZN7TwoWireC1Ev
 .text._ZN7TwoWire5beginEv
                0x000000000000f00a       0x12 ../lib/libBT-libs.a(Wire.cpp.obj)
                0x000000000000f00a                _ZN7TwoWire5beginEv
 .text._ZN7TwoWire5beginEh
                0x000000000000f01c       0x20 ../lib/libBT-libs.a(Wire.cpp.obj)
                0x000000000000f01c                _ZN7TwoWire5beginEh
 .text._ZN7TwoWire5beginEi
                0x000000000000f03c        0x4 ../lib/libBT-libs.a(Wire.cpp.obj)
                0x000000000000f03c                _ZN7TwoWire5beginEi
 .text._ZN7TwoWire11requestFromEhhh
                0x000000000000f040       0x18 ../lib/libBT-libs.a(Wire.cpp.obj)
                0x000000000000f040                _ZN7TwoWire11requestFromEhhh
 .text._ZN7TwoWire11requestFromEhh
                0x000000000000f058        0x4 ../lib/libBT-libs.a(Wire.cpp.obj)
                0x000000000000f058                _ZN7TwoWire11requestFromEhh
 .text._ZN7TwoWire11requestFromEii
                0x000000000000f05c        0x4 ../lib/libBT-libs.a(Wire.cpp.obj)
                0x000000000000f05c                _ZN7TwoWire11requestFromEii
 .text._ZN7TwoWire17beginTransmissionEh
                0x000000000000f060       0x14 ../lib/libBT-libs.a(Wire.cpp.obj)
                0x000000000000f060                _ZN7TwoWire17beginTransmissionEh
 .text._ZN7TwoWire17beginTransmissionEi
                0x000000000000f074        0x4 ../lib/libBT-libs.a(Wire.cpp.obj)
                0x000000000000f074                _ZN7TwoWire17beginTransmissionEi
 .text._ZN7TwoWire15endTransmissionEh
                0x000000000000f078       0x24 ../lib/libBT-libs.a(Wire.cpp.obj)
                0x000000000000f078                _ZN7TwoWire15endTransmissionEh
 .text._ZN7TwoWire15endTransmissionEv
                0x000000000000f09c        0x4 ../lib/libBT-libs.a(Wire.cpp.obj)
                0x000000000000f09c                _ZN7TwoWire15endTransmissionEv
 .text.startup._GLOBAL__sub_I__ZN7TwoWire8rxBufferE
                0x000000000000f0a0        0x6 ../lib/libBT-libs.a(Wire.cpp.obj)
 .text.twi_init
                0x000000000000f0a6       0x38 ../lib/libBT-libs.a(twi.c.obj)
                0x000000000000f0a6                twi_init
 .text.twi_setAddress
                0x000000000000f0de        0x8 ../lib/libBT-libs.a(twi.c.obj)
                0x000000000000f0de                twi_setAddress
 .text.twi_readFrom
                0x000000000000f0e6       0x88 ../lib/libBT-libs.a(twi.c.obj)
                0x000000000000f0e6                twi_readFrom
 .text.twi_writeTo
                0x000000000000f16e       0xa6 ../lib/libBT-libs.a(twi.c.obj)
                0x000000000000f16e                twi_writeTo
 .text.twi_transmit
                0x000000000000f214       0x32 ../lib/libBT-libs.a(twi.c.obj)
                0x000000000000f214                twi_transmit
 .text.twi_attachSlaveRxEvent
                0x000000000000f246        0xa ../lib/libBT-libs.a(twi.c.obj)
                0x000000000000f246                twi_attachSlaveRxEvent
 .text.twi_attachSlaveTxEvent
                0x000000000000f250        0xa ../lib/libBT-libs.a(twi.c.obj)
                0x000000000000f250                twi_attachSlaveTxEvent
 .text.twi_stop
                0x000000000000f25a       0x14 ../lib/libBT-libs.a(twi.c.obj)
                0x000000000000f25a                twi_stop
 .text.twi_releaseBus
                0x000000000000f26e        0xc ../lib/libBT-libs.a(twi.c.obj)
                0x000000000000f26e                twi_releaseBus
 .text.__vector_26
                0x000000000000f27a      0x25c ../lib/libBT-libs.a(twi.c.obj)
                0x000000000000f27a                __vector_26
 .text._ZN7encoder17isEnterPinPressedEv
                0x000000000000f4d6       0x1a ../lib/libBT-libs.a(encoder.cpp.obj)
                0x000000000000f4d6                _ZN7encoder17isEnterPinPressedEv
 .text._ZN7encoderC2Ev
                0x000000000000f4f0       0x2a ../lib/libBT-libs.a(encoder.cpp.obj)
                0x000000000000f4f0                _ZN7encoderC1Ev
                0x000000000000f4f0                _ZN7encoderC2Ev
 .text._ZN7encoder5beginEh
                0x000000000000f51a        0x6 ../lib/libBT-libs.a(encoder.cpp.obj)
                0x000000000000f51a                _ZN7encoder5beginEh
 .text._ZN7encoder9i2cSetMinEi
                0x000000000000f520       0x44 ../lib/libBT-libs.a(encoder.cpp.obj)
                0x000000000000f520                _ZN7encoder9i2cSetMinEi
 .text._ZN7encoder6setMinEi
                0x000000000000f564       0x12 ../lib/libBT-libs.a(encoder.cpp.obj)
                0x000000000000f564                _ZN7encoder6setMinEi
 .text._ZN7encoder9i2cSetMaxEi
                0x000000000000f576       0x44 ../lib/libBT-libs.a(encoder.cpp.obj)
                0x000000000000f576                _ZN7encoder9i2cSetMaxEi
 .text._ZN7encoder6setMaxEi
                0x000000000000f5ba       0x12 ../lib/libBT-libs.a(encoder.cpp.obj)
                0x000000000000f5ba                _ZN7encoder6setMaxEi
 .text._ZN7encoder11i2cSetCountEi
                0x000000000000f5cc       0x44 ../lib/libBT-libs.a(encoder.cpp.obj)
                0x000000000000f5cc                _ZN7encoder11i2cSetCountEi
 .text._ZN7encoder8setCountEi
                0x000000000000f610       0x16 ../lib/libBT-libs.a(encoder.cpp.obj)
                0x000000000000f610                _ZN7encoder8setCountEi
 .text.startup._GLOBAL__sub_I__ZN7encoderC2Ev
                0x000000000000f626        0x6 ../lib/libBT-libs.a(encoder.cpp.obj)
 .text._ZN7encoder11i2cGetCountEv
                0x000000000000f62c       0x60 ../lib/libBT-libs.a(encoder.cpp.obj)
                0x000000000000f62c                _ZN7encoder11i2cGetCountEv
 .text._ZN7encoder8getCountEv
                0x000000000000f68c       0x12 ../lib/libBT-libs.a(encoder.cpp.obj)
                0x000000000000f68c                _ZN7encoder8getCountEv
 .text._ZN7encoder9i2cChangeEv
                0x000000000000f69e       0x56 ../lib/libBT-libs.a(encoder.cpp.obj)
                0x000000000000f69e                _ZN7encoder9i2cChangeEv
 .text._ZN7encoder11i2cGetDeltaEv
                0x000000000000f6f4       0x5e ../lib/libBT-libs.a(encoder.cpp.obj)
                0x000000000000f6f4                _ZN7encoder11i2cGetDeltaEv
 .text._ZN7encoder8getDeltaEv
                0x000000000000f752       0x28 ../lib/libBT-libs.a(encoder.cpp.obj)
                0x000000000000f752                _ZN7encoder8getDeltaEv
 .text._ZN7encoder6changeEv
                0x000000000000f77a       0x2a ../lib/libBT-libs.a(encoder.cpp.obj)
                0x000000000000f77a                _ZN7encoder6changeEv
 .text._ZN7encoder5i2cOkEv
                0x000000000000f7a4       0x4c ../lib/libBT-libs.a(encoder.cpp.obj)
                0x000000000000f7a4                _ZN7encoder5i2cOkEv
 .text._ZN7encoder2okEv
                0x000000000000f7f0       0x1c ../lib/libBT-libs.a(encoder.cpp.obj)
                0x000000000000f7f0                _ZN7encoder2okEv
 .text._ZN7encoder9i2cCancelEv
                0x000000000000f80c       0x4c ../lib/libBT-libs.a(encoder.cpp.obj)
                0x000000000000f80c                _ZN7encoder9i2cCancelEv
 .text._ZN7encoder6cancelEv
                0x000000000000f858       0x68 ../lib/libBT-libs.a(encoder.cpp.obj)
                0x000000000000f858                _ZN7encoder6cancelEv
 .text._ZN8PCI_PortC2EiiRVh
                0x000000000000f8c0       0x52 ../lib/libBT-libs.a(pin.cpp.obj)
                0x000000000000f8c0                _ZN8PCI_PortC2EiiRVh
                0x000000000000f8c0                _ZN8PCI_PortC1EiiRVh
 .text._ZN3pinC2Ev
                0x000000000000f912        0xc ../lib/libBT-libs.a(pin.cpp.obj)
                0x000000000000f912                _ZN3pinC2Ev
                0x000000000000f912                _ZN3pinC1Ev
 .text._ZN3pin5setupEhh
                0x000000000000f91e       0x56 ../lib/libBT-libs.a(pin.cpp.obj)
                0x000000000000f91e                _ZN3pin5setupEhh
 .text._ZN3pin3setEv
                0x000000000000f974       0x42 ../lib/libBT-libs.a(pin.cpp.obj)
                0x000000000000f974                _ZN3pin3setEv
 .text._ZN3pin5clearEv
                0x000000000000f9b6       0x4a ../lib/libBT-libs.a(pin.cpp.obj)
                0x000000000000f9b6                _ZN3pin5clearEv
 .text._ZN3pin6toggleEv
                0x000000000000fa00       0x42 ../lib/libBT-libs.a(pin.cpp.obj)
                0x000000000000fa00                _ZN3pin6toggleEv
 .text._ZN3pin3setEh
                0x000000000000fa42        0x8 ../lib/libBT-libs.a(pin.cpp.obj)
                0x000000000000fa42                _ZN3pin3setEh
 .text._ZN3pin3getEv
                0x000000000000fa4a       0x30 ../lib/libBT-libs.a(pin.cpp.obj)
                0x000000000000fa4a                _ZN3pin3getEv
 .text._ZN8PCI_Port6addPinEhhhPFvvE
                0x000000000000fa7a       0x96 ../lib/libBT-libs.a(pin.cpp.obj)
                0x000000000000fa7a                _ZN8PCI_Port6addPinEhhhPFvvE
 .text._ZN3pin11attachPCIntEiPFvvE
                0x000000000000fb10       0x62 ../lib/libBT-libs.a(pin.cpp.obj)
                0x000000000000fb10                _ZN3pin11attachPCIntEiPFvvE
 .text._ZN8PCI_Port6delPinEh
                0x000000000000fb72       0xc2 ../lib/libBT-libs.a(pin.cpp.obj)
                0x000000000000fb72                _ZN8PCI_Port6delPinEh
 .text._ZN3pin11detachPCIntEv
                0x000000000000fc34       0x34 ../lib/libBT-libs.a(pin.cpp.obj)
                0x000000000000fc34                _ZN3pin11detachPCIntEv
 .text._ZN8PCI_Port12PCintHandlerEv
                0x000000000000fc68       0x6a ../lib/libBT-libs.a(pin.cpp.obj)
                0x000000000000fc68                _ZN8PCI_Port12PCintHandlerEv
 .text.__vector_4
                0x000000000000fcd2       0x52 ../lib/libBT-libs.a(pin.cpp.obj)
                0x000000000000fcd2                __vector_4
 .text.__vector_5
                0x000000000000fd24       0x52 ../lib/libBT-libs.a(pin.cpp.obj)
                0x000000000000fd24                __vector_5
 .text.__vector_6
                0x000000000000fd76       0x52 ../lib/libBT-libs.a(pin.cpp.obj)
                0x000000000000fd76                __vector_6
 .text.__vector_7
                0x000000000000fdc8       0x52 ../lib/libBT-libs.a(pin.cpp.obj)
                0x000000000000fdc8                __vector_7
 .text.startup._GLOBAL__sub_I__ZN8PCI_Port7PCI_Pin11s_pcIntPinsE
                0x000000000000fe1a       0x70 ../lib/libBT-libs.a(pin.cpp.obj)
 .text._ZN4menuC2Ehh
                0x000000000000fe8a       0x26 ../lib/libBT-libs.a(menu.cpp.obj)
                0x000000000000fe8a                _ZN4menuC1Ehh
                0x000000000000fe8a                _ZN4menuC2Ehh
 .text._ZN4menuD2Ev
                0x000000000000feb0        0xa ../lib/libBT-libs.a(menu.cpp.obj)
                0x000000000000feb0                _ZN4menuD2Ev
                0x000000000000feb0                _ZN4menuD1Ev
 .text._ZN4menu11setSelectedEh
                0x000000000000feba        0x6 ../lib/libBT-libs.a(menu.cpp.obj)
                0x000000000000feba                _ZN4menu11setSelectedEh
 .text._ZN4menu11getSelectedEv
                0x000000000000fec0        0x6 ../lib/libBT-libs.a(menu.cpp.obj)
                0x000000000000fec0                _ZN4menu11getSelectedEv
 .text._ZN4menu11refreshDispEv
                0x000000000000fec6       0x2c ../lib/libBT-libs.a(menu.cpp.obj)
                0x000000000000fec6                _ZN4menu11refreshDispEv
 .text._ZN4menu13getVisibleRowEhPc
                0x000000000000fef2       0x52 ../lib/libBT-libs.a(menu.cpp.obj)
                0x000000000000fef2                _ZN4menu13getVisibleRowEhPc
 .text._ZN4menu14getSelectedRowEPc
                0x000000000000ff44       0x32 ../lib/libBT-libs.a(menu.cpp.obj)
                0x000000000000ff44                _ZN4menu14getSelectedRowEPc
 .text._ZN4menu8getValueEv
                0x000000000000ff76       0x1e ../lib/libBT-libs.a(menu.cpp.obj)
                0x000000000000ff76                _ZN4menu8getValueEv
 .text._ZN4menu9getCursorEv
                0x000000000000ff94       0x14 ../lib/libBT-libs.a(menu.cpp.obj)
                0x000000000000ff94                _ZN4menu9getCursorEv
 .text._ZN4menu12getItemCountEv
                0x000000000000ffa8        0x6 ../lib/libBT-libs.a(menu.cpp.obj)
                0x000000000000ffa8                _ZN4menu12getItemCountEv
 .text._ZN4menu15getIndexByValueEh
                0x000000000000ffae       0x36 ../lib/libBT-libs.a(menu.cpp.obj)
                0x000000000000ffae                _ZN4menu15getIndexByValueEh
 .text._ZN4menu7setItemEPch
                0x000000000000ffe4       0x52 ../lib/libBT-libs.a(menu.cpp.obj)
                0x000000000000ffe4                _ZN4menu7setItemEPch
 .text._ZN4menu9setItem_PEPKch
                0x0000000000010036       0x52 ../lib/libBT-libs.a(menu.cpp.obj)
                0x0000000000010036                _ZN4menu9setItem_PEPKch
 .text._ZN4menu10appendItemEPKch
                0x0000000000010088       0x38 ../lib/libBT-libs.a(menu.cpp.obj)
                0x0000000000010088                _ZN4menu10appendItemEPKch
 .text._ZN4menu12appendItem_PEPKch
                0x00000000000100c0       0x38 ../lib/libBT-libs.a(menu.cpp.obj)
                0x00000000000100c0                _ZN4menu12appendItem_PEPKch
 .text._ZN4menu18setSelectedByValueEh
                0x00000000000100f8       0x10 ../lib/libBT-libs.a(menu.cpp.obj)
                0x00000000000100f8                _ZN4menu18setSelectedByValueEh
 .text._ZL13_crc16_updatejh
                0x0000000000010108       0x30 ../lib/libBT-libs.a(ModbusMaster.cpp.obj)
 .text._ZN12ModbusMasterC2Ev
                0x0000000000010138        0xa ../lib/libBT-libs.a(ModbusMaster.cpp.obj)
                0x0000000000010138                _ZN12ModbusMasterC1Ev
                0x0000000000010138                _ZN12ModbusMasterC2Ev
 .text._ZN12ModbusMasterC2Ehh
                0x0000000000010142       0x14 ../lib/libBT-libs.a(ModbusMaster.cpp.obj)
                0x0000000000010142                _ZN12ModbusMasterC1Ehh
                0x0000000000010142                _ZN12ModbusMasterC2Ehh
 .text._ZN12ModbusMaster5beginEmh
                0x0000000000010156      0x210 ../lib/libBT-libs.a(ModbusMaster.cpp.obj)
                0x0000000000010156                _ZN12ModbusMaster5beginEmh
 .text._ZN12ModbusMaster8setupRTSEh
                0x0000000000010366       0x46 ../lib/libBT-libs.a(ModbusMaster.cpp.obj)
                0x0000000000010366                _ZN12ModbusMaster8setupRTSEh
 .text._ZN12ModbusMaster17getResponseBufferEh
                0x00000000000103ac       0x1a ../lib/libBT-libs.a(ModbusMaster.cpp.obj)
                0x00000000000103ac                _ZN12ModbusMaster17getResponseBufferEh
 .text._ZN12ModbusMaster17setTransmitBufferEhj
                0x00000000000103c6       0x1e ../lib/libBT-libs.a(ModbusMaster.cpp.obj)
                0x00000000000103c6                _ZN12ModbusMaster17setTransmitBufferEhj
 .text._ZN12ModbusMaster23ModbusMasterTransactionEh
                0x00000000000103e4      0x54e ../lib/libBT-libs.a(ModbusMaster.cpp.obj)
                0x00000000000103e4                _ZN12ModbusMaster23ModbusMasterTransactionEh
 .text._ZN12ModbusMaster9readCoilsEjj
                0x0000000000010932        0xe ../lib/libBT-libs.a(ModbusMaster.cpp.obj)
                0x0000000000010932                _ZN12ModbusMaster9readCoilsEjj
 .text._ZN12ModbusMaster20readHoldingRegistersEjj
                0x0000000000010940        0xe ../lib/libBT-libs.a(ModbusMaster.cpp.obj)
                0x0000000000010940                _ZN12ModbusMaster20readHoldingRegistersEjj
 .text._ZN12ModbusMaster19writeSingleRegisterEjj
                0x000000000001094e       0x22 ../lib/libBT-libs.a(ModbusMaster.cpp.obj)
                0x000000000001094e                _ZN12ModbusMaster19writeSingleRegisterEjj
 .text._ZN12ModbusMaster18writeMultipleCoilsEjj
                0x0000000000010970       0x18 ../lib/libBT-libs.a(ModbusMaster.cpp.obj)
                0x0000000000010970                _ZN12ModbusMaster18writeMultipleCoilsEjj
 .text.startup._GLOBAL__sub_I_MBSerial
                0x0000000000010988      0x10e ../lib/libBT-libs.a(ModbusMaster.cpp.obj)
 .text._ZN3PID14SetInputLimitsEdd
                0x0000000000010a96      0x10a ../lib/libBT-libs.a(PID_Beta6.cpp.obj)
                0x0000000000010a96                _ZN3PID14SetInputLimitsEdd
 .text._ZN3PID15SetOutputLimitsEdd
                0x0000000000010ba0       0xb6 ../lib/libBT-libs.a(PID_Beta6.cpp.obj)
                0x0000000000010ba0                _ZN3PID15SetOutputLimitsEdd
 .text._ZN3PID10SetTuningsEddd
                0x0000000000010c56      0x152 ../lib/libBT-libs.a(PID_Beta6.cpp.obj)
                0x0000000000010c56                _ZN3PID10SetTuningsEddd
 .text._ZN3PID17ConstructorCommonEPdS0_S0_ddd
                0x0000000000010da8       0x98 ../lib/libBT-libs.a(PID_Beta6.cpp.obj)
                0x0000000000010da8                _ZN3PID17ConstructorCommonEPdS0_S0_ddd
 .text._ZN3PID5ResetEv
                0x0000000000010e40       0x9a ../lib/libBT-libs.a(PID_Beta6.cpp.obj)
                0x0000000000010e40                _ZN3PID5ResetEv
 .text._ZN3PIDC2EPdS0_S0_ddd
                0x0000000000010eda       0x34 ../lib/libBT-libs.a(PID_Beta6.cpp.obj)
                0x0000000000010eda                _ZN3PIDC1EPdS0_S0_ddd
                0x0000000000010eda                _ZN3PIDC2EPdS0_S0_ddd
 .text._ZN3PIDC2EPdS0_S0_S0_ddd
                0x0000000000010f0e       0x44 ../lib/libBT-libs.a(PID_Beta6.cpp.obj)
                0x0000000000010f0e                _ZN3PIDC1EPdS0_S0_S0_ddd
                0x0000000000010f0e                _ZN3PIDC2EPdS0_S0_S0_ddd
 .text._ZN3PID7SetModeEi
                0x0000000000010f52       0x30 ../lib/libBT-libs.a(PID_Beta6.cpp.obj)
                0x0000000000010f52                _ZN3PID7SetModeEi
 .text._ZN3PID13SetSampleTimeEi
                0x0000000000010f82       0xca ../lib/libBT-libs.a(PID_Beta6.cpp.obj)
                0x0000000000010f82                _ZN3PID13SetSampleTimeEi
 .text._ZN3PID7ComputeEv
                0x000000000001104c      0x314 ../lib/libBT-libs.a(PID_Beta6.cpp.obj)
                0x000000000001104c                _ZN3PID7ComputeEv
 .text._ZN3PID13GetSampleTimeEv
                0x0000000000011360        0x8 ../lib/libBT-libs.a(PID_Beta6.cpp.obj)
                0x0000000000011360                _ZN3PID13GetSampleTimeEv
 .text._ZN3PID10GetP_ParamEv
                0x0000000000011368        0xc ../lib/libBT-libs.a(PID_Beta6.cpp.obj)
                0x0000000000011368                _ZN3PID10GetP_ParamEv
 .text._ZN3PID10GetI_ParamEv
                0x0000000000011374        0xc ../lib/libBT-libs.a(PID_Beta6.cpp.obj)
                0x0000000000011374                _ZN3PID10GetI_ParamEv
 .text._ZN3PID10GetD_ParamEv
                0x0000000000011380        0xc ../lib/libBT-libs.a(PID_Beta6.cpp.obj)
                0x0000000000011380                _ZN3PID10GetD_ParamEv
 .text._ZN6DS2482C2Eh
                0x000000000001138c        0x8 ../lib/libBT-libs.a(DS2482.cpp.obj)
                0x000000000001138c                _ZN6DS2482C1Eh
                0x000000000001138c                _ZN6DS2482C2Eh
 .text._ZN6DS248212reset_searchEv
                0x0000000000011394       0x20 ../lib/libBT-libs.a(DS2482.cpp.obj)
                0x0000000000011394                _ZN6DS248212reset_searchEv
 .text._ZN6DS248210setReadPtrEh
                0x00000000000113b4       0x32 ../lib/libBT-libs.a(DS2482.cpp.obj)
                0x00000000000113b4                _ZN6DS248210setReadPtrEh
 .text._ZN6DS24828readByteEv
                0x00000000000113e6       0x16 ../lib/libBT-libs.a(DS2482.cpp.obj)
                0x00000000000113e6                _ZN6DS24828readByteEv
 .text._ZN6DS248214wireReadStatusEb
                0x00000000000113fc       0x18 ../lib/libBT-libs.a(DS2482.cpp.obj)
                0x00000000000113fc                _ZN6DS248214wireReadStatusEb
 .text._ZN6DS24828busyWaitEb
                0x0000000000011414       0x3c ../lib/libBT-libs.a(DS2482.cpp.obj)
                0x0000000000011414                _ZN6DS24828busyWaitEb
 .text._ZN6DS24825resetEv
                0x0000000000011450       0x38 ../lib/libBT-libs.a(DS2482.cpp.obj)
                0x0000000000011450                _ZN6DS24825resetEv
 .text._ZN6DS24825writeEhh
                0x0000000000011488       0x3e ../lib/libBT-libs.a(DS2482.cpp.obj)
                0x0000000000011488                _ZN6DS24825writeEhh
 .text._ZN6DS24824skipEv
                0x00000000000114c6        0x6 ../lib/libBT-libs.a(DS2482.cpp.obj)
                0x00000000000114c6                _ZN6DS24824skipEv
 .text._ZN6DS24826selectEPh
                0x00000000000114cc       0x36 ../lib/libBT-libs.a(DS2482.cpp.obj)
                0x00000000000114cc                _ZN6DS24826selectEPh
 .text._ZN6DS24826searchEPh
                0x0000000000011502      0x134 ../lib/libBT-libs.a(DS2482.cpp.obj)
                0x0000000000011502                _ZN6DS24826searchEPh
 .text._ZN6DS24829configureEh
                0x0000000000011636       0x60 ../lib/libBT-libs.a(DS2482.cpp.obj)
                0x0000000000011636                _ZN6DS24829configureEh
 .text._ZN6DS24824readEv
                0x0000000000011696       0x3e ../lib/libBT-libs.a(DS2482.cpp.obj)
                0x0000000000011696                _ZN6DS24824readEv
 .text.__vector_1
                0x00000000000116d4       0x62 ../lib/libBT-libs.a(WInterrupts.c.obj)
                0x00000000000116d4                __vector_1
 .text.__vector_2
                0x0000000000011736       0x62 ../lib/libBT-libs.a(WInterrupts.c.obj)
                0x0000000000011736                __vector_2
 .text.__vector_3
                0x0000000000011798       0x62 ../lib/libBT-libs.a(WInterrupts.c.obj)
                0x0000000000011798                __vector_3
 .text._Z8makeWordhh
                0x00000000000117fa        0xa ../lib/libBT-libs.a(WMath.cpp.obj)
                0x00000000000117fa                _Z8makeWordhh
 .text.libgcc.mul
                0x0000000000011804       0x1e /usr/lib/gcc/avr/4.8.2/avr51/libgcc.a(_umulhisi3.o)
                0x0000000000011804                __umulhisi3
 .text.libgcc.mul
                0x0000000000011822        0xc /usr/lib/gcc/avr/4.8.2/avr51/libgcc.a(_usmulhisi3.o)
                0x0000000000011822                __usmulhisi3
                0x0000000000011824                __usmulhisi3_tail
 .text.libgcc.mul
                0x000000000001182e       0x14 /usr/lib/gcc/avr/4.8.2/avr51/libgcc.a(_muluhisi3.o)
                0x000000000001182e                __muluhisi3
 .text.libgcc.mul
                0x0000000000011842       0x1e /usr/lib/gcc/avr/4.8.2/avr51/libgcc.a(_mulsi3.o)
                0x0000000000011842                __mulsi3
 .text.libgcc.div
                0x0000000000011860       0x28 /usr/lib/gcc/avr/4.8.2/avr51/libgcc.a(_udivmodhi4.o)
                0x0000000000011860                __udivmodhi4
 .text.libgcc.div
                0x0000000000011888       0x26 /usr/lib/gcc/avr/4.8.2/avr51/libgcc.a(_divmodhi4.o)
                0x0000000000011888                __divmodhi4
                0x0000000000011888                _div
 .text.libgcc.div
                0x00000000000118ae       0x44 /usr/lib/gcc/avr/4.8.2/avr51/libgcc.a(_udivmodsi4.o)
                0x00000000000118ae                __udivmodsi4
 .text.libgcc.div
                0x00000000000118f2       0x28 /usr/lib/gcc/avr/4.8.2/avr51/libgcc.a(_divmodsi4.o)
                0x00000000000118f2                __divmodsi4
 .text.libgcc.div
                0x000000000001191a       0x10 /usr/lib/gcc/avr/4.8.2/avr51/libgcc.a(_negsi2.o)
                0x000000000001191a                __negsi2
 .text.libgcc.prologue
                0x000000000001192a       0x38 /usr/lib/gcc/avr/4.8.2/avr51/libgcc.a(_prologue.o)
                0x000000000001192a                __prologue_saves__
 .text.libgcc.prologue
                0x0000000000011962       0x36 /usr/lib/gcc/avr/4.8.2/avr51/libgcc.a(_epilogue.o)
                0x0000000000011962                __epilogue_restores__
 .text.libgcc   0x0000000000011998        0xc /usr/lib/gcc/avr/4.8.2/avr51/libgcc.a(_tablejump.o)
                0x0000000000011998                __tablejump2__
                0x000000000001199c                __tablejump__
 .text.libgcc   0x00000000000119a4        0x8 /usr/lib/gcc/avr/4.8.2/avr51/libgcc.a(_tablejump_elpm.o)
                0x00000000000119a4                __tablejump_elpm__
 .text.avr-libc.fplib
                0x00000000000119ac        0xa /usr/lib/gcc/avr/4.8.2/../../../avr/lib/avr51/libm.a(addsf3.o)
                0x00000000000119ac                __subsf3
                0x00000000000119ae                __addsf3
 .text.avr-libc.fplib
                0x00000000000119b6       0xc0 /usr/lib/gcc/avr/4.8.2/../../../avr/lib/avr51/libm.a(addsf3x.o)
                0x00000000000119d0                __addsf3x
 .text.avr-libc.fplib
                0x0000000000011a76        0x8 /usr/lib/gcc/avr/4.8.2/../../../avr/lib/avr51/libm.a(cmpsf2.o)
                0x0000000000011a76                __lesf2
                0x0000000000011a76                __nesf2
                0x0000000000011a76                __eqsf2
                0x0000000000011a76                __cmpsf2
                0x0000000000011a76                __ltsf2
 .text.avr-libc.fplib
                0x0000000000011a7e        0x4 /usr/lib/gcc/avr/4.8.2/../../../avr/lib/avr51/libm.a(divsf3.o)
                0x0000000000011a7e                __divsf3
 .text.avr-libc.fplib
                0x0000000000011a82       0xcc /usr/lib/gcc/avr/4.8.2/../../../avr/lib/avr51/libm.a(divsf3x.o)
                0x0000000000011a98                __divsf3x
                0x0000000000011a9c                __divsf3_pse
 .text.avr-libc.fplib
                0x0000000000011b4e        0xa /usr/lib/gcc/avr/4.8.2/../../../avr/lib/avr51/libm.a(fixsfsi.o)
                0x0000000000011b4e                __fixsfsi
 .text.avr-libc.fplib
                0x0000000000011b58       0x58 /usr/lib/gcc/avr/4.8.2/../../../avr/lib/avr51/libm.a(fixunssfsi.o)
                0x0000000000011b58                __fixunssfsi
 .text.avr-libc.fplib
                0x0000000000011bb0       0x7a /usr/lib/gcc/avr/4.8.2/../../../avr/lib/avr51/libm.a(floatsisf.o)
                0x0000000000011bb0                __floatunsisf
                0x0000000000011bb4                __floatsisf
 .text.avr-libc.fplib
                0x0000000000011c2a       0x48 /usr/lib/gcc/avr/4.8.2/../../../avr/lib/avr51/libm.a(fp_cmp.o)
                0x0000000000011c2a                __fp_cmp
 .text.avr-libc.fplib
                0x0000000000011c72        0xc /usr/lib/gcc/avr/4.8.2/../../../avr/lib/avr51/libm.a(fp_inf.o)
                0x0000000000011c72                __fp_inf
 .text.avr-libc.fplib
                0x0000000000011c7e        0x6 /usr/lib/gcc/avr/4.8.2/../../../avr/lib/avr51/libm.a(fp_nan.o)
                0x0000000000011c7e                __fp_nan
 .text.avr-libc.fplib
                0x0000000000011c84        0xe /usr/lib/gcc/avr/4.8.2/../../../avr/lib/avr51/libm.a(fp_pscA.o)
                0x0000000000011c84                __fp_pscA
 .text.avr-libc.fplib
                0x0000000000011c92        0xe /usr/lib/gcc/avr/4.8.2/../../../avr/lib/avr51/libm.a(fp_pscB.o)
                0x0000000000011c92                __fp_pscB
 .text.avr-libc.fplib
                0x0000000000011ca0       0x22 /usr/lib/gcc/avr/4.8.2/../../../avr/lib/avr51/libm.a(fp_round.o)
                0x0000000000011ca0                __fp_round
 .text.avr-libc.fplib
                0x0000000000011cc2       0x44 /usr/lib/gcc/avr/4.8.2/../../../avr/lib/avr51/libm.a(fp_split3.o)
                0x0000000000011cc2                __fp_split3
                0x0000000000011cd2                __fp_splitA
 .text.avr-libc.fplib
                0x0000000000011d06        0xe /usr/lib/gcc/avr/4.8.2/../../../avr/lib/avr51/libm.a(fp_zero.o)
                0x0000000000011d06                __fp_zero
                0x0000000000011d08                __fp_szero
 .text.avr-libc.fplib
                0x0000000000011d14        0x8 /usr/lib/gcc/avr/4.8.2/../../../avr/lib/avr51/libm.a(gesf2.o)
                0x0000000000011d14                __gtsf2
                0x0000000000011d14                __gesf2
 .text.avr-libc.fplib
                0x0000000000011d1c        0x4 /usr/lib/gcc/avr/4.8.2/../../../avr/lib/avr51/libm.a(mulsf3.o)
                0x0000000000011d1c                __mulsf3
 .text.avr-libc.fplib
                0x0000000000011d20       0xc2 /usr/lib/gcc/avr/4.8.2/../../../avr/lib/avr51/libm.a(mulsf3x.o)
                0x0000000000011d34                __mulsf3x
                0x0000000000011d38                __mulsf3_pse
 .text.avr-libc.fplib
                0x0000000000011de2       0x98 /usr/lib/gcc/avr/4.8.2/../../../avr/lib/avr51/libm.a(pow.o)
                0x0000000000011de2                pow
 .text.avr-libc.fplib
                0x0000000000011e7a       0x62 /usr/lib/gcc/avr/4.8.2/../../../avr/lib/avr51/libm.a(exp.o)
                0x0000000000011e84                exp
 .text.avr-libc.fplib
                0x0000000000011edc       0x4a /usr/lib/gcc/avr/4.8.2/../../../avr/lib/avr51/libm.a(fp_powser.o)
                0x0000000000011edc                __fp_powser
 .text.avr-libc.fplib
                0x0000000000011f26        0xe /usr/lib/gcc/avr/4.8.2/../../../avr/lib/avr51/libm.a(inverse.o)
                0x0000000000011f26                inverse
 .text.avr-libc.fplib
                0x0000000000011f34       0x6c /usr/lib/gcc/avr/4.8.2/../../../avr/lib/avr51/libm.a(ldexp.o)
                0x0000000000011f38                ldexp
 .text.avr-libc.fplib
                0x0000000000011fa0       0x8a /usr/lib/gcc/avr/4.8.2/../../../avr/lib/avr51/libm.a(log.o)
                0x0000000000011faa                log
 .text.avr-libc.fplib
                0x000000000001202a       0x66 /usr/lib/gcc/avr/4.8.2/../../../avr/lib/avr51/libm.a(modf.o)
                0x000000000001202a                modff
                0x000000000001202a                modf
 .text.avr-libc.fplib
                0x0000000000012090       0x1c /usr/lib/gcc/avr/4.8.2/../../../avr/lib/avr51/libm.a(fp_mpack.o)
                0x0000000000012090                __fp_mpack
                0x0000000000012094                __fp_mpack_finite
 .text.avr-libc
                0x00000000000120ac      0x222 /usr/lib/gcc/avr/4.8.2/../../../avr/lib/avr51/libc.a(strtoul.o)
                0x00000000000120ac                strtoul
 .text.avr-libc
                0x00000000000122ce       0x3a /usr/lib/gcc/avr/4.8.2/../../../avr/lib/avr51/libc.a(atoi.o)
                0x00000000000122ce                atoi
 .text.avr-libc
                0x0000000000012308       0x10 /usr/lib/gcc/avr/4.8.2/../../../avr/lib/avr51/libc.a(isspace.o)
                0x0000000000012308                isspace
 .text.avr-libc
                0x0000000000012318       0x12 /usr/lib/gcc/avr/4.8.2/../../../avr/lib/avr51/libc.a(memcpy_P.o)
                0x0000000000012318                memcpy_P
 .text.avr-libc
                0x000000000001232a       0x16 /usr/lib/gcc/avr/4.8.2/../../../avr/lib/avr51/libc.a(strcat_P.o)
                0x000000000001232a                strcat_P
 .text.avr-libc
                0x0000000000012340        0xe /usr/lib/gcc/avr/4.8.2/../../../avr/lib/avr51/libc.a(strcpy_P.o)
                0x0000000000012340                strcpy_P
 .text.avr-libc
                0x000000000001234e       0x12 /usr/lib/gcc/avr/4.8.2/../../../avr/lib/avr51/libc.a(strlen_P.o)
                0x000000000001234e                __strlen_P
 .text.avr-libc
                0x0000000000012360       0x12 /usr/lib/gcc/avr/4.8.2/../../../avr/lib/avr51/libc.a(memcpy.o)
                0x0000000000012360                memcpy
 .text.avr-libc
                0x0000000000012372        0xe /usr/lib/gcc/avr/4.8.2/../../../avr/lib/avr51/libc.a(memset.o)
                0x0000000000012372                memset
 .text.avr-libc
                0x0000000000012380       0x26 /usr/lib/gcc/avr/4.8.2/../../../avr/lib/avr51/libc.a(strcasecmp.o)
                0x0000000000012380                strcasecmp
 .text.avr-libc
                0x00000000000123a6       0x16 /usr/lib/gcc/avr/4.8.2/../../../avr/lib/avr51/libc.a(strcat.o)
                0x00000000000123a6                strcat
 .text.avr-libc
                0x00000000000123bc        0xe /usr/lib/gcc/avr/4.8.2/../../../avr/lib/avr51/libc.a(strcpy.o)
                0x00000000000123bc                strcpy
 .text.avr-libc
                0x00000000000123ca       0x3e /usr/lib/gcc/avr/4.8.2/../../../avr/lib/avr51/libc.a(itoa.o)
                0x00000000000123ca                itoa
 .text.avr-libc
                0x0000000000012408       0x10 /usr/lib/gcc/avr/4.8.2/../../../avr/lib/avr51/libc.a(mul10.o)
                0x0000000000012408                __mulhi_const_10
 .text.avr-libc
                0x0000000000012418       0x46 /usr/lib/gcc/avr/4.8.2/../../../avr/lib/avr51/libc.a(ultoa.o)
                0x0000000000012418                ultoa
 .text.avr-libc
                0x000000000001245e       0x20 /usr/lib/gcc/avr/4.8.2/../../../avr/lib/avr51/libc.a(eerd_block_atmega1284p.o)
                0x000000000001245e                __eerd_block_m1284p
                0x0000000000012462                __eerd_blraw_m1284p
 .text.avr-libc
                0x000000000001247e       0x10 /usr/lib/gcc/avr/4.8.2/../../../avr/lib/avr51/libc.a(eerd_byte_atmega1284p.o)
                0x000000000001247e                __eerd_byte_m1284p
 .text.avr-libc
                0x000000000001248e       0x12 /usr/lib/gcc/avr/4.8.2/../../../avr/lib/avr51/libc.a(eewr_block_atmega1284p.o)
                0x000000000001248e                __eewr_block_m1284p
 .text.avr-libc
                0x00000000000124a0       0x1c /usr/lib/gcc/avr/4.8.2/../../../avr/lib/avr51/libc.a(eewr_byte_atmega1284p.o)
                0x00000000000124a0                __eewr_byte_m1284p
                0x00000000000124a2                __eewr_r18_m1284p
 .text.avr-libc
                0x00000000000124bc        0x6 /usr/lib/gcc/avr/4.8.2/../../../avr/lib/avr51/libc.a(cty_isfalse.o)
                0x00000000000124bc                __ctype_isfalse
                0x00000000000124c0                __ctype_istrue
 .text.avr-libc
                0x00000000000124c2       0x20 /usr/lib/gcc/avr/4.8.2/../../../avr/lib/avr51/libc.a(strrev.o)
                0x00000000000124c2                strrev
                0x00000000000124e2                . = ALIGN (0x2)
 *(.fini9)
 .fini9         0x00000000000124e2        0x0 /usr/lib/gcc/avr/4.8.2/avr51/libgcc.a(_exit.o)
                0x00000000000124e2                exit
                0x00000000000124e2                _exit
 *(.fini9)
 *(.fini8)
 *(.fini8)
 *(.fini7)
 *(.fini7)
 *(.fini6)
 .fini6         0x00000000000124e2       0x1e /usr/lib/gcc/avr/4.8.2/avr51/libgcc.a(_dtors.o)
                0x00000000000124e2                __do_global_dtors
 *(.fini6)
 *(.fini5)
 *(.fini5)
 *(.fini4)
 *(.fini4)
 *(.fini3)
 *(.fini3)
 *(.fini2)
 *(.fini2)
 *(.fini1)
 *(.fini1)
 *(.fini0)
 .fini0         0x0000000000012500        0x4 /usr/lib/gcc/avr/4.8.2/avr51/libgcc.a(_exit.o)
 *(.fini0)
                0x0000000000012504                _etext = .

.data           0x0000000000800100      0x1f2 load address 0x0000000000012504
                0x0000000000800100                PROVIDE (__data_start, .)
 *(.data)
 .data          0x0000000000800100        0x0 /usr/lib/gcc/avr/4.8.2/../../../avr/lib/avr51/crtm1284p.o
 .data          0x0000000000800100        0x0 CMakeFiles/BrewTroller-OT_DX1_RIMSDF.elf.dir/BrewCore.cpp.obj
 .data          0x0000000000800100        0x0 CMakeFiles/BrewTroller-OT_DX1_RIMSDF.elf.dir/BrewTroller.cpp.obj
 .data          0x0000000000800100        0x0 CMakeFiles/BrewTroller-OT_DX1_RIMSDF.elf.dir/Com.cpp.obj
 .data          0x0000000000800100        0x0 CMakeFiles/BrewTroller-OT_DX1_RIMSDF.elf.dir/Com_BTPD.cpp.obj
 .data          0x0000000000800100        0x0 CMakeFiles/BrewTroller-OT_DX1_RIMSDF.elf.dir/Com_RGBIO8.cpp.obj
 .data          0x0000000000800100        0x0 CMakeFiles/BrewTroller-OT_DX1_RIMSDF.elf.dir/Com_S0ASC.cpp.obj
 .data          0x0000000000800100        0x0 CMakeFiles/BrewTroller-OT_DX1_RIMSDF.elf.dir/EEPROM.cpp.obj
 .data          0x0000000000800100        0x0 CMakeFiles/BrewTroller-OT_DX1_RIMSDF.elf.dir/FlowController.cpp.obj
 .data          0x0000000000800100        0x0 CMakeFiles/BrewTroller-OT_DX1_RIMSDF.elf.dir/Events.cpp.obj
 .data          0x0000000000800100        0x0 CMakeFiles/BrewTroller-OT_DX1_RIMSDF.elf.dir/Outputs.cpp.obj
 .data          0x0000000000800100        0x0 CMakeFiles/BrewTroller-OT_DX1_RIMSDF.elf.dir/PVOut.cpp.obj
 .data          0x0000000000800100        0x0 CMakeFiles/BrewTroller-OT_DX1_RIMSDF.elf.dir/StepLogic.cpp.obj
 .data          0x0000000000800100        0x0 CMakeFiles/BrewTroller-OT_DX1_RIMSDF.elf.dir/Temp.cpp.obj
 .data          0x0000000000800100        0x0 CMakeFiles/BrewTroller-OT_DX1_RIMSDF.elf.dir/Timer.cpp.obj
 .data          0x0000000000800100        0x0 CMakeFiles/BrewTroller-OT_DX1_RIMSDF.elf.dir/UI.cpp.obj
 .data          0x0000000000800100        0x0 CMakeFiles/BrewTroller-OT_DX1_RIMSDF.elf.dir/UIStrings.cpp.obj
 .data          0x0000000000800100        0x0 CMakeFiles/BrewTroller-OT_DX1_RIMSDF.elf.dir/Util.cpp.obj
 .data          0x0000000000800100        0x0 CMakeFiles/BrewTroller-OT_DX1_RIMSDF.elf.dir/Vessel.cpp.obj
 .data          0x0000000000800100        0x0 CMakeFiles/BrewTroller-OT_DX1_RIMSDF.elf.dir/Volume.cpp.obj
 .data          0x0000000000800100        0x0 ../lib/libBT-libs.a(malloc.c.obj)
 .data          0x0000000000800100        0x0 ../lib/libBT-libs.a(HardwareSerial.cpp.obj)
 .data          0x0000000000800100        0x0 ../lib/libBT-libs.a(new.cpp.obj)
 .data          0x0000000000800100        0x0 ../lib/libBT-libs.a(Print.cpp.obj)
 .data          0x0000000000800100        0x0 ../lib/libBT-libs.a(wiring.c.obj)
 .data          0x0000000000800100        0x0 ../lib/libBT-libs.a(wiring_analog.c.obj)
 .data          0x0000000000800100        0x0 ../lib/libBT-libs.a(wiring_digital.c.obj)
 .data          0x0000000000800100        0x0 ../lib/libBT-libs.a(WString.cpp.obj)
 .data          0x0000000000800100        0x0 ../lib/libBT-libs.a(EEPROM.cpp.obj)
 .data          0x0000000000800100        0x0 ../lib/libBT-libs.a(Wire.cpp.obj)
 .data          0x0000000000800100        0x0 ../lib/libBT-libs.a(twi.c.obj)
 .data          0x0000000000800100        0x0 ../lib/libBT-libs.a(encoder.cpp.obj)
 .data          0x0000000000800100        0x0 ../lib/libBT-libs.a(pin.cpp.obj)
 .data          0x0000000000800100        0x0 ../lib/libBT-libs.a(menu.cpp.obj)
 .data          0x0000000000800100        0x0 ../lib/libBT-libs.a(ModbusMaster.cpp.obj)
 .data          0x0000000000800100        0x0 ../lib/libBT-libs.a(PID_Beta6.cpp.obj)
 .data          0x0000000000800100        0x0 ../lib/libBT-libs.a(DS2482.cpp.obj)
 .data          0x0000000000800100        0x0 ../lib/libBT-libs.a(realloc.c.obj)
 .data          0x0000000000800100        0x0 ../lib/libBT-libs.a(WInterrupts.c.obj)
 .data          0x0000000000800100        0x0 ../lib/libBT-libs.a(WMath.cpp.obj)
 .data          0x0000000000800100        0x0 /usr/lib/gcc/avr/4.8.2/avr51/libgcc.a(_umulhisi3.o)
 .data          0x0000000000800100        0x0 /usr/lib/gcc/avr/4.8.2/avr51/libgcc.a(_usmulhisi3.o)
 .data          0x0000000000800100        0x0 /usr/lib/gcc/avr/4.8.2/avr51/libgcc.a(_muluhisi3.o)
 .data          0x0000000000800100        0x0 /usr/lib/gcc/avr/4.8.2/avr51/libgcc.a(_mulshisi3.o)
 .data          0x0000000000800100        0x0 /usr/lib/gcc/avr/4.8.2/avr51/libgcc.a(_mulsi3.o)
 .data          0x0000000000800100        0x0 /usr/lib/gcc/avr/4.8.2/avr51/libgcc.a(_udivmodhi4.o)
 .data          0x0000000000800100        0x0 /usr/lib/gcc/avr/4.8.2/avr51/libgcc.a(_divmodhi4.o)
 .data          0x0000000000800100        0x0 /usr/lib/gcc/avr/4.8.2/avr51/libgcc.a(_udivmodsi4.o)
 .data          0x0000000000800100        0x0 /usr/lib/gcc/avr/4.8.2/avr51/libgcc.a(_divmodsi4.o)
 .data          0x0000000000800100        0x0 /usr/lib/gcc/avr/4.8.2/avr51/libgcc.a(_negsi2.o)
 .data          0x0000000000800100        0x0 /usr/lib/gcc/avr/4.8.2/avr51/libgcc.a(_prologue.o)
 .data          0x0000000000800100        0x0 /usr/lib/gcc/avr/4.8.2/avr51/libgcc.a(_epilogue.o)
 .data          0x0000000000800100        0x0 /usr/lib/gcc/avr/4.8.2/avr51/libgcc.a(_exit.o)
 .data          0x0000000000800100        0x0 /usr/lib/gcc/avr/4.8.2/avr51/libgcc.a(_tablejump.o)
 .data          0x0000000000800100        0x0 /usr/lib/gcc/avr/4.8.2/avr51/libgcc.a(_copy_data.o)
 .data          0x0000000000800100        0x0 /usr/lib/gcc/avr/4.8.2/avr51/libgcc.a(_clear_bss.o)
 .data          0x0000000000800100        0x0 /usr/lib/gcc/avr/4.8.2/avr51/libgcc.a(_ctors.o)
 .data          0x0000000000800100        0x0 /usr/lib/gcc/avr/4.8.2/avr51/libgcc.a(_dtors.o)
 .data          0x0000000000800100        0x0 /usr/lib/gcc/avr/4.8.2/avr51/libgcc.a(_tablejump_elpm.o)
 .data          0x0000000000800100        0x0 /usr/lib/gcc/avr/4.8.2/../../../avr/lib/avr51/libm.a(addsf3.o)
 .data          0x0000000000800100        0x0 /usr/lib/gcc/avr/4.8.2/../../../avr/lib/avr51/libm.a(addsf3x.o)
 .data          0x0000000000800100        0x0 /usr/lib/gcc/avr/4.8.2/../../../avr/lib/avr51/libm.a(cmpsf2.o)
 .data          0x0000000000800100        0x0 /usr/lib/gcc/avr/4.8.2/../../../avr/lib/avr51/libm.a(divsf3.o)
 .data          0x0000000000800100        0x0 /usr/lib/gcc/avr/4.8.2/../../../avr/lib/avr51/libm.a(divsf3x.o)
 .data          0x0000000000800100        0x0 /usr/lib/gcc/avr/4.8.2/../../../avr/lib/avr51/libm.a(fixsfsi.o)
 .data          0x0000000000800100        0x0 /usr/lib/gcc/avr/4.8.2/../../../avr/lib/avr51/libm.a(fixunssfsi.o)
 .data          0x0000000000800100        0x0 /usr/lib/gcc/avr/4.8.2/../../../avr/lib/avr51/libm.a(floatsisf.o)
 .data          0x0000000000800100        0x0 /usr/lib/gcc/avr/4.8.2/../../../avr/lib/avr51/libm.a(fp_cmp.o)
 .data          0x0000000000800100        0x0 /usr/lib/gcc/avr/4.8.2/../../../avr/lib/avr51/libm.a(fp_inf.o)
 .data          0x0000000000800100        0x0 /usr/lib/gcc/avr/4.8.2/../../../avr/lib/avr51/libm.a(fp_nan.o)
 .data          0x0000000000800100        0x0 /usr/lib/gcc/avr/4.8.2/../../../avr/lib/avr51/libm.a(fp_pscA.o)
 .data          0x0000000000800100        0x0 /usr/lib/gcc/avr/4.8.2/../../../avr/lib/avr51/libm.a(fp_pscB.o)
 .data          0x0000000000800100        0x0 /usr/lib/gcc/avr/4.8.2/../../../avr/lib/avr51/libm.a(fp_round.o)
 .data          0x0000000000800100        0x0 /usr/lib/gcc/avr/4.8.2/../../../avr/lib/avr51/libm.a(fp_split3.o)
 .data          0x0000000000800100        0x0 /usr/lib/gcc/avr/4.8.2/../../../avr/lib/avr51/libm.a(fp_zero.o)
 .data          0x0000000000800100        0x0 /usr/lib/gcc/avr/4.8.2/../../../avr/lib/avr51/libm.a(gesf2.o)
 .data          0x0000000000800100        0x0 /usr/lib/gcc/avr/4.8.2/../../../avr/lib/avr51/libm.a(mulsf3.o)
 .data          0x0000000000800100        0x0 /usr/lib/gcc/avr/4.8.2/../../../avr/lib/avr51/libm.a(mulsf3x.o)
 .data          0x0000000000800100        0x0 /usr/lib/gcc/avr/4.8.2/../../../avr/lib/avr51/libm.a(pow.o)
 .data          0x0000000000800100        0x0 /usr/lib/gcc/avr/4.8.2/../../../avr/lib/avr51/libm.a(unordsf2.o)
 .data          0x0000000000800100        0x0 /usr/lib/gcc/avr/4.8.2/../../../avr/lib/avr51/libm.a(exp.o)
 .data          0x0000000000800100        0x0 /usr/lib/gcc/avr/4.8.2/../../../avr/lib/avr51/libm.a(fp_powser.o)
 .data          0x0000000000800100        0x0 /usr/lib/gcc/avr/4.8.2/../../../avr/lib/avr51/libm.a(inverse.o)
 .data          0x0000000000800100        0x0 /usr/lib/gcc/avr/4.8.2/../../../avr/lib/avr51/libm.a(ldexp.o)
 .data          0x0000000000800100        0x0 /usr/lib/gcc/avr/4.8.2/../../../avr/lib/avr51/libm.a(log.o)
 .data          0x0000000000800100        0x0 /usr/lib/gcc/avr/4.8.2/../../../avr/lib/avr51/libm.a(modf.o)
 .data          0x0000000000800100        0x0 /usr/lib/gcc/avr/4.8.2/../../../avr/lib/avr51/libm.a(fp_mpack.o)
 .data          0x0000000000800100        0x4 /usr/lib/gcc/avr/4.8.2/../../../avr/lib/avr51/libc.a(random.o)
 .data          0x0000000000800104        0x0 /usr/lib/gcc/avr/4.8.2/../../../avr/lib/avr51/libc.a(strtoul.o)
 .data          0x0000000000800104        0x0 /usr/lib/gcc/avr/4.8.2/../../../avr/lib/avr51/libc.a(atoi.o)
 .data          0x0000000000800104        0x0 /usr/lib/gcc/avr/4.8.2/../../../avr/lib/avr51/libc.a(atol.o)
 .data          0x0000000000800104        0x0 /usr/lib/gcc/avr/4.8.2/../../../avr/lib/avr51/libc.a(isspace.o)
 .data          0x0000000000800104        0x0 /usr/lib/gcc/avr/4.8.2/../../../avr/lib/avr51/libc.a(tolower.o)
 .data          0x0000000000800104        0x0 /usr/lib/gcc/avr/4.8.2/../../../avr/lib/avr51/libc.a(toupper.o)
 .data          0x0000000000800104        0x0 /usr/lib/gcc/avr/4.8.2/../../../avr/lib/avr51/libc.a(memcpy_P.o)
 .data          0x0000000000800104        0x0 /usr/lib/gcc/avr/4.8.2/../../../avr/lib/avr51/libc.a(strcat_P.o)
 .data          0x0000000000800104        0x0 /usr/lib/gcc/avr/4.8.2/../../../avr/lib/avr51/libc.a(strcpy_P.o)
 .data          0x0000000000800104        0x0 /usr/lib/gcc/avr/4.8.2/../../../avr/lib/avr51/libc.a(strlen_P.o)
 .data          0x0000000000800104        0x0 /usr/lib/gcc/avr/4.8.2/../../../avr/lib/avr51/libc.a(memcpy.o)
 .data          0x0000000000800104        0x0 /usr/lib/gcc/avr/4.8.2/../../../avr/lib/avr51/libc.a(memmove.o)
 .data          0x0000000000800104        0x0 /usr/lib/gcc/avr/4.8.2/../../../avr/lib/avr51/libc.a(memset.o)
 .data          0x0000000000800104        0x0 /usr/lib/gcc/avr/4.8.2/../../../avr/lib/avr51/libc.a(strcasecmp.o)
 .data          0x0000000000800104        0x0 /usr/lib/gcc/avr/4.8.2/../../../avr/lib/avr51/libc.a(strcat.o)
 .data          0x0000000000800104        0x0 /usr/lib/gcc/avr/4.8.2/../../../avr/lib/avr51/libc.a(strchr.o)
 .data          0x0000000000800104        0x0 /usr/lib/gcc/avr/4.8.2/../../../avr/lib/avr51/libc.a(strcmp.o)
 .data          0x0000000000800104        0x0 /usr/lib/gcc/avr/4.8.2/../../../avr/lib/avr51/libc.a(strcpy.o)
 .data          0x0000000000800104        0x0 /usr/lib/gcc/avr/4.8.2/../../../avr/lib/avr51/libc.a(strncmp.o)
 .data          0x0000000000800104        0x0 /usr/lib/gcc/avr/4.8.2/../../../avr/lib/avr51/libc.a(strncpy.o)
 .data          0x0000000000800104        0x0 /usr/lib/gcc/avr/4.8.2/../../../avr/lib/avr51/libc.a(strrchr.o)
 .data          0x0000000000800104        0x0 /usr/lib/gcc/avr/4.8.2/../../../avr/lib/avr51/libc.a(strstr.o)
 .data          0x0000000000800104        0x0 /usr/lib/gcc/avr/4.8.2/../../../avr/lib/avr51/libc.a(itoa.o)
 .data          0x0000000000800104        0x0 /usr/lib/gcc/avr/4.8.2/../../../avr/lib/avr51/libc.a(ltoa.o)
 .data          0x0000000000800104        0x0 /usr/lib/gcc/avr/4.8.2/../../../avr/lib/avr51/libc.a(mulsi10.o)
 .data          0x0000000000800104        0x0 /usr/lib/gcc/avr/4.8.2/../../../avr/lib/avr51/libc.a(mul10.o)
 .data          0x0000000000800104        0x0 /usr/lib/gcc/avr/4.8.2/../../../avr/lib/avr51/libc.a(ultoa.o)
 .data          0x0000000000800104        0x0 /usr/lib/gcc/avr/4.8.2/../../../avr/lib/avr51/libc.a(utoa.o)
 .data          0x0000000000800104        0x0 /usr/lib/gcc/avr/4.8.2/../../../avr/lib/avr51/libc.a(sprintf.o)
 .data          0x0000000000800104        0x0 /usr/lib/gcc/avr/4.8.2/../../../avr/lib/avr51/libc.a(vfprintf_std.o)
 .data          0x0000000000800104        0x0 /usr/lib/gcc/avr/4.8.2/../../../avr/lib/avr51/libc.a(eerd_block_atmega1284p.o)
 .data          0x0000000000800104        0x0 /usr/lib/gcc/avr/4.8.2/../../../avr/lib/avr51/libc.a(eerd_byte_atmega1284p.o)
 .data          0x0000000000800104        0x0 /usr/lib/gcc/avr/4.8.2/../../../avr/lib/avr51/libc.a(eewr_block_atmega1284p.o)
 .data          0x0000000000800104        0x0 /usr/lib/gcc/avr/4.8.2/../../../avr/lib/avr51/libc.a(eewr_byte_atmega1284p.o)
 .data          0x0000000000800104        0x0 /usr/lib/gcc/avr/4.8.2/../../../avr/lib/avr51/libc.a(errno.o)
 .data          0x0000000000800104        0x0 /usr/lib/gcc/avr/4.8.2/../../../avr/lib/avr51/libc.a(cty_isfalse.o)
 .data          0x0000000000800104        0x0 /usr/lib/gcc/avr/4.8.2/../../../avr/lib/avr51/libc.a(strnlen_P.o)
 .data          0x0000000000800104        0x0 /usr/lib/gcc/avr/4.8.2/../../../avr/lib/avr51/libc.a(strnlen.o)
 .data          0x0000000000800104        0x0 /usr/lib/gcc/avr/4.8.2/../../../avr/lib/avr51/libc.a(strrev.o)
 .data          0x0000000000800104        0x0 /usr/lib/gcc/avr/4.8.2/../../../avr/lib/avr51/libc.a(fputc.o)
 .data          0x0000000000800104        0x0 /usr/lib/gcc/avr/4.8.2/../../../avr/lib/avr51/libc.a(ultoa_invert.o)
 *(.data*)
 .data.hoptimes
                0x0000000000800104       0x16 CMakeFiles/BrewTroller-OT_DX1_RIMSDF.elf.dir/BrewTroller.cpp.obj
                0x0000000000800104                hoptimes
 .data.logData  0x000000000080011a        0x1 CMakeFiles/BrewTroller-OT_DX1_RIMSDF.elf.dir/BrewTroller.cpp.obj
                0x000000000080011a                logData
 .data.doInit   0x000000000080011b        0x1 CMakeFiles/BrewTroller-OT_DX1_RIMSDF.elf.dir/UI.cpp.obj
                0x000000000080011b                doInit
 .data.__malloc_heap_end
                0x000000000080011c        0x2 ../lib/libBT-libs.a(malloc.c.obj)
                0x000000000080011c                __malloc_heap_end
 .data.__malloc_heap_start
                0x000000000080011e        0x2 ../lib/libBT-libs.a(malloc.c.obj)
                0x000000000080011e                __malloc_heap_start
 .data.__malloc_margin
                0x0000000000800120        0x2 ../lib/libBT-libs.a(malloc.c.obj)
                0x0000000000800120                __malloc_margin
 .data.analog_reference
                0x0000000000800122        0x1 ../lib/libBT-libs.a(wiring_analog.c.obj)
                0x0000000000800122                analog_reference
 *(.rodata)
 .rodata        0x0000000000800123       0x14 CMakeFiles/BrewTroller-OT_DX1_RIMSDF.elf.dir/UI.cpp.obj
 *(.rodata*)
 .rodata.str1.1
                0x0000000000800137        0xf CMakeFiles/BrewTroller-OT_DX1_RIMSDF.elf.dir/Com.cpp.obj
                                         0x11 (size before relaxing)
 .rodata.str1.1
                0x0000000000800146       0x11 CMakeFiles/BrewTroller-OT_DX1_RIMSDF.elf.dir/Com_BTPD.cpp.obj
                                         0x13 (size before relaxing)
 .rodata._ZZ12brewStepFunchE19brewStepFunctionMap
                0x0000000000800157       0x1e CMakeFiles/BrewTroller-OT_DX1_RIMSDF.elf.dir/StepLogic.cpp.obj
 .rodata.str1.1
                0x0000000000800175      0x157 CMakeFiles/BrewTroller-OT_DX1_RIMSDF.elf.dir/UI.cpp.obj
                                        0x15c (size before relaxing)
 .rodata.str1.1
                0x00000000008002cc        0x2 CMakeFiles/BrewTroller-OT_DX1_RIMSDF.elf.dir/Util.cpp.obj
 .rodata.CSWTCH.49
                0x00000000008002ce        0x3 CMakeFiles/BrewTroller-OT_DX1_RIMSDF.elf.dir/Vessel.cpp.obj
 .rodata._ZTV14HardwareSerial
                0x00000000008002d1       0x10 ../lib/libBT-libs.a(HardwareSerial.cpp.obj)
                0x00000000008002d1                _ZTV14HardwareSerial
 .rodata._ZTV7TwoWire
                0x00000000008002e1       0x10 ../lib/libBT-libs.a(Wire.cpp.obj)
                0x00000000008002e1                _ZTV7TwoWire
 .rodata.str1.1
                0x0000000000000000        0x1 ../lib/libBT-libs.a(menu.cpp.obj)
 *(.gnu.linkonce.d*)
                0x00000000008002f2                . = ALIGN (0x2)
 *fill*         0x00000000008002f1        0x1 
                0x00000000008002f2                _edata = .
                0x00000000008002f2                PROVIDE (__data_end, .)

.bss            0x00000000008002f2      0xcd6
                0x00000000008002f2                PROVIDE (__bss_start, .)
 *(.bss)
 *(.bss*)
 .bss.hbStart   0x00000000008002f2        0x4 CMakeFiles/BrewTroller-OT_DX1_RIMSDF.elf.dir/BrewCore.cpp.obj
                0x00000000008002f2                hbStart
 .bss.scheduler
                0x00000000008002f6        0x1 CMakeFiles/BrewTroller-OT_DX1_RIMSDF.elf.dir/BrewCore.cpp.obj
                0x00000000008002f6                scheduler
 .bss.pitchTemp
                0x00000000008002f7        0x1 CMakeFiles/BrewTroller-OT_DX1_RIMSDF.elf.dir/BrewTroller.cpp.obj
                0x00000000008002f7                pitchTemp
 .bss.boilControlState
                0x00000000008002f8        0x1 CMakeFiles/BrewTroller-OT_DX1_RIMSDF.elf.dir/BrewTroller.cpp.obj
                0x00000000008002f8                boilControlState
 .bss.alarmStatus
                0x00000000008002f9        0x1 CMakeFiles/BrewTroller-OT_DX1_RIMSDF.elf.dir/BrewTroller.cpp.obj
                0x00000000008002f9                alarmStatus
 .bss.timerStatus
                0x00000000008002fa        0x2 CMakeFiles/BrewTroller-OT_DX1_RIMSDF.elf.dir/BrewTroller.cpp.obj
                0x00000000008002fa                timerStatus
 .bss.lastTime  0x00000000008002fc        0x8 CMakeFiles/BrewTroller-OT_DX1_RIMSDF.elf.dir/BrewTroller.cpp.obj
                0x00000000008002fc                lastTime
 .bss.timerValue
                0x0000000000800304        0x8 CMakeFiles/BrewTroller-OT_DX1_RIMSDF.elf.dir/BrewTroller.cpp.obj
                0x0000000000800304                timerValue
 .bss.boilPwr   0x000000000080030c        0x1 CMakeFiles/BrewTroller-OT_DX1_RIMSDF.elf.dir/BrewTroller.cpp.obj
                0x000000000080030c                boilPwr
 .bss.cycleStart
                0x000000000080030d       0x18 CMakeFiles/BrewTroller-OT_DX1_RIMSDF.elf.dir/BrewTroller.cpp.obj
                0x000000000080030d                cycleStart
 .bss.buf       0x0000000000800325       0x14 CMakeFiles/BrewTroller-OT_DX1_RIMSDF.elf.dir/BrewTroller.cpp.obj
                0x0000000000800325                buf
 .bss.ValvesMB  0x0000000000800339        0x8 CMakeFiles/BrewTroller-OT_DX1_RIMSDF.elf.dir/BrewTroller.cpp.obj
                0x0000000000800339                ValvesMB
 .bss.Valves    0x0000000000800341        0x7 CMakeFiles/BrewTroller-OT_DX1_RIMSDF.elf.dir/BrewTroller.cpp.obj
                0x0000000000800341                Valves
 .bss.autoValve
                0x0000000000800348        0x8 CMakeFiles/BrewTroller-OT_DX1_RIMSDF.elf.dir/BrewTroller.cpp.obj
                0x0000000000800348                autoValve
 .bss.actProfiles
                0x0000000000800350        0x4 CMakeFiles/BrewTroller-OT_DX1_RIMSDF.elf.dir/BrewTroller.cpp.obj
                0x0000000000800350                actProfiles
 .bss.vlvConfig
                0x0000000000800354       0x50 CMakeFiles/BrewTroller-OT_DX1_RIMSDF.elf.dir/BrewTroller.cpp.obj
                0x0000000000800354                vlvConfig
 .bss.LCD       0x00000000008003a4       0x52 CMakeFiles/BrewTroller-OT_DX1_RIMSDF.elf.dir/BrewTroller.cpp.obj
                0x00000000008003a4                LCD
 .bss.temp      0x00000000008003f6       0x12 CMakeFiles/BrewTroller-OT_DX1_RIMSDF.elf.dir/BrewTroller.cpp.obj
                0x00000000008003f6                temp
 .bss.tSensor   0x0000000000800408       0x48 CMakeFiles/BrewTroller-OT_DX1_RIMSDF.elf.dir/BrewTroller.cpp.obj
                0x0000000000800408                tSensor
 .bss.hbPin     0x0000000000800450        0x4 CMakeFiles/BrewTroller-OT_DX1_RIMSDF.elf.dir/BrewTroller.cpp.obj
                0x0000000000800450                hbPin
 .bss.estop     0x0000000000800454        0x1 CMakeFiles/BrewTroller-OT_DX1_RIMSDF.elf.dir/BrewTroller.cpp.obj
                0x0000000000800454                estop
 .bss.TriggerPin
                0x0000000000800455        0xa CMakeFiles/BrewTroller-OT_DX1_RIMSDF.elf.dir/BrewTroller.cpp.obj
                0x0000000000800455                TriggerPin
 .bss.digInPin  0x000000000080045f       0x18 CMakeFiles/BrewTroller-OT_DX1_RIMSDF.elf.dir/BrewTroller.cpp.obj
                0x000000000080045f                digInPin
 .bss.alarmPin  0x0000000000800477        0x4 CMakeFiles/BrewTroller-OT_DX1_RIMSDF.elf.dir/BrewTroller.cpp.obj
                0x0000000000800477                alarmPin
 .bss.fillController
                0x000000000080047b        0x4 CMakeFiles/BrewTroller-OT_DX1_RIMSDF.elf.dir/BrewTroller.cpp.obj
                0x000000000080047b                fillController
 .bss.flowController
                0x000000000080047f        0x4 CMakeFiles/BrewTroller-OT_DX1_RIMSDF.elf.dir/BrewTroller.cpp.obj
                0x000000000080047f                flowController
 .bss.vessels   0x0000000000800483        0x6 CMakeFiles/BrewTroller-OT_DX1_RIMSDF.elf.dir/BrewTroller.cpp.obj
                0x0000000000800483                vessels
 .bss.softReset
                0x0000000000800489        0x2 CMakeFiles/BrewTroller-OT_DX1_RIMSDF.elf.dir/BrewTroller.cpp.obj
                0x0000000000800489                softReset
 .bss.btnicS0   0x000000000080048b      0x405 CMakeFiles/BrewTroller-OT_DX1_RIMSDF.elf.dir/Com.cpp.obj
                0x000000000080048b                btnicS0
 .bss.btnicI2C  0x0000000000800890      0x405 CMakeFiles/BrewTroller-OT_DX1_RIMSDF.elf.dir/Com.cpp.obj
                0x0000000000800890                btnicI2C
 .bss.lastBTPD  0x0000000000800c95        0x4 CMakeFiles/BrewTroller-OT_DX1_RIMSDF.elf.dir/Com_BTPD.cpp.obj
                0x0000000000800c95                lastBTPD
 .bss._ZZ15brewStepPreheat10StepSignalP13ProgramThreadE13preheatVessel
                0x0000000000800c99        0x1 CMakeFiles/BrewTroller-OT_DX1_RIMSDF.elf.dir/StepLogic.cpp.obj
 .bss.programThread
                0x0000000000800c9a        0x4 CMakeFiles/BrewTroller-OT_DX1_RIMSDF.elf.dir/StepLogic.cpp.obj
                0x0000000000800c9a                programThread
 .bss.triggered
                0x0000000000800c9e        0x2 CMakeFiles/BrewTroller-OT_DX1_RIMSDF.elf.dir/StepLogic.cpp.obj
                0x0000000000800c9e                triggered
 .bss.boilAdds  0x0000000000800ca0        0x2 CMakeFiles/BrewTroller-OT_DX1_RIMSDF.elf.dir/StepLogic.cpp.obj
                0x0000000000800ca0                boilAdds
 .bss.grainInStart
                0x0000000000800ca2        0x4 CMakeFiles/BrewTroller-OT_DX1_RIMSDF.elf.dir/StepLogic.cpp.obj
                0x0000000000800ca2                grainInStart
 .bss.lastHop   0x0000000000800ca6        0x4 CMakeFiles/BrewTroller-OT_DX1_RIMSDF.elf.dir/StepLogic.cpp.obj
                0x0000000000800ca6                lastHop
 .bss.convStart
                0x0000000000800caa        0x4 CMakeFiles/BrewTroller-OT_DX1_RIMSDF.elf.dir/Temp.cpp.obj
                0x0000000000800caa                convStart
 .bss.masterIsConfigured
                0x0000000000800cae        0x1 CMakeFiles/BrewTroller-OT_DX1_RIMSDF.elf.dir/Temp.cpp.obj
                0x0000000000800cae                masterIsConfigured
 .bss.ds        0x0000000000800caf        0xc CMakeFiles/BrewTroller-OT_DX1_RIMSDF.elf.dir/Temp.cpp.obj
                0x0000000000800caf                ds
 .bss.lastEEPROMWrite
                0x0000000000800cbb        0x2 CMakeFiles/BrewTroller-OT_DX1_RIMSDF.elf.dir/Timer.cpp.obj
                0x0000000000800cbb                lastEEPROMWrite
 .bss.buzzerCycleStart
                0x0000000000800cbd        0x4 CMakeFiles/BrewTroller-OT_DX1_RIMSDF.elf.dir/Timer.cpp.obj
                0x0000000000800cbd                buzzerCycleStart
 .bss.timerLastPrint
                0x0000000000800cc1        0x4 CMakeFiles/BrewTroller-OT_DX1_RIMSDF.elf.dir/UI.cpp.obj
                0x0000000000800cc1                timerLastPrint
 .bss.screenLock
                0x0000000000800cc5        0x1 CMakeFiles/BrewTroller-OT_DX1_RIMSDF.elf.dir/UI.cpp.obj
                0x0000000000800cc5                screenLock
 .bss.activeScreen
                0x0000000000800cc6        0x1 CMakeFiles/BrewTroller-OT_DX1_RIMSDF.elf.dir/UI.cpp.obj
                0x0000000000800cc6                activeScreen
 .bss.volCount  0x0000000000800cc7        0x1 CMakeFiles/BrewTroller-OT_DX1_RIMSDF.elf.dir/Volume.cpp.obj
                0x0000000000800cc7                volCount
 .bss.lastVolChk
                0x0000000000800cc8        0x4 CMakeFiles/BrewTroller-OT_DX1_RIMSDF.elf.dir/Volume.cpp.obj
                0x0000000000800cc8                lastVolChk
 .bss.Serial1   0x0000000000800ccc       0x22 ../lib/libBT-libs.a(HardwareSerial.cpp.obj)
                0x0000000000800ccc                Serial1
 .bss.Serial    0x0000000000800cee       0x22 ../lib/libBT-libs.a(HardwareSerial.cpp.obj)
                0x0000000000800cee                Serial
 .bss.tx_buffer1
                0x0000000000800d10       0x44 ../lib/libBT-libs.a(HardwareSerial.cpp.obj)
                0x0000000000800d10                tx_buffer1
 .bss.rx_buffer1
                0x0000000000800d54       0x44 ../lib/libBT-libs.a(HardwareSerial.cpp.obj)
                0x0000000000800d54                rx_buffer1
 .bss.tx_buffer
                0x0000000000800d98       0x44 ../lib/libBT-libs.a(HardwareSerial.cpp.obj)
                0x0000000000800d98                tx_buffer
 .bss.rx_buffer
                0x0000000000800ddc       0x44 ../lib/libBT-libs.a(HardwareSerial.cpp.obj)
                0x0000000000800ddc                rx_buffer
 .bss.timer0_fract
                0x0000000000800e20        0x1 ../lib/libBT-libs.a(wiring.c.obj)
 .bss.timer0_millis
                0x0000000000800e21        0x4 ../lib/libBT-libs.a(wiring.c.obj)
                0x0000000000800e21                timer0_millis
 .bss.timer0_overflow_count
                0x0000000000800e25        0x4 ../lib/libBT-libs.a(wiring.c.obj)
                0x0000000000800e25                timer0_overflow_count
 .bss.EEPROM    0x0000000000800e29        0x1 ../lib/libBT-libs.a(EEPROM.cpp.obj)
                0x0000000000800e29                EEPROM
 .bss.Wire      0x0000000000800e2a        0xc ../lib/libBT-libs.a(Wire.cpp.obj)
                0x0000000000800e2a                Wire
 .bss._ZN7TwoWire14user_onReceiveE
                0x0000000000800e36        0x2 ../lib/libBT-libs.a(Wire.cpp.obj)
                0x0000000000800e36                _ZN7TwoWire14user_onReceiveE
 .bss._ZN7TwoWire14user_onRequestE
                0x0000000000800e38        0x2 ../lib/libBT-libs.a(Wire.cpp.obj)
                0x0000000000800e38                _ZN7TwoWire14user_onRequestE
 .bss._ZN7TwoWire12transmittingE
                0x0000000000800e3a        0x1 ../lib/libBT-libs.a(Wire.cpp.obj)
                0x0000000000800e3a                _ZN7TwoWire12transmittingE
 .bss._ZN7TwoWire14txBufferLengthE
                0x0000000000800e3b        0x1 ../lib/libBT-libs.a(Wire.cpp.obj)
                0x0000000000800e3b                _ZN7TwoWire14txBufferLengthE
 .bss._ZN7TwoWire13txBufferIndexE
                0x0000000000800e3c        0x1 ../lib/libBT-libs.a(Wire.cpp.obj)
                0x0000000000800e3c                _ZN7TwoWire13txBufferIndexE
 .bss._ZN7TwoWire8txBufferE
                0x0000000000800e3d       0x20 ../lib/libBT-libs.a(Wire.cpp.obj)
                0x0000000000800e3d                _ZN7TwoWire8txBufferE
 .bss._ZN7TwoWire9txAddressE
                0x0000000000800e5d        0x1 ../lib/libBT-libs.a(Wire.cpp.obj)
                0x0000000000800e5d                _ZN7TwoWire9txAddressE
 .bss._ZN7TwoWire14rxBufferLengthE
                0x0000000000800e5e        0x1 ../lib/libBT-libs.a(Wire.cpp.obj)
                0x0000000000800e5e                _ZN7TwoWire14rxBufferLengthE
 .bss._ZN7TwoWire13rxBufferIndexE
                0x0000000000800e5f        0x1 ../lib/libBT-libs.a(Wire.cpp.obj)
                0x0000000000800e5f                _ZN7TwoWire13rxBufferIndexE
 .bss._ZN7TwoWire8rxBufferE
                0x0000000000800e60       0x20 ../lib/libBT-libs.a(Wire.cpp.obj)
                0x0000000000800e60                _ZN7TwoWire8rxBufferE
 .bss.twi_error
                0x0000000000800e80        0x1 ../lib/libBT-libs.a(twi.c.obj)
 .bss.twi_rxBufferIndex
                0x0000000000800e81        0x1 ../lib/libBT-libs.a(twi.c.obj)
 .bss.twi_rxBuffer
                0x0000000000800e82       0x20 ../lib/libBT-libs.a(twi.c.obj)
 .bss.twi_txBufferLength
                0x0000000000800ea2        0x1 ../lib/libBT-libs.a(twi.c.obj)
 .bss.twi_txBufferIndex
                0x0000000000800ea3        0x1 ../lib/libBT-libs.a(twi.c.obj)
 .bss.twi_txBuffer
                0x0000000000800ea4       0x20 ../lib/libBT-libs.a(twi.c.obj)
 .bss.twi_masterBufferLength
                0x0000000000800ec4        0x1 ../lib/libBT-libs.a(twi.c.obj)
 .bss.twi_masterBufferIndex
                0x0000000000800ec5        0x1 ../lib/libBT-libs.a(twi.c.obj)
 .bss.twi_masterBuffer
                0x0000000000800ec6       0x20 ../lib/libBT-libs.a(twi.c.obj)
 .bss.twi_onSlaveReceive
                0x0000000000800ee6        0x2 ../lib/libBT-libs.a(twi.c.obj)
 .bss.twi_onSlaveTransmit
                0x0000000000800ee8        0x2 ../lib/libBT-libs.a(twi.c.obj)
 .bss.twi_inRepStart
                0x0000000000800eea        0x1 ../lib/libBT-libs.a(twi.c.obj)
 .bss.twi_sendStop
                0x0000000000800eeb        0x1 ../lib/libBT-libs.a(twi.c.obj)
 .bss.twi_slarw
                0x0000000000800eec        0x1 ../lib/libBT-libs.a(twi.c.obj)
 .bss.twi_state
                0x0000000000800eed        0x1 ../lib/libBT-libs.a(twi.c.obj)
 .bss.Encoder   0x0000000000800eee       0x20 ../lib/libBT-libs.a(encoder.cpp.obj)
                0x0000000000800eee                Encoder
 .bss._ZN8PCI_Port12s_pcIntPortsE
                0x0000000000800f0e       0x64 ../lib/libBT-libs.a(pin.cpp.obj)
                0x0000000000800f0e                _ZN8PCI_Port12s_pcIntPortsE
 .bss._ZN8PCI_Port7PCI_Pin11s_pcIntPinsE
                0x0000000000800f72       0x28 ../lib/libBT-libs.a(pin.cpp.obj)
                0x0000000000800f72                _ZN8PCI_Port7PCI_Pin11s_pcIntPinsE
 .bss.MBSerial  0x0000000000800f9a       0x22 ../lib/libBT-libs.a(ModbusMaster.cpp.obj)
                0x0000000000800f9a                MBSerial
 .bss.intFunc   0x0000000000800fbc        0x6 ../lib/libBT-libs.a(WInterrupts.c.obj)
 *(COMMON)
 COMMON         0x0000000000800fc2        0x4 ../lib/libBT-libs.a(malloc.c.obj)
                0x0000000000800fc2                __brkval
                0x0000000000800fc4                __flp
 COMMON         0x0000000000800fc6        0x2 /usr/lib/gcc/avr/4.8.2/../../../avr/lib/avr51/libc.a(errno.o)
                0x0000000000800fc6                errno
                0x0000000000800fc8                PROVIDE (__bss_end, .)
                0x0000000000012504                __data_load_start = LOADADDR (.data)
                0x00000000000126f6                __data_load_end = (__data_load_start + SIZEOF (.data))

.noinit         0x0000000000800fc8        0x0
                0x0000000000800fc8                PROVIDE (__noinit_start, .)
 *(.noinit*)
                0x0000000000800fc8                PROVIDE (__noinit_end, .)
                0x0000000000800fc8                _end = .
                0x0000000000800fc8                PROVIDE (__heap_start, .)

.eeprom         0x0000000000810000        0x0
 *(.eeprom*)
                0x0000000000810000                __eeprom_end = .

.fuse
 *(.fuse)
 *(.lfuse)
 *(.hfuse)
 *(.efuse)

.lock
 *(.lock*)

.signature
 *(.signature*)

.user_signatures
 *(.user_signatures*)

.stab           0x0000000000000000     0x6a8c
 *(.stab)
 .stab          0x0000000000000000      0x6cc /usr/lib/gcc/avr/4.8.2/../../../avr/lib/avr51/crtm1284p.o
 .stab          0x00000000000006cc       0x78 /usr/lib/gcc/avr/4.8.2/../../../avr/lib/avr51/libm.a(addsf3.o)
                                         0x84 (size before relaxing)
 .stab          0x0000000000000744      0x4bc /usr/lib/gcc/avr/4.8.2/../../../avr/lib/avr51/libm.a(addsf3x.o)
                                        0x4c8 (size before relaxing)
 .stab          0x0000000000000c00       0x90 /usr/lib/gcc/avr/4.8.2/../../../avr/lib/avr51/libm.a(cmpsf2.o)
                                         0x9c (size before relaxing)
 .stab          0x0000000000000c90       0x48 /usr/lib/gcc/avr/4.8.2/../../../avr/lib/avr51/libm.a(divsf3.o)
                                         0x54 (size before relaxing)
 .stab          0x0000000000000cd8      0x510 /usr/lib/gcc/avr/4.8.2/../../../avr/lib/avr51/libm.a(divsf3x.o)
                                        0x51c (size before relaxing)
 .stab          0x00000000000011e8       0x6c /usr/lib/gcc/avr/4.8.2/../../../avr/lib/avr51/libm.a(fixsfsi.o)
                                         0x78 (size before relaxing)
 .stab          0x0000000000001254      0x240 /usr/lib/gcc/avr/4.8.2/../../../avr/lib/avr51/libm.a(fixunssfsi.o)
                                        0x24c (size before relaxing)
 .stab          0x0000000000001494      0x318 /usr/lib/gcc/avr/4.8.2/../../../avr/lib/avr51/libm.a(floatsisf.o)
                                        0x324 (size before relaxing)
 .stab          0x00000000000017ac      0x1e0 /usr/lib/gcc/avr/4.8.2/../../../avr/lib/avr51/libm.a(fp_cmp.o)
                                        0x1ec (size before relaxing)
 .stab          0x000000000000198c       0x78 /usr/lib/gcc/avr/4.8.2/../../../avr/lib/avr51/libm.a(fp_inf.o)
                                         0x84 (size before relaxing)
 .stab          0x0000000000001a04       0x54 /usr/lib/gcc/avr/4.8.2/../../../avr/lib/avr51/libm.a(fp_nan.o)
                                         0x60 (size before relaxing)
 .stab          0x0000000000001a58       0x84 /usr/lib/gcc/avr/4.8.2/../../../avr/lib/avr51/libm.a(fp_pscA.o)
                                         0x90 (size before relaxing)
 .stab          0x0000000000001adc       0x84 /usr/lib/gcc/avr/4.8.2/../../../avr/lib/avr51/libm.a(fp_pscB.o)
                                         0x90 (size before relaxing)
 .stab          0x0000000000001b60       0xfc /usr/lib/gcc/avr/4.8.2/../../../avr/lib/avr51/libm.a(fp_round.o)
                                        0x108 (size before relaxing)
 .stab          0x0000000000001c5c      0x1d4 /usr/lib/gcc/avr/4.8.2/../../../avr/lib/avr51/libm.a(fp_split3.o)
                                        0x1e0 (size before relaxing)
 .stab          0x0000000000001e30       0x90 /usr/lib/gcc/avr/4.8.2/../../../avr/lib/avr51/libm.a(fp_zero.o)
                                         0x9c (size before relaxing)
 .stab          0x0000000000001ec0       0x6c /usr/lib/gcc/avr/4.8.2/../../../avr/lib/avr51/libm.a(gesf2.o)
                                         0x78 (size before relaxing)
 .stab          0x0000000000001f2c       0x48 /usr/lib/gcc/avr/4.8.2/../../../avr/lib/avr51/libm.a(mulsf3.o)
                                         0x54 (size before relaxing)
 .stab          0x0000000000001f74      0x4d4 /usr/lib/gcc/avr/4.8.2/../../../avr/lib/avr51/libm.a(mulsf3x.o)
                                        0x4e0 (size before relaxing)
 .stab          0x0000000000002448      0x3c0 /usr/lib/gcc/avr/4.8.2/../../../avr/lib/avr51/libm.a(pow.o)
                                        0x3cc (size before relaxing)
 .stab          0x0000000000002808       0x60 /usr/lib/gcc/avr/4.8.2/../../../avr/lib/avr51/libm.a(unordsf2.o)
                                         0x6c (size before relaxing)
 .stab          0x0000000000002868      0x288 /usr/lib/gcc/avr/4.8.2/../../../avr/lib/avr51/libm.a(exp.o)
                                        0x294 (size before relaxing)
 .stab          0x0000000000002af0      0x1ec /usr/lib/gcc/avr/4.8.2/../../../avr/lib/avr51/libm.a(fp_powser.o)
                                        0x1f8 (size before relaxing)
 .stab          0x0000000000002cdc       0x84 /usr/lib/gcc/avr/4.8.2/../../../avr/lib/avr51/libm.a(inverse.o)
                                         0x90 (size before relaxing)
 .stab          0x0000000000002d60      0x2c4 /usr/lib/gcc/avr/4.8.2/../../../avr/lib/avr51/libm.a(ldexp.o)
                                        0x2d0 (size before relaxing)
 .stab          0x0000000000003024      0x378 /usr/lib/gcc/avr/4.8.2/../../../avr/lib/avr51/libm.a(log.o)
                                        0x384 (size before relaxing)
 .stab          0x000000000000339c      0x2a0 /usr/lib/gcc/avr/4.8.2/../../../avr/lib/avr51/libm.a(modf.o)
                                        0x2ac (size before relaxing)
 .stab          0x000000000000363c       0xe4 /usr/lib/gcc/avr/4.8.2/../../../avr/lib/avr51/libm.a(fp_mpack.o)
                                         0xf0 (size before relaxing)
 .stab          0x0000000000003720      0x30c /usr/lib/gcc/avr/4.8.2/../../../avr/lib/avr51/libc.a(random.o)
                                        0x48c (size before relaxing)
 .stab          0x0000000000003a2c      0x5a0 /usr/lib/gcc/avr/4.8.2/../../../avr/lib/avr51/libc.a(strtoul.o)
                                        0x600 (size before relaxing)
 .stab          0x0000000000003fcc      0x174 /usr/lib/gcc/avr/4.8.2/../../../avr/lib/avr51/libc.a(atoi.o)
                                        0x180 (size before relaxing)
 .stab          0x0000000000004140      0x1e0 /usr/lib/gcc/avr/4.8.2/../../../avr/lib/avr51/libc.a(atol.o)
                                        0x1ec (size before relaxing)
 .stab          0x0000000000004320       0x9c /usr/lib/gcc/avr/4.8.2/../../../avr/lib/avr51/libc.a(isspace.o)
                                         0xa8 (size before relaxing)
 .stab          0x00000000000043bc       0x18 /usr/lib/gcc/avr/4.8.2/../../../avr/lib/avr51/libc.a(tolower.o)
                                         0xa8 (size before relaxing)
 .stab          0x00000000000043d4       0x18 /usr/lib/gcc/avr/4.8.2/../../../avr/lib/avr51/libc.a(toupper.o)
                                         0xa8 (size before relaxing)
 .stab          0x00000000000043ec       0x84 /usr/lib/gcc/avr/4.8.2/../../../avr/lib/avr51/libc.a(memcpy_P.o)
                                         0x90 (size before relaxing)
 .stab          0x0000000000004470       0x9c /usr/lib/gcc/avr/4.8.2/../../../avr/lib/avr51/libc.a(strcat_P.o)
                                         0xa8 (size before relaxing)
 .stab          0x000000000000450c       0x6c /usr/lib/gcc/avr/4.8.2/../../../avr/lib/avr51/libc.a(strcpy_P.o)
                                         0x78 (size before relaxing)
 .stab          0x0000000000004578       0x84 /usr/lib/gcc/avr/4.8.2/../../../avr/lib/avr51/libc.a(strlen_P.o)
                                         0x90 (size before relaxing)
 .stab          0x00000000000045fc       0x84 /usr/lib/gcc/avr/4.8.2/../../../avr/lib/avr51/libc.a(memcpy.o)
                                         0x90 (size before relaxing)
 .stab          0x0000000000004680       0xe4 /usr/lib/gcc/avr/4.8.2/../../../avr/lib/avr51/libc.a(memmove.o)
                                         0xf0 (size before relaxing)
 .stab          0x0000000000004764       0x6c /usr/lib/gcc/avr/4.8.2/../../../avr/lib/avr51/libc.a(memset.o)
                                         0x78 (size before relaxing)
 .stab          0x00000000000047d0       0xfc /usr/lib/gcc/avr/4.8.2/../../../avr/lib/avr51/libc.a(strcasecmp.o)
                                        0x108 (size before relaxing)
 .stab          0x00000000000048cc       0x9c /usr/lib/gcc/avr/4.8.2/../../../avr/lib/avr51/libc.a(strcat.o)
                                         0xa8 (size before relaxing)
 .stab          0x0000000000004968       0x9c /usr/lib/gcc/avr/4.8.2/../../../avr/lib/avr51/libc.a(strchr.o)
                                         0xa8 (size before relaxing)
 .stab          0x0000000000004a04       0x84 /usr/lib/gcc/avr/4.8.2/../../../avr/lib/avr51/libc.a(strcmp.o)
                                         0x90 (size before relaxing)
 .stab          0x0000000000004a88       0x6c /usr/lib/gcc/avr/4.8.2/../../../avr/lib/avr51/libc.a(strcpy.o)
                                         0x78 (size before relaxing)
 .stab          0x0000000000004af4       0xc0 /usr/lib/gcc/avr/4.8.2/../../../avr/lib/avr51/libc.a(strncmp.o)
                                         0xcc (size before relaxing)
 .stab          0x0000000000004bb4       0xcc /usr/lib/gcc/avr/4.8.2/../../../avr/lib/avr51/libc.a(strncpy.o)
                                         0xd8 (size before relaxing)
 .stab          0x0000000000004c80       0x9c /usr/lib/gcc/avr/4.8.2/../../../avr/lib/avr51/libc.a(strrchr.o)
                                         0xa8 (size before relaxing)
 .stab          0x0000000000004d1c      0x150 /usr/lib/gcc/avr/4.8.2/../../../avr/lib/avr51/libc.a(strstr.o)
                                        0x15c (size before relaxing)
 .stab          0x0000000000004e6c      0x1b0 /usr/lib/gcc/avr/4.8.2/../../../avr/lib/avr51/libc.a(itoa.o)
                                        0x1bc (size before relaxing)
 .stab          0x000000000000501c       0x18 /usr/lib/gcc/avr/4.8.2/../../../avr/lib/avr51/libc.a(ltoa.o)
                                        0x2a0 (size before relaxing)
 .stab          0x0000000000005034      0x114 /usr/lib/gcc/avr/4.8.2/../../../avr/lib/avr51/libc.a(mulsi10.o)
                                        0x120 (size before relaxing)
 .stab          0x0000000000005148       0x78 /usr/lib/gcc/avr/4.8.2/../../../avr/lib/avr51/libc.a(mul10.o)
                                         0x84 (size before relaxing)
 .stab          0x00000000000051c0      0x1e0 /usr/lib/gcc/avr/4.8.2/../../../avr/lib/avr51/libc.a(ultoa.o)
                                        0x1ec (size before relaxing)
 .stab          0x00000000000053a0       0x18 /usr/lib/gcc/avr/4.8.2/../../../avr/lib/avr51/libc.a(utoa.o)
                                        0x138 (size before relaxing)
 .stab          0x00000000000053b8      0x480 /usr/lib/gcc/avr/4.8.2/../../../avr/lib/avr51/libc.a(sprintf.o)
                                        0x54c (size before relaxing)
 .stab          0x0000000000005838      0x330 /usr/lib/gcc/avr/4.8.2/../../../avr/lib/avr51/libc.a(vfprintf_std.o)
                                        0xd80 (size before relaxing)
 .stab          0x0000000000005b68      0x108 /usr/lib/gcc/avr/4.8.2/../../../avr/lib/avr51/libc.a(eerd_block_atmega1284p.o)
                                        0x114 (size before relaxing)
 .stab          0x0000000000005c70       0x90 /usr/lib/gcc/avr/4.8.2/../../../avr/lib/avr51/libc.a(eerd_byte_atmega1284p.o)
                                         0x9c (size before relaxing)
 .stab          0x0000000000005d00       0x9c /usr/lib/gcc/avr/4.8.2/../../../avr/lib/avr51/libc.a(eewr_block_atmega1284p.o)
                                         0xa8 (size before relaxing)
 .stab          0x0000000000005d9c       0xe4 /usr/lib/gcc/avr/4.8.2/../../../avr/lib/avr51/libc.a(eewr_byte_atmega1284p.o)
                                         0xf0 (size before relaxing)
 .stab          0x0000000000005e80      0x270 /usr/lib/gcc/avr/4.8.2/../../../avr/lib/avr51/libc.a(errno.o)
                                        0x27c (size before relaxing)
 .stab          0x00000000000060f0       0x60 /usr/lib/gcc/avr/4.8.2/../../../avr/lib/avr51/libc.a(cty_isfalse.o)
                                         0x6c (size before relaxing)
 .stab          0x0000000000006150       0x9c /usr/lib/gcc/avr/4.8.2/../../../avr/lib/avr51/libc.a(strnlen_P.o)
                                         0xa8 (size before relaxing)
 .stab          0x00000000000061ec       0x9c /usr/lib/gcc/avr/4.8.2/../../../avr/lib/avr51/libc.a(strnlen.o)
                                         0xa8 (size before relaxing)
 .stab          0x0000000000006288       0xd8 /usr/lib/gcc/avr/4.8.2/../../../avr/lib/avr51/libc.a(strrev.o)
                                         0xe4 (size before relaxing)
 .stab          0x0000000000006360      0x2ac /usr/lib/gcc/avr/4.8.2/../../../avr/lib/avr51/libc.a(fputc.o)
                                        0x534 (size before relaxing)
 .stab          0x000000000000660c      0x480 /usr/lib/gcc/avr/4.8.2/../../../avr/lib/avr51/libc.a(ultoa_invert.o)
                                        0x48c (size before relaxing)

.stabstr        0x0000000000000000     0x1c12
 *(.stabstr)
 .stabstr       0x0000000000000000     0x1c12 /usr/lib/gcc/avr/4.8.2/../../../avr/lib/avr51/crtm1284p.o

.stab.excl
 *(.stab.excl)

.stab.exclstr
 *(.stab.exclstr)

.stab.index
 *(.stab.index)

.stab.indexstr
 *(.stab.indexstr)

.comment        0x0000000000000000       0x11
 *(.comment)
 .comment       0x0000000000000000       0x11 CMakeFiles/BrewTroller-OT_DX1_RIMSDF.elf.dir/BrewCore.cpp.obj
                                         0x12 (size before relaxing)
 .comment       0x0000000000000000       0x12 CMakeFiles/BrewTroller-OT_DX1_RIMSDF.elf.dir/BrewTroller.cpp.obj
 .comment       0x0000000000000000       0x12 CMakeFiles/BrewTroller-OT_DX1_RIMSDF.elf.dir/Com.cpp.obj
 .comment       0x0000000000000000       0x12 CMakeFiles/BrewTroller-OT_DX1_RIMSDF.elf.dir/Com_BTPD.cpp.obj
 .comment       0x0000000000000000       0x12 CMakeFiles/BrewTroller-OT_DX1_RIMSDF.elf.dir/Com_RGBIO8.cpp.obj
 .comment       0x0000000000000000       0x12 CMakeFiles/BrewTroller-OT_DX1_RIMSDF.elf.dir/Com_S0ASC.cpp.obj
 .comment       0x0000000000000000       0x12 CMakeFiles/BrewTroller-OT_DX1_RIMSDF.elf.dir/EEPROM.cpp.obj
 .comment       0x0000000000000000       0x12 CMakeFiles/BrewTroller-OT_DX1_RIMSDF.elf.dir/FlowController.cpp.obj
 .comment       0x0000000000000000       0x12 CMakeFiles/BrewTroller-OT_DX1_RIMSDF.elf.dir/Events.cpp.obj
 .comment       0x0000000000000000       0x12 CMakeFiles/BrewTroller-OT_DX1_RIMSDF.elf.dir/Outputs.cpp.obj
 .comment       0x0000000000000000       0x12 CMakeFiles/BrewTroller-OT_DX1_RIMSDF.elf.dir/PVOut.cpp.obj
 .comment       0x0000000000000000       0x12 CMakeFiles/BrewTroller-OT_DX1_RIMSDF.elf.dir/StepLogic.cpp.obj
 .comment       0x0000000000000000       0x12 CMakeFiles/BrewTroller-OT_DX1_RIMSDF.elf.dir/Temp.cpp.obj
 .comment       0x0000000000000000       0x12 CMakeFiles/BrewTroller-OT_DX1_RIMSDF.elf.dir/Timer.cpp.obj
 .comment       0x0000000000000000       0x12 CMakeFiles/BrewTroller-OT_DX1_RIMSDF.elf.dir/UI.cpp.obj
 .comment       0x0000000000000000       0x12 CMakeFiles/BrewTroller-OT_DX1_RIMSDF.elf.dir/UIStrings.cpp.obj
 .comment       0x0000000000000000       0x12 CMakeFiles/BrewTroller-OT_DX1_RIMSDF.elf.dir/Util.cpp.obj
 .comment       0x0000000000000000       0x12 CMakeFiles/BrewTroller-OT_DX1_RIMSDF.elf.dir/Vessel.cpp.obj
 .comment       0x0000000000000000       0x12 CMakeFiles/BrewTroller-OT_DX1_RIMSDF.elf.dir/Volume.cpp.obj
 .comment       0x0000000000000000       0x12 ../lib/libBT-libs.a(malloc.c.obj)
 .comment       0x0000000000000000       0x12 ../lib/libBT-libs.a(HardwareSerial.cpp.obj)
 .comment       0x0000000000000000       0x12 ../lib/libBT-libs.a(new.cpp.obj)
 .comment       0x0000000000000000       0x12 ../lib/libBT-libs.a(Print.cpp.obj)
 .comment       0x0000000000000000       0x12 ../lib/libBT-libs.a(wiring.c.obj)
 .comment       0x0000000000000000       0x12 ../lib/libBT-libs.a(wiring_analog.c.obj)
 .comment       0x0000000000000000       0x12 ../lib/libBT-libs.a(wiring_digital.c.obj)
 .comment       0x0000000000000000       0x12 ../lib/libBT-libs.a(WString.cpp.obj)
 .comment       0x0000000000000000       0x12 ../lib/libBT-libs.a(EEPROM.cpp.obj)
 .comment       0x0000000000000000       0x12 ../lib/libBT-libs.a(Wire.cpp.obj)
 .comment       0x0000000000000000       0x12 ../lib/libBT-libs.a(twi.c.obj)
 .comment       0x0000000000000000       0x12 ../lib/libBT-libs.a(encoder.cpp.obj)
 .comment       0x0000000000000000       0x12 ../lib/libBT-libs.a(pin.cpp.obj)
 .comment       0x0000000000000000       0x12 ../lib/libBT-libs.a(menu.cpp.obj)
 .comment       0x0000000000000000       0x12 ../lib/libBT-libs.a(ModbusMaster.cpp.obj)
 .comment       0x0000000000000000       0x12 ../lib/libBT-libs.a(PID_Beta6.cpp.obj)
 .comment       0x0000000000000000       0x12 ../lib/libBT-libs.a(DS2482.cpp.obj)
 .comment       0x0000000000000000       0x12 ../lib/libBT-libs.a(realloc.c.obj)
 .comment       0x0000000000000000       0x12 ../lib/libBT-libs.a(WInterrupts.c.obj)
 .comment       0x0000000000000000       0x12 ../lib/libBT-libs.a(WMath.cpp.obj)
 .comment       0x0000000000000000       0x12 /usr/lib/gcc/avr/4.8.2/../../../avr/lib/avr51/libc.a(random.o)
 .comment       0x0000000000000000       0x12 /usr/lib/gcc/avr/4.8.2/../../../avr/lib/avr51/libc.a(strtoul.o)
 .comment       0x0000000000000000       0x12 /usr/lib/gcc/avr/4.8.2/../../../avr/lib/avr51/libc.a(sprintf.o)
 .comment       0x0000000000000000       0x12 /usr/lib/gcc/avr/4.8.2/../../../avr/lib/avr51/libc.a(vfprintf_std.o)
 .comment       0x0000000000000000       0x12 /usr/lib/gcc/avr/4.8.2/../../../avr/lib/avr51/libc.a(errno.o)
 .comment       0x0000000000000000       0x12 /usr/lib/gcc/avr/4.8.2/../../../avr/lib/avr51/libc.a(fputc.o)

.debug
 *(.debug)

.line
 *(.line)

.debug_srcinfo
 *(.debug_srcinfo)

.debug_sfnames
 *(.debug_sfnames)

.debug_aranges
 *(.debug_aranges)

.debug_pubnames
 *(.debug_pubnames)

.debug_info
 *(.debug_info)
 *(.gnu.linkonce.wi.*)

.debug_abbrev
 *(.debug_abbrev)

.debug_line
 *(.debug_line)

.debug_frame
 *(.debug_frame)

.debug_str
 *(.debug_str)

.debug_loc
 *(.debug_loc)

.debug_macinfo
 *(.debug_macinfo)

.debug_pubtypes
 *(.debug_pubtypes)

.debug_ranges
 *(.debug_ranges)

.debug_macro
 *(.debug_macro)
OUTPUT(BrewTroller-OT_DX1_RIMSDF.elf elf32-avr)
LOAD linker stubs
